Archive member included to satisfy reference by file (symbol)

c:/intelfpga_lite/20.1/nios2eds/bin/gnu/h-x86_64-mingw32/bin/../lib/gcc/nios2-elf/10.1.1/../../../../../H-x86_64-mingw32/nios2-elf/lib/mno-hw-mul\libm.a(lib_a-wf_exp.o)
                              obj/default/bringup_test.o (expf)
c:/intelfpga_lite/20.1/nios2eds/bin/gnu/h-x86_64-mingw32/bin/../lib/gcc/nios2-elf/10.1.1/../../../../../H-x86_64-mingw32/nios2-elf/lib/mno-hw-mul\libm.a(lib_a-wf_log.o)
                              obj/default/bringup_test.o (logf)
c:/intelfpga_lite/20.1/nios2eds/bin/gnu/h-x86_64-mingw32/bin/../lib/gcc/nios2-elf/10.1.1/../../../../../H-x86_64-mingw32/nios2-elf/lib/mno-hw-mul\libm.a(lib_a-ef_exp.o)
                              c:/intelfpga_lite/20.1/nios2eds/bin/gnu/h-x86_64-mingw32/bin/../lib/gcc/nios2-elf/10.1.1/../../../../../H-x86_64-mingw32/nios2-elf/lib/mno-hw-mul\libm.a(lib_a-wf_exp.o) (__ieee754_expf)
c:/intelfpga_lite/20.1/nios2eds/bin/gnu/h-x86_64-mingw32/bin/../lib/gcc/nios2-elf/10.1.1/../../../../../H-x86_64-mingw32/nios2-elf/lib/mno-hw-mul\libm.a(lib_a-ef_log.o)
                              c:/intelfpga_lite/20.1/nios2eds/bin/gnu/h-x86_64-mingw32/bin/../lib/gcc/nios2-elf/10.1.1/../../../../../H-x86_64-mingw32/nios2-elf/lib/mno-hw-mul\libm.a(lib_a-wf_log.o) (__ieee754_logf)
c:/intelfpga_lite/20.1/nios2eds/bin/gnu/h-x86_64-mingw32/bin/../lib/gcc/nios2-elf/10.1.1/../../../../../H-x86_64-mingw32/nios2-elf/lib/mno-hw-mul\libm.a(lib_a-s_lib_ver.o)
                              c:/intelfpga_lite/20.1/nios2eds/bin/gnu/h-x86_64-mingw32/bin/../lib/gcc/nios2-elf/10.1.1/../../../../../H-x86_64-mingw32/nios2-elf/lib/mno-hw-mul\libm.a(lib_a-wf_exp.o) (__fdlib_version)
c:/intelfpga_lite/20.1/nios2eds/bin/gnu/h-x86_64-mingw32/bin/../lib/gcc/nios2-elf/10.1.1/mno-hw-mul\libgcc.a(_fixunsdfsi.o)
                              obj/default/bringup_test.o (__fixunsdfsi)
c:/intelfpga_lite/20.1/nios2eds/bin/gnu/h-x86_64-mingw32/bin/../lib/gcc/nios2-elf/10.1.1/mno-hw-mul\libgcc.a(_udivdi3.o)
                              obj/default/printf.o (__udivdi3)
c:/intelfpga_lite/20.1/nios2eds/bin/gnu/h-x86_64-mingw32/bin/../lib/gcc/nios2-elf/10.1.1/mno-hw-mul\libgcc.a(_umoddi3.o)
                              obj/default/printf.o (__umoddi3)
c:/intelfpga_lite/20.1/nios2eds/bin/gnu/h-x86_64-mingw32/bin/../lib/gcc/nios2-elf/10.1.1/mno-hw-mul\libgcc.a(lib2-divmod.o)
                              obj/default/printf.o (__divsi3)
c:/intelfpga_lite/20.1/nios2eds/bin/gnu/h-x86_64-mingw32/bin/../lib/gcc/nios2-elf/10.1.1/mno-hw-mul\libgcc.a(lib2-mul.o)
                              obj/default/bringup_test.o (__mulsi3)
c:/intelfpga_lite/20.1/nios2eds/bin/gnu/h-x86_64-mingw32/bin/../lib/gcc/nios2-elf/10.1.1/mno-hw-mul\libgcc.a(addsf3.o)
                              obj/default/bringup_test.o (__addsf3)
c:/intelfpga_lite/20.1/nios2eds/bin/gnu/h-x86_64-mingw32/bin/../lib/gcc/nios2-elf/10.1.1/mno-hw-mul\libgcc.a(divsf3.o)
                              obj/default/bringup_test.o (__divsf3)
c:/intelfpga_lite/20.1/nios2eds/bin/gnu/h-x86_64-mingw32/bin/../lib/gcc/nios2-elf/10.1.1/mno-hw-mul\libgcc.a(eqsf2.o)
                              c:/intelfpga_lite/20.1/nios2eds/bin/gnu/h-x86_64-mingw32/bin/../lib/gcc/nios2-elf/10.1.1/../../../../../H-x86_64-mingw32/nios2-elf/lib/mno-hw-mul\libm.a(lib_a-wf_log.o) (__nesf2)
c:/intelfpga_lite/20.1/nios2eds/bin/gnu/h-x86_64-mingw32/bin/../lib/gcc/nios2-elf/10.1.1/mno-hw-mul\libgcc.a(gesf2.o)
                              obj/default/bringup_test.o (__gtsf2)
c:/intelfpga_lite/20.1/nios2eds/bin/gnu/h-x86_64-mingw32/bin/../lib/gcc/nios2-elf/10.1.1/mno-hw-mul\libgcc.a(lesf2.o)
                              obj/default/bringup_test.o (__ltsf2)
c:/intelfpga_lite/20.1/nios2eds/bin/gnu/h-x86_64-mingw32/bin/../lib/gcc/nios2-elf/10.1.1/mno-hw-mul\libgcc.a(mulsf3.o)
                              obj/default/bringup_test.o (__mulsf3)
c:/intelfpga_lite/20.1/nios2eds/bin/gnu/h-x86_64-mingw32/bin/../lib/gcc/nios2-elf/10.1.1/mno-hw-mul\libgcc.a(subsf3.o)
                              obj/default/bringup_test.o (__subsf3)
c:/intelfpga_lite/20.1/nios2eds/bin/gnu/h-x86_64-mingw32/bin/../lib/gcc/nios2-elf/10.1.1/mno-hw-mul\libgcc.a(unordsf2.o)
                              c:/intelfpga_lite/20.1/nios2eds/bin/gnu/h-x86_64-mingw32/bin/../lib/gcc/nios2-elf/10.1.1/../../../../../H-x86_64-mingw32/nios2-elf/lib/mno-hw-mul\libm.a(lib_a-wf_exp.o) (__unordsf2)
c:/intelfpga_lite/20.1/nios2eds/bin/gnu/h-x86_64-mingw32/bin/../lib/gcc/nios2-elf/10.1.1/mno-hw-mul\libgcc.a(fixsfsi.o)
                              obj/default/bringup_test.o (__fixsfsi)
c:/intelfpga_lite/20.1/nios2eds/bin/gnu/h-x86_64-mingw32/bin/../lib/gcc/nios2-elf/10.1.1/mno-hw-mul\libgcc.a(floatsisf.o)
                              obj/default/bringup_test.o (__floatsisf)
c:/intelfpga_lite/20.1/nios2eds/bin/gnu/h-x86_64-mingw32/bin/../lib/gcc/nios2-elf/10.1.1/mno-hw-mul\libgcc.a(floatunsisf.o)
                              obj/default/bringup_test.o (__floatunsisf)
c:/intelfpga_lite/20.1/nios2eds/bin/gnu/h-x86_64-mingw32/bin/../lib/gcc/nios2-elf/10.1.1/mno-hw-mul\libgcc.a(adddf3.o)
                              obj/default/printf.o (__adddf3)
c:/intelfpga_lite/20.1/nios2eds/bin/gnu/h-x86_64-mingw32/bin/../lib/gcc/nios2-elf/10.1.1/mno-hw-mul\libgcc.a(divdf3.o)
                              obj/default/printf.o (__divdf3)
c:/intelfpga_lite/20.1/nios2eds/bin/gnu/h-x86_64-mingw32/bin/../lib/gcc/nios2-elf/10.1.1/mno-hw-mul\libgcc.a(eqdf2.o)
                              obj/default/printf.o (__eqdf2)
c:/intelfpga_lite/20.1/nios2eds/bin/gnu/h-x86_64-mingw32/bin/../lib/gcc/nios2-elf/10.1.1/mno-hw-mul\libgcc.a(gedf2.o)
                              obj/default/printf.o (__gedf2)
c:/intelfpga_lite/20.1/nios2eds/bin/gnu/h-x86_64-mingw32/bin/../lib/gcc/nios2-elf/10.1.1/mno-hw-mul\libgcc.a(ledf2.o)
                              obj/default/printf.o (__ltdf2)
c:/intelfpga_lite/20.1/nios2eds/bin/gnu/h-x86_64-mingw32/bin/../lib/gcc/nios2-elf/10.1.1/mno-hw-mul\libgcc.a(muldf3.o)
                              obj/default/bringup_test.o (__muldf3)
c:/intelfpga_lite/20.1/nios2eds/bin/gnu/h-x86_64-mingw32/bin/../lib/gcc/nios2-elf/10.1.1/mno-hw-mul\libgcc.a(subdf3.o)
                              obj/default/printf.o (__subdf3)
c:/intelfpga_lite/20.1/nios2eds/bin/gnu/h-x86_64-mingw32/bin/../lib/gcc/nios2-elf/10.1.1/mno-hw-mul\libgcc.a(fixdfsi.o)
                              obj/default/printf.o (__fixdfsi)
c:/intelfpga_lite/20.1/nios2eds/bin/gnu/h-x86_64-mingw32/bin/../lib/gcc/nios2-elf/10.1.1/mno-hw-mul\libgcc.a(floatsidf.o)
                              obj/default/printf.o (__floatsidf)
c:/intelfpga_lite/20.1/nios2eds/bin/gnu/h-x86_64-mingw32/bin/../lib/gcc/nios2-elf/10.1.1/mno-hw-mul\libgcc.a(floatunsidf.o)
                              obj/default/printf.o (__floatunsidf)
c:/intelfpga_lite/20.1/nios2eds/bin/gnu/h-x86_64-mingw32/bin/../lib/gcc/nios2-elf/10.1.1/mno-hw-mul\libgcc.a(extendsfdf2.o)
                              obj/default/bringup_test.o (__extendsfdf2)
c:/intelfpga_lite/20.1/nios2eds/bin/gnu/h-x86_64-mingw32/bin/../lib/gcc/nios2-elf/10.1.1/mno-hw-mul\libgcc.a(_clz.o)
                              c:/intelfpga_lite/20.1/nios2eds/bin/gnu/h-x86_64-mingw32/bin/../lib/gcc/nios2-elf/10.1.1/mno-hw-mul\libgcc.a(_udivdi3.o) (__clz_tab)
c:/intelfpga_lite/20.1/nios2eds/bin/gnu/h-x86_64-mingw32/bin/../lib/gcc/nios2-elf/10.1.1/mno-hw-mul\libgcc.a(_clzsi2.o)
                              c:/intelfpga_lite/20.1/nios2eds/bin/gnu/h-x86_64-mingw32/bin/../lib/gcc/nios2-elf/10.1.1/mno-hw-mul\libgcc.a(addsf3.o) (__clzsi2)
c:/intelfpga_lite/20.1/nios2eds/bin/gnu/h-x86_64-mingw32/bin/../lib/gcc/nios2-elf/10.1.1/../../../../../H-x86_64-mingw32/nios2-elf/lib/mno-hw-mul\libc.a(lib_a-errno.o)
                              c:/intelfpga_lite/20.1/nios2eds/bin/gnu/h-x86_64-mingw32/bin/../lib/gcc/nios2-elf/10.1.1/../../../../../H-x86_64-mingw32/nios2-elf/lib/mno-hw-mul\libm.a(lib_a-wf_exp.o) (__errno)
c:/intelfpga_lite/20.1/nios2eds/bin/gnu/h-x86_64-mingw32/bin/../lib/gcc/nios2-elf/10.1.1/../../../../../H-x86_64-mingw32/nios2-elf/lib/mno-hw-mul\libc.a(lib_a-impure.o)
                              c:/intelfpga_lite/20.1/nios2eds/bin/gnu/h-x86_64-mingw32/bin/../lib/gcc/nios2-elf/10.1.1/../../../../../H-x86_64-mingw32/nios2-elf/lib/mno-hw-mul\libc.a(lib_a-errno.o) (_impure_ptr)
c:/intelfpga_lite/20.1/nios2eds/bin/gnu/h-x86_64-mingw32/bin/../lib/gcc/nios2-elf/10.1.1/../../../../../H-x86_64-mingw32/nios2-elf/lib/mno-hw-mul\libc.a(lib_a-memcpy.o)
                              obj/default/bringup_test.o (memcpy)
c:/GitHub/FAccel-CNN/hardware/intel_fpga/development_kits/terasic_de0_nano/quartus_projects/inference_test/20.1/software/bringup_test_bsp/\libhal_bsp.a(alt_load.o)
                              c:/GitHub/FAccel-CNN/hardware/intel_fpga/development_kits/terasic_de0_nano/quartus_projects/inference_test/20.1/software/bringup_test_bsp//obj/HAL/src/crt0.o (alt_load)
c:/GitHub/FAccel-CNN/hardware/intel_fpga/development_kits/terasic_de0_nano/quartus_projects/inference_test/20.1/software/bringup_test_bsp/\libhal_bsp.a(alt_main.o)
                              c:/GitHub/FAccel-CNN/hardware/intel_fpga/development_kits/terasic_de0_nano/quartus_projects/inference_test/20.1/software/bringup_test_bsp//obj/HAL/src/crt0.o (alt_main)
c:/GitHub/FAccel-CNN/hardware/intel_fpga/development_kits/terasic_de0_nano/quartus_projects/inference_test/20.1/software/bringup_test_bsp/\libhal_bsp.a(alt_printf.o)
                              obj/default/bringup_test.o (alt_printf)
c:/GitHub/FAccel-CNN/hardware/intel_fpga/development_kits/terasic_de0_nano/quartus_projects/inference_test/20.1/software/bringup_test_bsp/\libhal_bsp.a(alt_putchar.o)
                              obj/default/bringup_test.o (alt_putchar)
c:/GitHub/FAccel-CNN/hardware/intel_fpga/development_kits/terasic_de0_nano/quartus_projects/inference_test/20.1/software/bringup_test_bsp/\libhal_bsp.a(alt_sys_init.o)
                              c:/GitHub/FAccel-CNN/hardware/intel_fpga/development_kits/terasic_de0_nano/quartus_projects/inference_test/20.1/software/bringup_test_bsp/\libhal_bsp.a(alt_main.o) (alt_irq_init)
c:/GitHub/FAccel-CNN/hardware/intel_fpga/development_kits/terasic_de0_nano/quartus_projects/inference_test/20.1/software/bringup_test_bsp/\libhal_bsp.a(altera_avalon_jtag_uart_fd.o)
                              c:/GitHub/FAccel-CNN/hardware/intel_fpga/development_kits/terasic_de0_nano/quartus_projects/inference_test/20.1/software/bringup_test_bsp/\libhal_bsp.a(alt_sys_init.o) (altera_avalon_jtag_uart_read_fd)
c:/GitHub/FAccel-CNN/hardware/intel_fpga/development_kits/terasic_de0_nano/quartus_projects/inference_test/20.1/software/bringup_test_bsp/\libhal_bsp.a(altera_avalon_jtag_uart_init.o)
                              c:/GitHub/FAccel-CNN/hardware/intel_fpga/development_kits/terasic_de0_nano/quartus_projects/inference_test/20.1/software/bringup_test_bsp/\libhal_bsp.a(alt_sys_init.o) (altera_avalon_jtag_uart_init)
c:/GitHub/FAccel-CNN/hardware/intel_fpga/development_kits/terasic_de0_nano/quartus_projects/inference_test/20.1/software/bringup_test_bsp/\libhal_bsp.a(altera_avalon_jtag_uart_ioctl.o)
                              c:/GitHub/FAccel-CNN/hardware/intel_fpga/development_kits/terasic_de0_nano/quartus_projects/inference_test/20.1/software/bringup_test_bsp/\libhal_bsp.a(altera_avalon_jtag_uart_fd.o) (altera_avalon_jtag_uart_ioctl)
c:/GitHub/FAccel-CNN/hardware/intel_fpga/development_kits/terasic_de0_nano/quartus_projects/inference_test/20.1/software/bringup_test_bsp/\libhal_bsp.a(altera_avalon_jtag_uart_read.o)
                              c:/GitHub/FAccel-CNN/hardware/intel_fpga/development_kits/terasic_de0_nano/quartus_projects/inference_test/20.1/software/bringup_test_bsp/\libhal_bsp.a(altera_avalon_jtag_uart_fd.o) (altera_avalon_jtag_uart_read)
c:/GitHub/FAccel-CNN/hardware/intel_fpga/development_kits/terasic_de0_nano/quartus_projects/inference_test/20.1/software/bringup_test_bsp/\libhal_bsp.a(altera_avalon_jtag_uart_write.o)
                              c:/GitHub/FAccel-CNN/hardware/intel_fpga/development_kits/terasic_de0_nano/quartus_projects/inference_test/20.1/software/bringup_test_bsp/\libhal_bsp.a(altera_avalon_jtag_uart_fd.o) (altera_avalon_jtag_uart_write)
c:/GitHub/FAccel-CNN/hardware/intel_fpga/development_kits/terasic_de0_nano/quartus_projects/inference_test/20.1/software/bringup_test_bsp/\libhal_bsp.a(alt_alarm_start.o)
                              c:/GitHub/FAccel-CNN/hardware/intel_fpga/development_kits/terasic_de0_nano/quartus_projects/inference_test/20.1/software/bringup_test_bsp/\libhal_bsp.a(altera_avalon_jtag_uart_init.o) (alt_alarm_start)
c:/GitHub/FAccel-CNN/hardware/intel_fpga/development_kits/terasic_de0_nano/quartus_projects/inference_test/20.1/software/bringup_test_bsp/\libhal_bsp.a(alt_close.o)
                              c:/GitHub/FAccel-CNN/hardware/intel_fpga/development_kits/terasic_de0_nano/quartus_projects/inference_test/20.1/software/bringup_test_bsp/\libhal_bsp.a(alt_main.o) (close)
c:/GitHub/FAccel-CNN/hardware/intel_fpga/development_kits/terasic_de0_nano/quartus_projects/inference_test/20.1/software/bringup_test_bsp/\libhal_bsp.a(alt_dcache_flush_all.o)
                              c:/GitHub/FAccel-CNN/hardware/intel_fpga/development_kits/terasic_de0_nano/quartus_projects/inference_test/20.1/software/bringup_test_bsp/\libhal_bsp.a(alt_load.o) (alt_dcache_flush_all)
c:/GitHub/FAccel-CNN/hardware/intel_fpga/development_kits/terasic_de0_nano/quartus_projects/inference_test/20.1/software/bringup_test_bsp/\libhal_bsp.a(alt_dev.o)
                              c:/GitHub/FAccel-CNN/hardware/intel_fpga/development_kits/terasic_de0_nano/quartus_projects/inference_test/20.1/software/bringup_test_bsp/\libhal_bsp.a(alt_sys_init.o) (alt_dev_list)
c:/GitHub/FAccel-CNN/hardware/intel_fpga/development_kits/terasic_de0_nano/quartus_projects/inference_test/20.1/software/bringup_test_bsp/\libhal_bsp.a(alt_dev_llist_insert.o)
                              c:/GitHub/FAccel-CNN/hardware/intel_fpga/development_kits/terasic_de0_nano/quartus_projects/inference_test/20.1/software/bringup_test_bsp/\libhal_bsp.a(alt_sys_init.o) (alt_dev_llist_insert)
c:/GitHub/FAccel-CNN/hardware/intel_fpga/development_kits/terasic_de0_nano/quartus_projects/inference_test/20.1/software/bringup_test_bsp/\libhal_bsp.a(alt_do_ctors.o)
                              c:/GitHub/FAccel-CNN/hardware/intel_fpga/development_kits/terasic_de0_nano/quartus_projects/inference_test/20.1/software/bringup_test_bsp/\libhal_bsp.a(alt_main.o) (_do_ctors)
c:/GitHub/FAccel-CNN/hardware/intel_fpga/development_kits/terasic_de0_nano/quartus_projects/inference_test/20.1/software/bringup_test_bsp/\libhal_bsp.a(alt_do_dtors.o)
                              c:/GitHub/FAccel-CNN/hardware/intel_fpga/development_kits/terasic_de0_nano/quartus_projects/inference_test/20.1/software/bringup_test_bsp/\libhal_bsp.a(alt_main.o) (_do_dtors)
c:/GitHub/FAccel-CNN/hardware/intel_fpga/development_kits/terasic_de0_nano/quartus_projects/inference_test/20.1/software/bringup_test_bsp/\libhal_bsp.a(alt_errno.o)
                              c:/GitHub/FAccel-CNN/hardware/intel_fpga/development_kits/terasic_de0_nano/quartus_projects/inference_test/20.1/software/bringup_test_bsp/\libhal_bsp.a(alt_close.o) (alt_errno)
c:/GitHub/FAccel-CNN/hardware/intel_fpga/development_kits/terasic_de0_nano/quartus_projects/inference_test/20.1/software/bringup_test_bsp/\libhal_bsp.a(alt_icache_flush_all.o)
                              c:/GitHub/FAccel-CNN/hardware/intel_fpga/development_kits/terasic_de0_nano/quartus_projects/inference_test/20.1/software/bringup_test_bsp/\libhal_bsp.a(alt_load.o) (alt_icache_flush_all)
c:/GitHub/FAccel-CNN/hardware/intel_fpga/development_kits/terasic_de0_nano/quartus_projects/inference_test/20.1/software/bringup_test_bsp/\libhal_bsp.a(alt_iic.o)
                              c:/GitHub/FAccel-CNN/hardware/intel_fpga/development_kits/terasic_de0_nano/quartus_projects/inference_test/20.1/software/bringup_test_bsp/\libhal_bsp.a(altera_avalon_jtag_uart_init.o) (alt_ic_isr_register)
c:/GitHub/FAccel-CNN/hardware/intel_fpga/development_kits/terasic_de0_nano/quartus_projects/inference_test/20.1/software/bringup_test_bsp/\libhal_bsp.a(alt_iic_isr_register.o)
                              c:/GitHub/FAccel-CNN/hardware/intel_fpga/development_kits/terasic_de0_nano/quartus_projects/inference_test/20.1/software/bringup_test_bsp/\libhal_bsp.a(alt_iic.o) (alt_iic_isr_register)
c:/GitHub/FAccel-CNN/hardware/intel_fpga/development_kits/terasic_de0_nano/quartus_projects/inference_test/20.1/software/bringup_test_bsp/\libhal_bsp.a(alt_io_redirect.o)
                              c:/GitHub/FAccel-CNN/hardware/intel_fpga/development_kits/terasic_de0_nano/quartus_projects/inference_test/20.1/software/bringup_test_bsp/\libhal_bsp.a(alt_main.o) (alt_io_redirect)
c:/GitHub/FAccel-CNN/hardware/intel_fpga/development_kits/terasic_de0_nano/quartus_projects/inference_test/20.1/software/bringup_test_bsp/\libhal_bsp.a(alt_irq_entry.o)
                              c:/GitHub/FAccel-CNN/hardware/intel_fpga/development_kits/terasic_de0_nano/quartus_projects/inference_test/20.1/software/bringup_test_bsp/\libhal_bsp.a(alt_iic_isr_register.o) (alt_irq_entry)
c:/GitHub/FAccel-CNN/hardware/intel_fpga/development_kits/terasic_de0_nano/quartus_projects/inference_test/20.1/software/bringup_test_bsp/\libhal_bsp.a(alt_irq_handler.o)
                              c:/GitHub/FAccel-CNN/hardware/intel_fpga/development_kits/terasic_de0_nano/quartus_projects/inference_test/20.1/software/bringup_test_bsp/\libhal_bsp.a(alt_iic_isr_register.o) (alt_irq)
c:/GitHub/FAccel-CNN/hardware/intel_fpga/development_kits/terasic_de0_nano/quartus_projects/inference_test/20.1/software/bringup_test_bsp/\libhal_bsp.a(alt_irq_vars.o)
                              c:/GitHub/FAccel-CNN/hardware/intel_fpga/development_kits/terasic_de0_nano/quartus_projects/inference_test/20.1/software/bringup_test_bsp/\libhal_bsp.a(alt_iic.o) (alt_irq_active)
c:/GitHub/FAccel-CNN/hardware/intel_fpga/development_kits/terasic_de0_nano/quartus_projects/inference_test/20.1/software/bringup_test_bsp/\libhal_bsp.a(alt_open.o)
                              c:/GitHub/FAccel-CNN/hardware/intel_fpga/development_kits/terasic_de0_nano/quartus_projects/inference_test/20.1/software/bringup_test_bsp/\libhal_bsp.a(alt_io_redirect.o) (open)
c:/GitHub/FAccel-CNN/hardware/intel_fpga/development_kits/terasic_de0_nano/quartus_projects/inference_test/20.1/software/bringup_test_bsp/\libhal_bsp.a(alt_release_fd.o)
                              c:/GitHub/FAccel-CNN/hardware/intel_fpga/development_kits/terasic_de0_nano/quartus_projects/inference_test/20.1/software/bringup_test_bsp/\libhal_bsp.a(alt_close.o) (alt_release_fd)
c:/GitHub/FAccel-CNN/hardware/intel_fpga/development_kits/terasic_de0_nano/quartus_projects/inference_test/20.1/software/bringup_test_bsp/\libhal_bsp.a(alt_tick.o)
                              c:/GitHub/FAccel-CNN/hardware/intel_fpga/development_kits/terasic_de0_nano/quartus_projects/inference_test/20.1/software/bringup_test_bsp/\libhal_bsp.a(altera_avalon_jtag_uart_init.o) (_alt_tick_rate)
c:/GitHub/FAccel-CNN/hardware/intel_fpga/development_kits/terasic_de0_nano/quartus_projects/inference_test/20.1/software/bringup_test_bsp/\libhal_bsp.a(altera_nios2_gen2_irq.o)
                              c:/GitHub/FAccel-CNN/hardware/intel_fpga/development_kits/terasic_de0_nano/quartus_projects/inference_test/20.1/software/bringup_test_bsp/\libhal_bsp.a(alt_sys_init.o) (altera_nios2_gen2_irq_init)
c:/GitHub/FAccel-CNN/hardware/intel_fpga/development_kits/terasic_de0_nano/quartus_projects/inference_test/20.1/software/bringup_test_bsp/\libhal_bsp.a(alt_exception_entry.o)
                              c:/GitHub/FAccel-CNN/hardware/intel_fpga/development_kits/terasic_de0_nano/quartus_projects/inference_test/20.1/software/bringup_test_bsp/\libhal_bsp.a(alt_irq_entry.o) (alt_exception)
c:/GitHub/FAccel-CNN/hardware/intel_fpga/development_kits/terasic_de0_nano/quartus_projects/inference_test/20.1/software/bringup_test_bsp/\libhal_bsp.a(alt_find_dev.o)
                              c:/GitHub/FAccel-CNN/hardware/intel_fpga/development_kits/terasic_de0_nano/quartus_projects/inference_test/20.1/software/bringup_test_bsp/\libhal_bsp.a(alt_open.o) (alt_find_dev)
c:/GitHub/FAccel-CNN/hardware/intel_fpga/development_kits/terasic_de0_nano/quartus_projects/inference_test/20.1/software/bringup_test_bsp/\libhal_bsp.a(alt_find_file.o)
                              c:/GitHub/FAccel-CNN/hardware/intel_fpga/development_kits/terasic_de0_nano/quartus_projects/inference_test/20.1/software/bringup_test_bsp/\libhal_bsp.a(alt_open.o) (alt_find_file)
c:/GitHub/FAccel-CNN/hardware/intel_fpga/development_kits/terasic_de0_nano/quartus_projects/inference_test/20.1/software/bringup_test_bsp/\libhal_bsp.a(alt_get_fd.o)
                              c:/GitHub/FAccel-CNN/hardware/intel_fpga/development_kits/terasic_de0_nano/quartus_projects/inference_test/20.1/software/bringup_test_bsp/\libhal_bsp.a(alt_open.o) (alt_get_fd)
c:/GitHub/FAccel-CNN/hardware/intel_fpga/development_kits/terasic_de0_nano/quartus_projects/inference_test/20.1/software/bringup_test_bsp/\libhal_bsp.a(alt_instruction_exception_entry.o)
                              c:/GitHub/FAccel-CNN/hardware/intel_fpga/development_kits/terasic_de0_nano/quartus_projects/inference_test/20.1/software/bringup_test_bsp/\libhal_bsp.a(alt_exception_entry.o) (alt_instruction_exception_entry)
c:/intelfpga_lite/20.1/nios2eds/bin/gnu/h-x86_64-mingw32/bin/../lib/gcc/nios2-elf/10.1.1/../../../../../H-x86_64-mingw32/nios2-elf/lib/mno-hw-mul\libc.a(lib_a-atexit.o)
                              c:/GitHub/FAccel-CNN/hardware/intel_fpga/development_kits/terasic_de0_nano/quartus_projects/inference_test/20.1/software/bringup_test_bsp/\libhal_bsp.a(alt_main.o) (atexit)
c:/intelfpga_lite/20.1/nios2eds/bin/gnu/h-x86_64-mingw32/bin/../lib/gcc/nios2-elf/10.1.1/../../../../../H-x86_64-mingw32/nios2-elf/lib/mno-hw-mul\libc.a(lib_a-exit.o)
                              c:/GitHub/FAccel-CNN/hardware/intel_fpga/development_kits/terasic_de0_nano/quartus_projects/inference_test/20.1/software/bringup_test_bsp/\libhal_bsp.a(alt_main.o) (exit)
c:/intelfpga_lite/20.1/nios2eds/bin/gnu/h-x86_64-mingw32/bin/../lib/gcc/nios2-elf/10.1.1/../../../../../H-x86_64-mingw32/nios2-elf/lib/mno-hw-mul\libc.a(lib_a-int_errno.o)
                              c:/GitHub/FAccel-CNN/hardware/intel_fpga/development_kits/terasic_de0_nano/quartus_projects/inference_test/20.1/software/bringup_test_bsp/\libhal_bsp.a(alt_close.o) (errno)
c:/intelfpga_lite/20.1/nios2eds/bin/gnu/h-x86_64-mingw32/bin/../lib/gcc/nios2-elf/10.1.1/../../../../../H-x86_64-mingw32/nios2-elf/lib/mno-hw-mul\libc.a(lib_a-memcmp.o)
                              c:/GitHub/FAccel-CNN/hardware/intel_fpga/development_kits/terasic_de0_nano/quartus_projects/inference_test/20.1/software/bringup_test_bsp/\libhal_bsp.a(alt_find_dev.o) (memcmp)
c:/intelfpga_lite/20.1/nios2eds/bin/gnu/h-x86_64-mingw32/bin/../lib/gcc/nios2-elf/10.1.1/../../../../../H-x86_64-mingw32/nios2-elf/lib/mno-hw-mul\libc.a(lib_a-putchar.o)
                              c:/GitHub/FAccel-CNN/hardware/intel_fpga/development_kits/terasic_de0_nano/quartus_projects/inference_test/20.1/software/bringup_test_bsp/\libhal_bsp.a(alt_putchar.o) (putchar)
c:/intelfpga_lite/20.1/nios2eds/bin/gnu/h-x86_64-mingw32/bin/../lib/gcc/nios2-elf/10.1.1/../../../../../H-x86_64-mingw32/nios2-elf/lib/mno-hw-mul\libc.a(lib_a-strlen.o)
                              c:/GitHub/FAccel-CNN/hardware/intel_fpga/development_kits/terasic_de0_nano/quartus_projects/inference_test/20.1/software/bringup_test_bsp/\libhal_bsp.a(alt_find_dev.o) (strlen)
c:/intelfpga_lite/20.1/nios2eds/bin/gnu/h-x86_64-mingw32/bin/../lib/gcc/nios2-elf/10.1.1/../../../../../H-x86_64-mingw32/nios2-elf/lib/mno-hw-mul\libc.a(lib_a-__atexit.o)
                              c:/intelfpga_lite/20.1/nios2eds/bin/gnu/h-x86_64-mingw32/bin/../lib/gcc/nios2-elf/10.1.1/../../../../../H-x86_64-mingw32/nios2-elf/lib/mno-hw-mul\libc.a(lib_a-atexit.o) (__register_exitproc)
c:/intelfpga_lite/20.1/nios2eds/bin/gnu/h-x86_64-mingw32/bin/../lib/gcc/nios2-elf/10.1.1/../../../../../H-x86_64-mingw32/nios2-elf/lib/mno-hw-mul\libc.a(lib_a-__call_atexit.o)
                              c:/intelfpga_lite/20.1/nios2eds/bin/gnu/h-x86_64-mingw32/bin/../lib/gcc/nios2-elf/10.1.1/../../../../../H-x86_64-mingw32/nios2-elf/lib/mno-hw-mul\libc.a(lib_a-exit.o) (__call_exitprocs)
c:/intelfpga_lite/20.1/nios2eds/bin/gnu/h-x86_64-mingw32/bin/../lib/gcc/nios2-elf/10.1.1/../../../../../H-x86_64-mingw32/nios2-elf/lib/mno-hw-mul\libc.a(lib_a-putc.o)
                              c:/intelfpga_lite/20.1/nios2eds/bin/gnu/h-x86_64-mingw32/bin/../lib/gcc/nios2-elf/10.1.1/../../../../../H-x86_64-mingw32/nios2-elf/lib/mno-hw-mul\libc.a(lib_a-putchar.o) (_putc_r)
c:/intelfpga_lite/20.1/nios2eds/bin/gnu/h-x86_64-mingw32/bin/../lib/gcc/nios2-elf/10.1.1/../../../../../H-x86_64-mingw32/nios2-elf/lib/mno-hw-mul\libc.a(lib_a-wbuf.o)
                              c:/intelfpga_lite/20.1/nios2eds/bin/gnu/h-x86_64-mingw32/bin/../lib/gcc/nios2-elf/10.1.1/../../../../../H-x86_64-mingw32/nios2-elf/lib/mno-hw-mul\libc.a(lib_a-putc.o) (__swbuf_r)
c:/intelfpga_lite/20.1/nios2eds/bin/gnu/h-x86_64-mingw32/bin/../lib/gcc/nios2-elf/10.1.1/../../../../../H-x86_64-mingw32/nios2-elf/lib/mno-hw-mul\libc.a(lib_a-wsetup.o)
                              c:/intelfpga_lite/20.1/nios2eds/bin/gnu/h-x86_64-mingw32/bin/../lib/gcc/nios2-elf/10.1.1/../../../../../H-x86_64-mingw32/nios2-elf/lib/mno-hw-mul\libc.a(lib_a-wbuf.o) (__swsetup_r)
c:/intelfpga_lite/20.1/nios2eds/bin/gnu/h-x86_64-mingw32/bin/../lib/gcc/nios2-elf/10.1.1/../../../../../H-x86_64-mingw32/nios2-elf/lib/mno-hw-mul\libc.a(lib_a-fflush.o)
                              c:/intelfpga_lite/20.1/nios2eds/bin/gnu/h-x86_64-mingw32/bin/../lib/gcc/nios2-elf/10.1.1/../../../../../H-x86_64-mingw32/nios2-elf/lib/mno-hw-mul\libc.a(lib_a-wbuf.o) (_fflush_r)
c:/intelfpga_lite/20.1/nios2eds/bin/gnu/h-x86_64-mingw32/bin/../lib/gcc/nios2-elf/10.1.1/../../../../../H-x86_64-mingw32/nios2-elf/lib/mno-hw-mul\libc.a(lib_a-findfp.o)
                              c:/intelfpga_lite/20.1/nios2eds/bin/gnu/h-x86_64-mingw32/bin/../lib/gcc/nios2-elf/10.1.1/../../../../../H-x86_64-mingw32/nios2-elf/lib/mno-hw-mul\libc.a(lib_a-putc.o) (__sinit)
c:/intelfpga_lite/20.1/nios2eds/bin/gnu/h-x86_64-mingw32/bin/../lib/gcc/nios2-elf/10.1.1/../../../../../H-x86_64-mingw32/nios2-elf/lib/mno-hw-mul\libc.a(lib_a-freer.o)
                              c:/intelfpga_lite/20.1/nios2eds/bin/gnu/h-x86_64-mingw32/bin/../lib/gcc/nios2-elf/10.1.1/../../../../../H-x86_64-mingw32/nios2-elf/lib/mno-hw-mul\libc.a(lib_a-wsetup.o) (_free_r)
c:/intelfpga_lite/20.1/nios2eds/bin/gnu/h-x86_64-mingw32/bin/../lib/gcc/nios2-elf/10.1.1/../../../../../H-x86_64-mingw32/nios2-elf/lib/mno-hw-mul\libc.a(lib_a-fwalk.o)
                              c:/intelfpga_lite/20.1/nios2eds/bin/gnu/h-x86_64-mingw32/bin/../lib/gcc/nios2-elf/10.1.1/../../../../../H-x86_64-mingw32/nios2-elf/lib/mno-hw-mul\libc.a(lib_a-findfp.o) (_fwalk)
c:/intelfpga_lite/20.1/nios2eds/bin/gnu/h-x86_64-mingw32/bin/../lib/gcc/nios2-elf/10.1.1/../../../../../H-x86_64-mingw32/nios2-elf/lib/mno-hw-mul\libc.a(lib_a-makebuf.o)
                              c:/intelfpga_lite/20.1/nios2eds/bin/gnu/h-x86_64-mingw32/bin/../lib/gcc/nios2-elf/10.1.1/../../../../../H-x86_64-mingw32/nios2-elf/lib/mno-hw-mul\libc.a(lib_a-wsetup.o) (__smakebuf_r)
c:/intelfpga_lite/20.1/nios2eds/bin/gnu/h-x86_64-mingw32/bin/../lib/gcc/nios2-elf/10.1.1/../../../../../H-x86_64-mingw32/nios2-elf/lib/mno-hw-mul\libc.a(lib_a-mallocr.o)
                              c:/intelfpga_lite/20.1/nios2eds/bin/gnu/h-x86_64-mingw32/bin/../lib/gcc/nios2-elf/10.1.1/../../../../../H-x86_64-mingw32/nios2-elf/lib/mno-hw-mul\libc.a(lib_a-findfp.o) (_malloc_r)
c:/intelfpga_lite/20.1/nios2eds/bin/gnu/h-x86_64-mingw32/bin/../lib/gcc/nios2-elf/10.1.1/../../../../../H-x86_64-mingw32/nios2-elf/lib/mno-hw-mul\libc.a(lib_a-memset.o)
                              c:/intelfpga_lite/20.1/nios2eds/bin/gnu/h-x86_64-mingw32/bin/../lib/gcc/nios2-elf/10.1.1/../../../../../H-x86_64-mingw32/nios2-elf/lib/mno-hw-mul\libc.a(lib_a-findfp.o) (memset)
c:/intelfpga_lite/20.1/nios2eds/bin/gnu/h-x86_64-mingw32/bin/../lib/gcc/nios2-elf/10.1.1/../../../../../H-x86_64-mingw32/nios2-elf/lib/mno-hw-mul\libc.a(lib_a-sbrkr.o)
                              c:/intelfpga_lite/20.1/nios2eds/bin/gnu/h-x86_64-mingw32/bin/../lib/gcc/nios2-elf/10.1.1/../../../../../H-x86_64-mingw32/nios2-elf/lib/mno-hw-mul\libc.a(lib_a-freer.o) (_sbrk_r)
c:/intelfpga_lite/20.1/nios2eds/bin/gnu/h-x86_64-mingw32/bin/../lib/gcc/nios2-elf/10.1.1/../../../../../H-x86_64-mingw32/nios2-elf/lib/mno-hw-mul\libc.a(lib_a-stdio.o)
                              c:/intelfpga_lite/20.1/nios2eds/bin/gnu/h-x86_64-mingw32/bin/../lib/gcc/nios2-elf/10.1.1/../../../../../H-x86_64-mingw32/nios2-elf/lib/mno-hw-mul\libc.a(lib_a-findfp.o) (__sread)
c:/intelfpga_lite/20.1/nios2eds/bin/gnu/h-x86_64-mingw32/bin/../lib/gcc/nios2-elf/10.1.1/../../../../../H-x86_64-mingw32/nios2-elf/lib/mno-hw-mul\libc.a(lib_a-writer.o)
                              c:/intelfpga_lite/20.1/nios2eds/bin/gnu/h-x86_64-mingw32/bin/../lib/gcc/nios2-elf/10.1.1/../../../../../H-x86_64-mingw32/nios2-elf/lib/mno-hw-mul\libc.a(lib_a-stdio.o) (_write_r)
c:/intelfpga_lite/20.1/nios2eds/bin/gnu/h-x86_64-mingw32/bin/../lib/gcc/nios2-elf/10.1.1/../../../../../H-x86_64-mingw32/nios2-elf/lib/mno-hw-mul\libc.a(closer.o)
                              c:/intelfpga_lite/20.1/nios2eds/bin/gnu/h-x86_64-mingw32/bin/../lib/gcc/nios2-elf/10.1.1/../../../../../H-x86_64-mingw32/nios2-elf/lib/mno-hw-mul\libc.a(lib_a-stdio.o) (_close_r)
c:/intelfpga_lite/20.1/nios2eds/bin/gnu/h-x86_64-mingw32/bin/../lib/gcc/nios2-elf/10.1.1/../../../../../H-x86_64-mingw32/nios2-elf/lib/mno-hw-mul\libc.a(lib_a-fclose.o)
                              c:/intelfpga_lite/20.1/nios2eds/bin/gnu/h-x86_64-mingw32/bin/../lib/gcc/nios2-elf/10.1.1/../../../../../H-x86_64-mingw32/nios2-elf/lib/mno-hw-mul\libc.a(lib_a-findfp.o) (_fclose_r)
c:/intelfpga_lite/20.1/nios2eds/bin/gnu/h-x86_64-mingw32/bin/../lib/gcc/nios2-elf/10.1.1/../../../../../H-x86_64-mingw32/nios2-elf/lib/mno-hw-mul\libc.a(lib_a-fstatr.o)
                              c:/intelfpga_lite/20.1/nios2eds/bin/gnu/h-x86_64-mingw32/bin/../lib/gcc/nios2-elf/10.1.1/../../../../../H-x86_64-mingw32/nios2-elf/lib/mno-hw-mul\libc.a(lib_a-makebuf.o) (_fstat_r)
c:/intelfpga_lite/20.1/nios2eds/bin/gnu/h-x86_64-mingw32/bin/../lib/gcc/nios2-elf/10.1.1/../../../../../H-x86_64-mingw32/nios2-elf/lib/mno-hw-mul\libc.a(lib_a-isattyr.o)
                              c:/intelfpga_lite/20.1/nios2eds/bin/gnu/h-x86_64-mingw32/bin/../lib/gcc/nios2-elf/10.1.1/../../../../../H-x86_64-mingw32/nios2-elf/lib/mno-hw-mul\libc.a(lib_a-makebuf.o) (_isatty_r)
c:/intelfpga_lite/20.1/nios2eds/bin/gnu/h-x86_64-mingw32/bin/../lib/gcc/nios2-elf/10.1.1/../../../../../H-x86_64-mingw32/nios2-elf/lib/mno-hw-mul\libc.a(lib_a-lseekr.o)
                              c:/intelfpga_lite/20.1/nios2eds/bin/gnu/h-x86_64-mingw32/bin/../lib/gcc/nios2-elf/10.1.1/../../../../../H-x86_64-mingw32/nios2-elf/lib/mno-hw-mul\libc.a(lib_a-stdio.o) (_lseek_r)
c:/intelfpga_lite/20.1/nios2eds/bin/gnu/h-x86_64-mingw32/bin/../lib/gcc/nios2-elf/10.1.1/../../../../../H-x86_64-mingw32/nios2-elf/lib/mno-hw-mul\libc.a(lib_a-readr.o)
                              c:/intelfpga_lite/20.1/nios2eds/bin/gnu/h-x86_64-mingw32/bin/../lib/gcc/nios2-elf/10.1.1/../../../../../H-x86_64-mingw32/nios2-elf/lib/mno-hw-mul\libc.a(lib_a-stdio.o) (_read_r)
c:/GitHub/FAccel-CNN/hardware/intel_fpga/development_kits/terasic_de0_nano/quartus_projects/inference_test/20.1/software/bringup_test_bsp/\libhal_bsp.a(alt_exit.o)
                              c:/intelfpga_lite/20.1/nios2eds/bin/gnu/h-x86_64-mingw32/bin/../lib/gcc/nios2-elf/10.1.1/../../../../../H-x86_64-mingw32/nios2-elf/lib/mno-hw-mul\libc.a(lib_a-exit.o) (_exit)
c:/GitHub/FAccel-CNN/hardware/intel_fpga/development_kits/terasic_de0_nano/quartus_projects/inference_test/20.1/software/bringup_test_bsp/\libhal_bsp.a(alt_fstat.o)
                              c:/intelfpga_lite/20.1/nios2eds/bin/gnu/h-x86_64-mingw32/bin/../lib/gcc/nios2-elf/10.1.1/../../../../../H-x86_64-mingw32/nios2-elf/lib/mno-hw-mul\libc.a(lib_a-fstatr.o) (fstat)
c:/GitHub/FAccel-CNN/hardware/intel_fpga/development_kits/terasic_de0_nano/quartus_projects/inference_test/20.1/software/bringup_test_bsp/\libhal_bsp.a(alt_isatty.o)
                              c:/intelfpga_lite/20.1/nios2eds/bin/gnu/h-x86_64-mingw32/bin/../lib/gcc/nios2-elf/10.1.1/../../../../../H-x86_64-mingw32/nios2-elf/lib/mno-hw-mul\libc.a(lib_a-isattyr.o) (isatty)
c:/GitHub/FAccel-CNN/hardware/intel_fpga/development_kits/terasic_de0_nano/quartus_projects/inference_test/20.1/software/bringup_test_bsp/\libhal_bsp.a(alt_lseek.o)
                              c:/intelfpga_lite/20.1/nios2eds/bin/gnu/h-x86_64-mingw32/bin/../lib/gcc/nios2-elf/10.1.1/../../../../../H-x86_64-mingw32/nios2-elf/lib/mno-hw-mul\libc.a(lib_a-lseekr.o) (lseek)
c:/GitHub/FAccel-CNN/hardware/intel_fpga/development_kits/terasic_de0_nano/quartus_projects/inference_test/20.1/software/bringup_test_bsp/\libhal_bsp.a(alt_malloc_lock.o)
                              c:/intelfpga_lite/20.1/nios2eds/bin/gnu/h-x86_64-mingw32/bin/../lib/gcc/nios2-elf/10.1.1/../../../../../H-x86_64-mingw32/nios2-elf/lib/mno-hw-mul\libc.a(lib_a-freer.o) (__malloc_lock)
c:/GitHub/FAccel-CNN/hardware/intel_fpga/development_kits/terasic_de0_nano/quartus_projects/inference_test/20.1/software/bringup_test_bsp/\libhal_bsp.a(alt_read.o)
                              c:/intelfpga_lite/20.1/nios2eds/bin/gnu/h-x86_64-mingw32/bin/../lib/gcc/nios2-elf/10.1.1/../../../../../H-x86_64-mingw32/nios2-elf/lib/mno-hw-mul\libc.a(lib_a-readr.o) (read)
c:/GitHub/FAccel-CNN/hardware/intel_fpga/development_kits/terasic_de0_nano/quartus_projects/inference_test/20.1/software/bringup_test_bsp/\libhal_bsp.a(alt_sbrk.o)
                              c:/intelfpga_lite/20.1/nios2eds/bin/gnu/h-x86_64-mingw32/bin/../lib/gcc/nios2-elf/10.1.1/../../../../../H-x86_64-mingw32/nios2-elf/lib/mno-hw-mul\libc.a(lib_a-sbrkr.o) (sbrk)
c:/GitHub/FAccel-CNN/hardware/intel_fpga/development_kits/terasic_de0_nano/quartus_projects/inference_test/20.1/software/bringup_test_bsp/\libhal_bsp.a(alt_write.o)
                              c:/intelfpga_lite/20.1/nios2eds/bin/gnu/h-x86_64-mingw32/bin/../lib/gcc/nios2-elf/10.1.1/../../../../../H-x86_64-mingw32/nios2-elf/lib/mno-hw-mul\libc.a(lib_a-writer.o) (write)

Memory Configuration

Name             Origin             Length             Attributes
sdram            0x0000000000000000 0x0000000002000000
reset            0x0000000002002000 0x0000000000000020
onchip_ram       0x0000000002002020 0x0000000000001fe0
*default*        0x0000000000000000 0xffffffffffffffff

Linker script and memory map

LOAD c:/GitHub/FAccel-CNN/hardware/intel_fpga/development_kits/terasic_de0_nano/quartus_projects/inference_test/20.1/software/bringup_test_bsp//obj/HAL/src/crt0.o
LOAD obj/default/bringup_test.o
LOAD obj/default/printf.o
LOAD c:/intelfpga_lite/20.1/nios2eds/bin/gnu/h-x86_64-mingw32/bin/../lib/gcc/nios2-elf/10.1.1/../../../../../H-x86_64-mingw32/nios2-elf/lib/mno-hw-mul\libstdc++.a
LOAD c:/intelfpga_lite/20.1/nios2eds/bin/gnu/h-x86_64-mingw32/bin/../lib/gcc/nios2-elf/10.1.1/../../../../../H-x86_64-mingw32/nios2-elf/lib/mno-hw-mul\libm.a
LOAD c:/intelfpga_lite/20.1/nios2eds/bin/gnu/h-x86_64-mingw32/bin/../lib/gcc/nios2-elf/10.1.1/mno-hw-mul\libgcc.a
START GROUP
LOAD c:/intelfpga_lite/20.1/nios2eds/bin/gnu/h-x86_64-mingw32/bin/../lib/gcc/nios2-elf/10.1.1/../../../../../H-x86_64-mingw32/nios2-elf/lib/mno-hw-mul\libc.a
LOAD c:/intelfpga_lite/20.1/nios2eds/bin/gnu/h-x86_64-mingw32/bin/../lib/gcc/nios2-elf/10.1.1/mno-hw-mul\libgcc.a
LOAD c:/GitHub/FAccel-CNN/hardware/intel_fpga/development_kits/terasic_de0_nano/quartus_projects/inference_test/20.1/software/bringup_test_bsp/\libhal_bsp.a
LOAD c:/intelfpga_lite/20.1/nios2eds/bin/gnu/h-x86_64-mingw32/bin/../lib/gcc/nios2-elf/10.1.1/../../../../../H-x86_64-mingw32/nios2-elf/lib/mno-hw-mul\libm.a
END GROUP
LOAD c:/intelfpga_lite/20.1/nios2eds/bin/gnu/h-x86_64-mingw32/bin/../lib/gcc/nios2-elf/10.1.1/mno-hw-mul\libgcc.a
                0x0000000000000000                __alt_mem_sdram = 0x0
                0x0000000002002000                __alt_mem_onchip_ram = 0x2002000

.entry          0x0000000002002000       0x20
 *(.entry)
 .entry         0x0000000002002000       0x20 c:/GitHub/FAccel-CNN/hardware/intel_fpga/development_kits/terasic_de0_nano/quartus_projects/inference_test/20.1/software/bringup_test_bsp//obj/HAL/src/crt0.o
                0x0000000002002000                __reset

.exceptions     0x0000000002002020      0x204 load address 0x0000000000000000
                0x0000000002002020                PROVIDE (__ram_exceptions_start = ABSOLUTE (.))
                0x0000000002002020                . = ALIGN (0x20)
 *(.irq)
 *(.exceptions.entry.label)
 .exceptions.entry.label
                0x0000000002002020        0x0 c:/GitHub/FAccel-CNN/hardware/intel_fpga/development_kits/terasic_de0_nano/quartus_projects/inference_test/20.1/software/bringup_test_bsp/\libhal_bsp.a(alt_irq_entry.o)
                0x0000000002002020                alt_irq_entry
 .exceptions.entry.label
                0x0000000002002020        0x0 c:/GitHub/FAccel-CNN/hardware/intel_fpga/development_kits/terasic_de0_nano/quartus_projects/inference_test/20.1/software/bringup_test_bsp/\libhal_bsp.a(alt_exception_entry.o)
                0x0000000002002020                alt_exception
 *(.exceptions.entry.user)
 *(.exceptions.entry.ecc_fatal)
 *(.exceptions.entry)
 .exceptions.entry
                0x0000000002002020       0x54 c:/GitHub/FAccel-CNN/hardware/intel_fpga/development_kits/terasic_de0_nano/quartus_projects/inference_test/20.1/software/bringup_test_bsp/\libhal_bsp.a(alt_exception_entry.o)
 *(.exceptions.irqtest.user)
 *(.exceptions.irqtest)
 .exceptions.irqtest
                0x0000000002002074       0x10 c:/GitHub/FAccel-CNN/hardware/intel_fpga/development_kits/terasic_de0_nano/quartus_projects/inference_test/20.1/software/bringup_test_bsp/\libhal_bsp.a(alt_irq_entry.o)
 *(.exceptions.irqhandler.user)
 *(.exceptions.irqhandler)
 .exceptions.irqhandler
                0x0000000002002084        0x4 c:/GitHub/FAccel-CNN/hardware/intel_fpga/development_kits/terasic_de0_nano/quartus_projects/inference_test/20.1/software/bringup_test_bsp/\libhal_bsp.a(alt_irq_entry.o)
 *(.exceptions.irqreturn.user)
 *(.exceptions.irqreturn)
 .exceptions.irqreturn
                0x0000000002002088        0x4 c:/GitHub/FAccel-CNN/hardware/intel_fpga/development_kits/terasic_de0_nano/quartus_projects/inference_test/20.1/software/bringup_test_bsp/\libhal_bsp.a(alt_irq_entry.o)
 *(.exceptions.notirq.label)
 .exceptions.notirq.label
                0x000000000200208c        0x0 c:/GitHub/FAccel-CNN/hardware/intel_fpga/development_kits/terasic_de0_nano/quartus_projects/inference_test/20.1/software/bringup_test_bsp/\libhal_bsp.a(alt_irq_entry.o)
 *(.exceptions.notirq.user)
 *(.exceptions.notirq)
 .exceptions.notirq
                0x000000000200208c        0x8 c:/GitHub/FAccel-CNN/hardware/intel_fpga/development_kits/terasic_de0_nano/quartus_projects/inference_test/20.1/software/bringup_test_bsp/\libhal_bsp.a(alt_exception_entry.o)
 *(.exceptions.soft.user)
 *(.exceptions.soft)
 *(.exceptions.unknown.user)
 *(.exceptions.unknown)
 .exceptions.unknown
                0x0000000002002094       0x14 c:/GitHub/FAccel-CNN/hardware/intel_fpga/development_kits/terasic_de0_nano/quartus_projects/inference_test/20.1/software/bringup_test_bsp/\libhal_bsp.a(alt_exception_entry.o)
 *(.exceptions.exit.label)
 .exceptions.exit.label
                0x00000000020020a8        0x0 c:/GitHub/FAccel-CNN/hardware/intel_fpga/development_kits/terasic_de0_nano/quartus_projects/inference_test/20.1/software/bringup_test_bsp/\libhal_bsp.a(alt_irq_entry.o)
 .exceptions.exit.label
                0x00000000020020a8        0x0 c:/GitHub/FAccel-CNN/hardware/intel_fpga/development_kits/terasic_de0_nano/quartus_projects/inference_test/20.1/software/bringup_test_bsp/\libhal_bsp.a(alt_exception_entry.o)
 *(.exceptions.exit.user)
 *(.exceptions.exit)
 .exceptions.exit
                0x00000000020020a8       0x54 c:/GitHub/FAccel-CNN/hardware/intel_fpga/development_kits/terasic_de0_nano/quartus_projects/inference_test/20.1/software/bringup_test_bsp/\libhal_bsp.a(alt_exception_entry.o)
 *(.exceptions)
 .exceptions    0x00000000020020fc       0xc8 c:/GitHub/FAccel-CNN/hardware/intel_fpga/development_kits/terasic_de0_nano/quartus_projects/inference_test/20.1/software/bringup_test_bsp/\libhal_bsp.a(alt_irq_handler.o)
                0x00000000020020fc                alt_irq_handler
 .exceptions    0x00000000020021c4       0x60 c:/GitHub/FAccel-CNN/hardware/intel_fpga/development_kits/terasic_de0_nano/quartus_projects/inference_test/20.1/software/bringup_test_bsp/\libhal_bsp.a(alt_instruction_exception_entry.o)
                0x00000000020021c4                alt_instruction_exception_entry
                0x0000000002002224                PROVIDE (__ram_exceptions_end = ABSOLUTE (.))
                0x0000000000000000                PROVIDE (__flash_exceptions_start = LOADADDR (.exceptions))

.text           0x0000000000000204     0xe518
                [!provide]                        PROVIDE (stext = ABSOLUTE (.))
 *(.interp)
 *(.hash)
 *(.dynsym)
 *(.dynstr)
 *(.gnu.version)
 *(.gnu.version_d)
 *(.gnu.version_r)
 *(.rel.init)
 *(.rela.init)
 *(.rel.text .rel.text.* .rel.gnu.linkonce.t.*)
 *(.rela.text .rela.text.* .rela.gnu.linkonce.t.*)
 *(.rel.fini)
 *(.rela.fini)
 *(.rel.rodata .rel.rodata.* .rel.gnu.linkonce.r.*)
 *(.rela.rodata .rela.rodata.* .rela.gnu.linkonce.r.*)
 *(.rel.data .rel.data.* .rel.gnu.linkonce.d.*)
 *(.rela.data .rela.data.* .rela.gnu.linkonce.d.*)
 *(.rel.tdata .rel.tdata.* .rel.gnu.linkonce.td.*)
 *(.rela.tdata .rela.tdata.* .rela.gnu.linkonce.td.*)
 *(.rel.tbss .rel.tbss.* .rel.gnu.linkonce.tb.*)
 *(.rela.tbss .rela.tbss.* .rela.gnu.linkonce.tb.*)
 *(.rel.ctors)
 *(.rela.ctors)
 *(.rel.dtors)
 *(.rela.dtors)
 *(.rel.got)
 *(.rela.got)
 *(.rel.sdata .rel.sdata.* .rel.gnu.linkonce.s.*)
 *(.rela.sdata .rela.sdata.* .rela.gnu.linkonce.s.*)
 *(.rel.sbss .rel.sbss.* .rel.gnu.linkonce.sb.*)
 *(.rela.sbss .rela.sbss.* .rela.gnu.linkonce.sb.*)
 *(.rel.sdata2 .rel.sdata2.* .rel.gnu.linkonce.s2.*)
 *(.rela.sdata2 .rela.sdata2.* .rela.gnu.linkonce.s2.*)
 *(.rel.sbss2 .rel.sbss2.* .rel.gnu.linkonce.sb2.*)
 *(.rela.sbss2 .rela.sbss2.* .rela.gnu.linkonce.sb2.*)
 *(.rel.bss .rel.bss.* .rel.gnu.linkonce.b.*)
 *(.rela.bss .rela.bss.* .rela.gnu.linkonce.b.*)
 *(.rel.plt)
 *(.rela.plt)
 *(.rel.dyn)
 *(.init)
 *(.plt)
 *(.text .stub .text.* .gnu.linkonce.t.*)
 .text          0x0000000000000204       0x3c c:/GitHub/FAccel-CNN/hardware/intel_fpga/development_kits/terasic_de0_nano/quartus_projects/inference_test/20.1/software/bringup_test_bsp//obj/HAL/src/crt0.o
                0x0000000000000204                _start
 .text          0x0000000000000240     0x180c obj/default/bringup_test.o
                0x0000000000000240                _putchar
                0x000000000000027c                bf2f
                0x00000000000002b8                f2bf
                0x00000000000002e8                bf_mult
                0x0000000000000364                bf_add
                0x00000000000003e0                bf_neg
                0x0000000000000428                bf_gt
                0x00000000000004ac                bf_lt
                0x0000000000000530                put_pixel
                0x00000000000005c0                get_pixel
                0x0000000000000644                show_featuremap
                0x0000000000000704                relu
                0x00000000000007b4                padding
                0x00000000000009e0                convolution
                0x0000000000000c1c                maxpool
                0x0000000000000dcc                global_average_pooling
                0x0000000000000ec8                softmax
                0x00000000000010b4                scale
                0x0000000000001278                rgb565_to_feature
                0x00000000000013f8                grey_to_feature
                0x00000000000014d8                rgb_to_grey
                0x000000000000164c                rgb565_to_text
                0x0000000000001844                grey_to_text
                0x0000000000001a2c                main
 .text          0x0000000000001a4c     0x2cd4 obj/default/printf.o
                0x00000000000044d4                printf_
                0x000000000000453c                sprintf_
                0x00000000000045a0                snprintf_
                0x0000000000004604                vprintf_
                0x0000000000004654                vsnprintf_
                0x00000000000046a8                fctprintf
 .text          0x0000000000004720        0x0 c:/intelfpga_lite/20.1/nios2eds/bin/gnu/h-x86_64-mingw32/bin/../lib/gcc/nios2-elf/10.1.1/../../../../../H-x86_64-mingw32/nios2-elf/lib/mno-hw-mul\libm.a(lib_a-wf_exp.o)
 .text.expf     0x0000000000004720       0xd0 c:/intelfpga_lite/20.1/nios2eds/bin/gnu/h-x86_64-mingw32/bin/../lib/gcc/nios2-elf/10.1.1/../../../../../H-x86_64-mingw32/nios2-elf/lib/mno-hw-mul\libm.a(lib_a-wf_exp.o)
                0x0000000000004720                expf
 .text          0x00000000000047f0        0x0 c:/intelfpga_lite/20.1/nios2eds/bin/gnu/h-x86_64-mingw32/bin/../lib/gcc/nios2-elf/10.1.1/../../../../../H-x86_64-mingw32/nios2-elf/lib/mno-hw-mul\libm.a(lib_a-wf_log.o)
 .text.logf     0x00000000000047f0       0x98 c:/intelfpga_lite/20.1/nios2eds/bin/gnu/h-x86_64-mingw32/bin/../lib/gcc/nios2-elf/10.1.1/../../../../../H-x86_64-mingw32/nios2-elf/lib/mno-hw-mul\libm.a(lib_a-wf_log.o)
                0x00000000000047f0                logf
 .text          0x0000000000004888        0x0 c:/intelfpga_lite/20.1/nios2eds/bin/gnu/h-x86_64-mingw32/bin/../lib/gcc/nios2-elf/10.1.1/../../../../../H-x86_64-mingw32/nios2-elf/lib/mno-hw-mul\libm.a(lib_a-ef_exp.o)
 .text.__ieee754_expf
                0x0000000000004888      0x3c0 c:/intelfpga_lite/20.1/nios2eds/bin/gnu/h-x86_64-mingw32/bin/../lib/gcc/nios2-elf/10.1.1/../../../../../H-x86_64-mingw32/nios2-elf/lib/mno-hw-mul\libm.a(lib_a-ef_exp.o)
                0x0000000000004888                __ieee754_expf
 .text          0x0000000000004c48        0x0 c:/intelfpga_lite/20.1/nios2eds/bin/gnu/h-x86_64-mingw32/bin/../lib/gcc/nios2-elf/10.1.1/../../../../../H-x86_64-mingw32/nios2-elf/lib/mno-hw-mul\libm.a(lib_a-ef_log.o)
 .text.__ieee754_logf
                0x0000000000004c48      0x434 c:/intelfpga_lite/20.1/nios2eds/bin/gnu/h-x86_64-mingw32/bin/../lib/gcc/nios2-elf/10.1.1/../../../../../H-x86_64-mingw32/nios2-elf/lib/mno-hw-mul\libm.a(lib_a-ef_log.o)
                0x0000000000004c48                __ieee754_logf
 .text          0x000000000000507c        0x0 c:/intelfpga_lite/20.1/nios2eds/bin/gnu/h-x86_64-mingw32/bin/../lib/gcc/nios2-elf/10.1.1/../../../../../H-x86_64-mingw32/nios2-elf/lib/mno-hw-mul\libm.a(lib_a-s_lib_ver.o)
 .text          0x000000000000507c       0x74 c:/intelfpga_lite/20.1/nios2eds/bin/gnu/h-x86_64-mingw32/bin/../lib/gcc/nios2-elf/10.1.1/mno-hw-mul\libgcc.a(_fixunsdfsi.o)
                0x000000000000507c                __fixunsdfsi
 .text          0x00000000000050f0      0x620 c:/intelfpga_lite/20.1/nios2eds/bin/gnu/h-x86_64-mingw32/bin/../lib/gcc/nios2-elf/10.1.1/mno-hw-mul\libgcc.a(_udivdi3.o)
                0x00000000000050f0                __udivdi3
 .text          0x0000000000005710      0x5c4 c:/intelfpga_lite/20.1/nios2eds/bin/gnu/h-x86_64-mingw32/bin/../lib/gcc/nios2-elf/10.1.1/mno-hw-mul\libgcc.a(_umoddi3.o)
                0x0000000000005710                __umoddi3
 .text          0x0000000000005cd4      0x1b4 c:/intelfpga_lite/20.1/nios2eds/bin/gnu/h-x86_64-mingw32/bin/../lib/gcc/nios2-elf/10.1.1/mno-hw-mul\libgcc.a(lib2-divmod.o)
                0x0000000000005cd4                __divsi3
                0x0000000000005d54                __modsi3
                0x0000000000005dc8                __udivsi3
                0x0000000000005e2c                __umodsi3
 .text          0x0000000000005e88       0x28 c:/intelfpga_lite/20.1/nios2eds/bin/gnu/h-x86_64-mingw32/bin/../lib/gcc/nios2-elf/10.1.1/mno-hw-mul\libgcc.a(lib2-mul.o)
                0x0000000000005e88                __mulsi3
 .text          0x0000000000005eb0      0x46c c:/intelfpga_lite/20.1/nios2eds/bin/gnu/h-x86_64-mingw32/bin/../lib/gcc/nios2-elf/10.1.1/mno-hw-mul\libgcc.a(addsf3.o)
                0x0000000000005eb0                __addsf3
 .text          0x000000000000631c      0x3f4 c:/intelfpga_lite/20.1/nios2eds/bin/gnu/h-x86_64-mingw32/bin/../lib/gcc/nios2-elf/10.1.1/mno-hw-mul\libgcc.a(divsf3.o)
                0x000000000000631c                __divsf3
 .text          0x0000000000006710       0x70 c:/intelfpga_lite/20.1/nios2eds/bin/gnu/h-x86_64-mingw32/bin/../lib/gcc/nios2-elf/10.1.1/mno-hw-mul\libgcc.a(eqsf2.o)
                0x0000000000006710                __eqsf2
                0x0000000000006710                __nesf2
 .text          0x0000000000006780       0xb8 c:/intelfpga_lite/20.1/nios2eds/bin/gnu/h-x86_64-mingw32/bin/../lib/gcc/nios2-elf/10.1.1/mno-hw-mul\libgcc.a(gesf2.o)
                0x0000000000006780                __gesf2
                0x0000000000006780                __gtsf2
 .text          0x0000000000006838       0xb4 c:/intelfpga_lite/20.1/nios2eds/bin/gnu/h-x86_64-mingw32/bin/../lib/gcc/nios2-elf/10.1.1/mno-hw-mul\libgcc.a(lesf2.o)
                0x0000000000006838                __ltsf2
                0x0000000000006838                __lesf2
 .text          0x00000000000068ec      0x400 c:/intelfpga_lite/20.1/nios2eds/bin/gnu/h-x86_64-mingw32/bin/../lib/gcc/nios2-elf/10.1.1/mno-hw-mul\libgcc.a(mulsf3.o)
                0x00000000000068ec                __mulsf3
 .text          0x0000000000006cec      0x494 c:/intelfpga_lite/20.1/nios2eds/bin/gnu/h-x86_64-mingw32/bin/../lib/gcc/nios2-elf/10.1.1/mno-hw-mul\libgcc.a(subsf3.o)
                0x0000000000006cec                __subsf3
 .text          0x0000000000007180       0x4c c:/intelfpga_lite/20.1/nios2eds/bin/gnu/h-x86_64-mingw32/bin/../lib/gcc/nios2-elf/10.1.1/mno-hw-mul\libgcc.a(unordsf2.o)
                0x0000000000007180                __unordsf2
 .text          0x00000000000071cc       0x70 c:/intelfpga_lite/20.1/nios2eds/bin/gnu/h-x86_64-mingw32/bin/../lib/gcc/nios2-elf/10.1.1/mno-hw-mul\libgcc.a(fixsfsi.o)
                0x00000000000071cc                __fixsfsi
 .text          0x000000000000723c      0x124 c:/intelfpga_lite/20.1/nios2eds/bin/gnu/h-x86_64-mingw32/bin/../lib/gcc/nios2-elf/10.1.1/mno-hw-mul\libgcc.a(floatsisf.o)
                0x000000000000723c                __floatsisf
 .text          0x0000000000007360       0xfc c:/intelfpga_lite/20.1/nios2eds/bin/gnu/h-x86_64-mingw32/bin/../lib/gcc/nios2-elf/10.1.1/mno-hw-mul\libgcc.a(floatunsisf.o)
                0x0000000000007360                __floatunsisf
 .text          0x000000000000745c      0x8f0 c:/intelfpga_lite/20.1/nios2eds/bin/gnu/h-x86_64-mingw32/bin/../lib/gcc/nios2-elf/10.1.1/mno-hw-mul\libgcc.a(adddf3.o)
                0x000000000000745c                __adddf3
 .text          0x0000000000007d4c      0x930 c:/intelfpga_lite/20.1/nios2eds/bin/gnu/h-x86_64-mingw32/bin/../lib/gcc/nios2-elf/10.1.1/mno-hw-mul\libgcc.a(divdf3.o)
                0x0000000000007d4c                __divdf3
 .text          0x000000000000867c       0x80 c:/intelfpga_lite/20.1/nios2eds/bin/gnu/h-x86_64-mingw32/bin/../lib/gcc/nios2-elf/10.1.1/mno-hw-mul\libgcc.a(eqdf2.o)
                0x000000000000867c                __nedf2
                0x000000000000867c                __eqdf2
 .text          0x00000000000086fc       0xe8 c:/intelfpga_lite/20.1/nios2eds/bin/gnu/h-x86_64-mingw32/bin/../lib/gcc/nios2-elf/10.1.1/mno-hw-mul\libgcc.a(gedf2.o)
                0x00000000000086fc                __gedf2
                0x00000000000086fc                __gtdf2
 .text          0x00000000000087e4       0xe8 c:/intelfpga_lite/20.1/nios2eds/bin/gnu/h-x86_64-mingw32/bin/../lib/gcc/nios2-elf/10.1.1/mno-hw-mul\libgcc.a(ledf2.o)
                0x00000000000087e4                __ledf2
                0x00000000000087e4                __ltdf2
 .text          0x00000000000088cc      0x7ac c:/intelfpga_lite/20.1/nios2eds/bin/gnu/h-x86_64-mingw32/bin/../lib/gcc/nios2-elf/10.1.1/mno-hw-mul\libgcc.a(muldf3.o)
                0x00000000000088cc                __muldf3
 .text          0x0000000000009078      0x8b4 c:/intelfpga_lite/20.1/nios2eds/bin/gnu/h-x86_64-mingw32/bin/../lib/gcc/nios2-elf/10.1.1/mno-hw-mul\libgcc.a(subdf3.o)
                0x0000000000009078                __subdf3
 .text          0x000000000000992c       0x80 c:/intelfpga_lite/20.1/nios2eds/bin/gnu/h-x86_64-mingw32/bin/../lib/gcc/nios2-elf/10.1.1/mno-hw-mul\libgcc.a(fixdfsi.o)
                0x000000000000992c                __fixdfsi
 .text          0x00000000000099ac       0xb8 c:/intelfpga_lite/20.1/nios2eds/bin/gnu/h-x86_64-mingw32/bin/../lib/gcc/nios2-elf/10.1.1/mno-hw-mul\libgcc.a(floatsidf.o)
                0x00000000000099ac                __floatsidf
 .text          0x0000000000009a64       0x90 c:/intelfpga_lite/20.1/nios2eds/bin/gnu/h-x86_64-mingw32/bin/../lib/gcc/nios2-elf/10.1.1/mno-hw-mul\libgcc.a(floatunsidf.o)
                0x0000000000009a64                __floatunsidf
 .text          0x0000000000009af4       0xfc c:/intelfpga_lite/20.1/nios2eds/bin/gnu/h-x86_64-mingw32/bin/../lib/gcc/nios2-elf/10.1.1/mno-hw-mul\libgcc.a(extendsfdf2.o)
                0x0000000000009af4                __extendsfdf2
 .text          0x0000000000009bf0        0x0 c:/intelfpga_lite/20.1/nios2eds/bin/gnu/h-x86_64-mingw32/bin/../lib/gcc/nios2-elf/10.1.1/mno-hw-mul\libgcc.a(_clz.o)
 .text          0x0000000000009bf0       0x54 c:/intelfpga_lite/20.1/nios2eds/bin/gnu/h-x86_64-mingw32/bin/../lib/gcc/nios2-elf/10.1.1/mno-hw-mul\libgcc.a(_clzsi2.o)
                0x0000000000009bf0                __clzsi2
 .text          0x0000000000009c44        0x0 c:/intelfpga_lite/20.1/nios2eds/bin/gnu/h-x86_64-mingw32/bin/../lib/gcc/nios2-elf/10.1.1/../../../../../H-x86_64-mingw32/nios2-elf/lib/mno-hw-mul\libc.a(lib_a-errno.o)
 .text.__errno  0x0000000000009c44        0xc c:/intelfpga_lite/20.1/nios2eds/bin/gnu/h-x86_64-mingw32/bin/../lib/gcc/nios2-elf/10.1.1/../../../../../H-x86_64-mingw32/nios2-elf/lib/mno-hw-mul\libc.a(lib_a-errno.o)
                0x0000000000009c44                __errno
 .text          0x0000000000009c50        0x0 c:/intelfpga_lite/20.1/nios2eds/bin/gnu/h-x86_64-mingw32/bin/../lib/gcc/nios2-elf/10.1.1/../../../../../H-x86_64-mingw32/nios2-elf/lib/mno-hw-mul\libc.a(lib_a-impure.o)
 .text          0x0000000000009c50        0x0 c:/intelfpga_lite/20.1/nios2eds/bin/gnu/h-x86_64-mingw32/bin/../lib/gcc/nios2-elf/10.1.1/../../../../../H-x86_64-mingw32/nios2-elf/lib/mno-hw-mul\libc.a(lib_a-memcpy.o)
 .text.memcpy   0x0000000000009c50      0x100 c:/intelfpga_lite/20.1/nios2eds/bin/gnu/h-x86_64-mingw32/bin/../lib/gcc/nios2-elf/10.1.1/../../../../../H-x86_64-mingw32/nios2-elf/lib/mno-hw-mul\libc.a(lib_a-memcpy.o)
                0x0000000000009c50                memcpy
 .text          0x0000000000009d50       0xec c:/GitHub/FAccel-CNN/hardware/intel_fpga/development_kits/terasic_de0_nano/quartus_projects/inference_test/20.1/software/bringup_test_bsp/\libhal_bsp.a(alt_load.o)
                0x0000000000009db8                alt_load
 .text          0x0000000000009e3c       0x7c c:/GitHub/FAccel-CNN/hardware/intel_fpga/development_kits/terasic_de0_nano/quartus_projects/inference_test/20.1/software/bringup_test_bsp/\libhal_bsp.a(alt_main.o)
                0x0000000000009e3c                alt_main
 .text          0x0000000000009eb8      0x22c c:/GitHub/FAccel-CNN/hardware/intel_fpga/development_kits/terasic_de0_nano/quartus_projects/inference_test/20.1/software/bringup_test_bsp/\libhal_bsp.a(alt_printf.o)
                0x0000000000009eb8                alt_printf
 .text          0x000000000000a0e4       0x30 c:/GitHub/FAccel-CNN/hardware/intel_fpga/development_kits/terasic_de0_nano/quartus_projects/inference_test/20.1/software/bringup_test_bsp/\libhal_bsp.a(alt_putchar.o)
                0x000000000000a0e4                alt_putchar
 .text          0x000000000000a114       0xb8 c:/GitHub/FAccel-CNN/hardware/intel_fpga/development_kits/terasic_de0_nano/quartus_projects/inference_test/20.1/software/bringup_test_bsp/\libhal_bsp.a(alt_sys_init.o)
                0x000000000000a148                alt_irq_init
                0x000000000000a184                alt_sys_init
 .text          0x000000000000a1cc      0x164 c:/GitHub/FAccel-CNN/hardware/intel_fpga/development_kits/terasic_de0_nano/quartus_projects/inference_test/20.1/software/bringup_test_bsp/\libhal_bsp.a(altera_avalon_jtag_uart_fd.o)
                0x000000000000a1cc                altera_avalon_jtag_uart_read_fd
                0x000000000000a22c                altera_avalon_jtag_uart_write_fd
                0x000000000000a28c                altera_avalon_jtag_uart_close_fd
                0x000000000000a2dc                altera_avalon_jtag_uart_ioctl_fd
 .text          0x000000000000a330      0x3d4 c:/GitHub/FAccel-CNN/hardware/intel_fpga/development_kits/terasic_de0_nano/quartus_projects/inference_test/20.1/software/bringup_test_bsp/\libhal_bsp.a(altera_avalon_jtag_uart_init.o)
                0x000000000000a330                altera_avalon_jtag_uart_init
                0x000000000000a69c                altera_avalon_jtag_uart_close
 .text          0x000000000000a704       0xf4 c:/GitHub/FAccel-CNN/hardware/intel_fpga/development_kits/terasic_de0_nano/quartus_projects/inference_test/20.1/software/bringup_test_bsp/\libhal_bsp.a(altera_avalon_jtag_uart_ioctl.o)
                0x000000000000a704                altera_avalon_jtag_uart_ioctl
 .text          0x000000000000a7f8      0x220 c:/GitHub/FAccel-CNN/hardware/intel_fpga/development_kits/terasic_de0_nano/quartus_projects/inference_test/20.1/software/bringup_test_bsp/\libhal_bsp.a(altera_avalon_jtag_uart_read.o)
                0x000000000000a7f8                altera_avalon_jtag_uart_read
 .text          0x000000000000aa18      0x228 c:/GitHub/FAccel-CNN/hardware/intel_fpga/development_kits/terasic_de0_nano/quartus_projects/inference_test/20.1/software/bringup_test_bsp/\libhal_bsp.a(altera_avalon_jtag_uart_write.o)
                0x000000000000aa18                altera_avalon_jtag_uart_write
 .text          0x000000000000ac40      0x134 c:/GitHub/FAccel-CNN/hardware/intel_fpga/development_kits/terasic_de0_nano/quartus_projects/inference_test/20.1/software/bringup_test_bsp/\libhal_bsp.a(alt_alarm_start.o)
                0x000000000000ac40                alt_alarm_start
 .text          0x000000000000ad74      0x118 c:/GitHub/FAccel-CNN/hardware/intel_fpga/development_kits/terasic_de0_nano/quartus_projects/inference_test/20.1/software/bringup_test_bsp/\libhal_bsp.a(alt_close.o)
                0x000000000000adb0                close
 .text          0x000000000000ae8c       0x20 c:/GitHub/FAccel-CNN/hardware/intel_fpga/development_kits/terasic_de0_nano/quartus_projects/inference_test/20.1/software/bringup_test_bsp/\libhal_bsp.a(alt_dcache_flush_all.o)
                0x000000000000ae8c                alt_dcache_flush_all
 .text          0x000000000000aeac       0x2c c:/GitHub/FAccel-CNN/hardware/intel_fpga/development_kits/terasic_de0_nano/quartus_projects/inference_test/20.1/software/bringup_test_bsp/\libhal_bsp.a(alt_dev.o)
 .text          0x000000000000aed8       0xe4 c:/GitHub/FAccel-CNN/hardware/intel_fpga/development_kits/terasic_de0_nano/quartus_projects/inference_test/20.1/software/bringup_test_bsp/\libhal_bsp.a(alt_dev_llist_insert.o)
                0x000000000000af14                alt_dev_llist_insert
 .text          0x000000000000afbc       0x64 c:/GitHub/FAccel-CNN/hardware/intel_fpga/development_kits/terasic_de0_nano/quartus_projects/inference_test/20.1/software/bringup_test_bsp/\libhal_bsp.a(alt_do_ctors.o)
                0x000000000000afbc                _do_ctors
 .text          0x000000000000b020       0x64 c:/GitHub/FAccel-CNN/hardware/intel_fpga/development_kits/terasic_de0_nano/quartus_projects/inference_test/20.1/software/bringup_test_bsp/\libhal_bsp.a(alt_do_dtors.o)
                0x000000000000b020                _do_dtors
 .text          0x000000000000b084        0x0 c:/GitHub/FAccel-CNN/hardware/intel_fpga/development_kits/terasic_de0_nano/quartus_projects/inference_test/20.1/software/bringup_test_bsp/\libhal_bsp.a(alt_errno.o)
 .text          0x000000000000b084       0x20 c:/GitHub/FAccel-CNN/hardware/intel_fpga/development_kits/terasic_de0_nano/quartus_projects/inference_test/20.1/software/bringup_test_bsp/\libhal_bsp.a(alt_icache_flush_all.o)
                0x000000000000b084                alt_icache_flush_all
 .text          0x000000000000b0a4      0x1b0 c:/GitHub/FAccel-CNN/hardware/intel_fpga/development_kits/terasic_de0_nano/quartus_projects/inference_test/20.1/software/bringup_test_bsp/\libhal_bsp.a(alt_iic.o)
                0x000000000000b0a4                alt_ic_isr_register
                0x000000000000b0f4                alt_ic_irq_enable
                0x000000000000b17c                alt_ic_irq_disable
                0x000000000000b208                alt_ic_irq_enabled
 .text          0x000000000000b254       0xe8 c:/GitHub/FAccel-CNN/hardware/intel_fpga/development_kits/terasic_de0_nano/quartus_projects/inference_test/20.1/software/bringup_test_bsp/\libhal_bsp.a(alt_iic_isr_register.o)
                0x000000000000b254                alt_iic_isr_register
 .text          0x000000000000b33c      0x150 c:/GitHub/FAccel-CNN/hardware/intel_fpga/development_kits/terasic_de0_nano/quartus_projects/inference_test/20.1/software/bringup_test_bsp/\libhal_bsp.a(alt_io_redirect.o)
                0x000000000000b410                alt_io_redirect
 .text          0x000000000000b48c        0x0 c:/GitHub/FAccel-CNN/hardware/intel_fpga/development_kits/terasic_de0_nano/quartus_projects/inference_test/20.1/software/bringup_test_bsp/\libhal_bsp.a(alt_irq_entry.o)
 .text          0x000000000000b48c        0x0 c:/GitHub/FAccel-CNN/hardware/intel_fpga/development_kits/terasic_de0_nano/quartus_projects/inference_test/20.1/software/bringup_test_bsp/\libhal_bsp.a(alt_irq_handler.o)
 .text          0x000000000000b48c        0x0 c:/GitHub/FAccel-CNN/hardware/intel_fpga/development_kits/terasic_de0_nano/quartus_projects/inference_test/20.1/software/bringup_test_bsp/\libhal_bsp.a(alt_irq_vars.o)
 .text          0x000000000000b48c      0x278 c:/GitHub/FAccel-CNN/hardware/intel_fpga/development_kits/terasic_de0_nano/quartus_projects/inference_test/20.1/software/bringup_test_bsp/\libhal_bsp.a(alt_open.o)
                0x000000000000b5a4                open
 .text          0x000000000000b704       0x70 c:/GitHub/FAccel-CNN/hardware/intel_fpga/development_kits/terasic_de0_nano/quartus_projects/inference_test/20.1/software/bringup_test_bsp/\libhal_bsp.a(alt_release_fd.o)
                0x000000000000b704                alt_release_fd
 .text          0x000000000000b774      0x1ac c:/GitHub/FAccel-CNN/hardware/intel_fpga/development_kits/terasic_de0_nano/quartus_projects/inference_test/20.1/software/bringup_test_bsp/\libhal_bsp.a(alt_tick.o)
                0x000000000000b774                alt_alarm_stop
                0x000000000000b818                alt_tick
 .text          0x000000000000b920       0x24 c:/GitHub/FAccel-CNN/hardware/intel_fpga/development_kits/terasic_de0_nano/quartus_projects/inference_test/20.1/software/bringup_test_bsp/\libhal_bsp.a(altera_nios2_gen2_irq.o)
                0x000000000000b920                altera_nios2_gen2_irq_init
 .text          0x000000000000b944        0x0 c:/GitHub/FAccel-CNN/hardware/intel_fpga/development_kits/terasic_de0_nano/quartus_projects/inference_test/20.1/software/bringup_test_bsp/\libhal_bsp.a(alt_exception_entry.o)
 .text          0x000000000000b944       0x90 c:/GitHub/FAccel-CNN/hardware/intel_fpga/development_kits/terasic_de0_nano/quartus_projects/inference_test/20.1/software/bringup_test_bsp/\libhal_bsp.a(alt_find_dev.o)
                0x000000000000b944                alt_find_dev
 .text          0x000000000000b9d4      0x108 c:/GitHub/FAccel-CNN/hardware/intel_fpga/development_kits/terasic_de0_nano/quartus_projects/inference_test/20.1/software/bringup_test_bsp/\libhal_bsp.a(alt_find_file.o)
                0x000000000000b9d4                alt_find_file
 .text          0x000000000000badc       0xb8 c:/GitHub/FAccel-CNN/hardware/intel_fpga/development_kits/terasic_de0_nano/quartus_projects/inference_test/20.1/software/bringup_test_bsp/\libhal_bsp.a(alt_get_fd.o)
                0x000000000000badc                alt_get_fd
 .text          0x000000000000bb94       0x98 c:/GitHub/FAccel-CNN/hardware/intel_fpga/development_kits/terasic_de0_nano/quartus_projects/inference_test/20.1/software/bringup_test_bsp/\libhal_bsp.a(alt_instruction_exception_entry.o)
                0x000000000000bb94                alt_exception_cause_generated_bad_addr
 .text          0x000000000000bc2c        0x0 c:/intelfpga_lite/20.1/nios2eds/bin/gnu/h-x86_64-mingw32/bin/../lib/gcc/nios2-elf/10.1.1/../../../../../H-x86_64-mingw32/nios2-elf/lib/mno-hw-mul\libc.a(lib_a-atexit.o)
 .text.atexit   0x000000000000bc2c       0x14 c:/intelfpga_lite/20.1/nios2eds/bin/gnu/h-x86_64-mingw32/bin/../lib/gcc/nios2-elf/10.1.1/../../../../../H-x86_64-mingw32/nios2-elf/lib/mno-hw-mul\libc.a(lib_a-atexit.o)
                0x000000000000bc2c                atexit
 .text          0x000000000000bc40        0x0 c:/intelfpga_lite/20.1/nios2eds/bin/gnu/h-x86_64-mingw32/bin/../lib/gcc/nios2-elf/10.1.1/../../../../../H-x86_64-mingw32/nios2-elf/lib/mno-hw-mul\libc.a(lib_a-exit.o)
 .text.exit     0x000000000000bc40       0x34 c:/intelfpga_lite/20.1/nios2eds/bin/gnu/h-x86_64-mingw32/bin/../lib/gcc/nios2-elf/10.1.1/../../../../../H-x86_64-mingw32/nios2-elf/lib/mno-hw-mul\libc.a(lib_a-exit.o)
                0x000000000000bc40                exit
 .text          0x000000000000bc74        0x0 c:/intelfpga_lite/20.1/nios2eds/bin/gnu/h-x86_64-mingw32/bin/../lib/gcc/nios2-elf/10.1.1/../../../../../H-x86_64-mingw32/nios2-elf/lib/mno-hw-mul\libc.a(lib_a-int_errno.o)
 .text          0x000000000000bc74        0x0 c:/intelfpga_lite/20.1/nios2eds/bin/gnu/h-x86_64-mingw32/bin/../lib/gcc/nios2-elf/10.1.1/../../../../../H-x86_64-mingw32/nios2-elf/lib/mno-hw-mul\libc.a(lib_a-memcmp.o)
 .text.memcmp   0x000000000000bc74       0x78 c:/intelfpga_lite/20.1/nios2eds/bin/gnu/h-x86_64-mingw32/bin/../lib/gcc/nios2-elf/10.1.1/../../../../../H-x86_64-mingw32/nios2-elf/lib/mno-hw-mul\libc.a(lib_a-memcmp.o)
                0x000000000000bc74                memcmp
 .text          0x000000000000bcec        0x0 c:/intelfpga_lite/20.1/nios2eds/bin/gnu/h-x86_64-mingw32/bin/../lib/gcc/nios2-elf/10.1.1/../../../../../H-x86_64-mingw32/nios2-elf/lib/mno-hw-mul\libc.a(lib_a-putchar.o)
 .text._putchar_r
                0x000000000000bcec        0x8 c:/intelfpga_lite/20.1/nios2eds/bin/gnu/h-x86_64-mingw32/bin/../lib/gcc/nios2-elf/10.1.1/../../../../../H-x86_64-mingw32/nios2-elf/lib/mno-hw-mul\libc.a(lib_a-putchar.o)
                0x000000000000bcec                _putchar_r
 .text.putchar  0x000000000000bcf4       0x18 c:/intelfpga_lite/20.1/nios2eds/bin/gnu/h-x86_64-mingw32/bin/../lib/gcc/nios2-elf/10.1.1/../../../../../H-x86_64-mingw32/nios2-elf/lib/mno-hw-mul\libc.a(lib_a-putchar.o)
                0x000000000000bcf4                putchar
 .text          0x000000000000bd0c        0x0 c:/intelfpga_lite/20.1/nios2eds/bin/gnu/h-x86_64-mingw32/bin/../lib/gcc/nios2-elf/10.1.1/../../../../../H-x86_64-mingw32/nios2-elf/lib/mno-hw-mul\libc.a(lib_a-strlen.o)
 .text.strlen   0x000000000000bd0c       0x98 c:/intelfpga_lite/20.1/nios2eds/bin/gnu/h-x86_64-mingw32/bin/../lib/gcc/nios2-elf/10.1.1/../../../../../H-x86_64-mingw32/nios2-elf/lib/mno-hw-mul\libc.a(lib_a-strlen.o)
                0x000000000000bd0c                strlen
 .text          0x000000000000bda4        0x0 c:/intelfpga_lite/20.1/nios2eds/bin/gnu/h-x86_64-mingw32/bin/../lib/gcc/nios2-elf/10.1.1/../../../../../H-x86_64-mingw32/nios2-elf/lib/mno-hw-mul\libc.a(lib_a-__atexit.o)
 .text.__register_exitproc
                0x000000000000bda4       0x90 c:/intelfpga_lite/20.1/nios2eds/bin/gnu/h-x86_64-mingw32/bin/../lib/gcc/nios2-elf/10.1.1/../../../../../H-x86_64-mingw32/nios2-elf/lib/mno-hw-mul\libc.a(lib_a-__atexit.o)
                0x000000000000bda4                __register_exitproc
 .text          0x000000000000be34        0x0 c:/intelfpga_lite/20.1/nios2eds/bin/gnu/h-x86_64-mingw32/bin/../lib/gcc/nios2-elf/10.1.1/../../../../../H-x86_64-mingw32/nios2-elf/lib/mno-hw-mul\libc.a(lib_a-__call_atexit.o)
 .text.__call_exitprocs
                0x000000000000be34      0x120 c:/intelfpga_lite/20.1/nios2eds/bin/gnu/h-x86_64-mingw32/bin/../lib/gcc/nios2-elf/10.1.1/../../../../../H-x86_64-mingw32/nios2-elf/lib/mno-hw-mul\libc.a(lib_a-__call_atexit.o)
                0x000000000000be34                __call_exitprocs
 .text          0x000000000000bf54        0x0 c:/intelfpga_lite/20.1/nios2eds/bin/gnu/h-x86_64-mingw32/bin/../lib/gcc/nios2-elf/10.1.1/../../../../../H-x86_64-mingw32/nios2-elf/lib/mno-hw-mul\libc.a(lib_a-putc.o)
 .text._putc_r  0x000000000000bf54       0xcc c:/intelfpga_lite/20.1/nios2eds/bin/gnu/h-x86_64-mingw32/bin/../lib/gcc/nios2-elf/10.1.1/../../../../../H-x86_64-mingw32/nios2-elf/lib/mno-hw-mul\libc.a(lib_a-putc.o)
                0x000000000000bf54                _putc_r
 .text.putc     0x000000000000c020       0xe0 c:/intelfpga_lite/20.1/nios2eds/bin/gnu/h-x86_64-mingw32/bin/../lib/gcc/nios2-elf/10.1.1/../../../../../H-x86_64-mingw32/nios2-elf/lib/mno-hw-mul\libc.a(lib_a-putc.o)
                0x000000000000c020                putc
 .text          0x000000000000c100        0x0 c:/intelfpga_lite/20.1/nios2eds/bin/gnu/h-x86_64-mingw32/bin/../lib/gcc/nios2-elf/10.1.1/../../../../../H-x86_64-mingw32/nios2-elf/lib/mno-hw-mul\libc.a(lib_a-wbuf.o)
 .text.__swbuf_r
                0x000000000000c100      0x148 c:/intelfpga_lite/20.1/nios2eds/bin/gnu/h-x86_64-mingw32/bin/../lib/gcc/nios2-elf/10.1.1/../../../../../H-x86_64-mingw32/nios2-elf/lib/mno-hw-mul\libc.a(lib_a-wbuf.o)
                0x000000000000c100                __swbuf_r
 .text.__swbuf  0x000000000000c248       0x18 c:/intelfpga_lite/20.1/nios2eds/bin/gnu/h-x86_64-mingw32/bin/../lib/gcc/nios2-elf/10.1.1/../../../../../H-x86_64-mingw32/nios2-elf/lib/mno-hw-mul\libc.a(lib_a-wbuf.o)
                0x000000000000c248                __swbuf
 .text          0x000000000000c260        0x0 c:/intelfpga_lite/20.1/nios2eds/bin/gnu/h-x86_64-mingw32/bin/../lib/gcc/nios2-elf/10.1.1/../../../../../H-x86_64-mingw32/nios2-elf/lib/mno-hw-mul\libc.a(lib_a-wsetup.o)
 .text.__swsetup_r
                0x000000000000c260      0x164 c:/intelfpga_lite/20.1/nios2eds/bin/gnu/h-x86_64-mingw32/bin/../lib/gcc/nios2-elf/10.1.1/../../../../../H-x86_64-mingw32/nios2-elf/lib/mno-hw-mul\libc.a(lib_a-wsetup.o)
                0x000000000000c260                __swsetup_r
 .text          0x000000000000c3c4        0x0 c:/intelfpga_lite/20.1/nios2eds/bin/gnu/h-x86_64-mingw32/bin/../lib/gcc/nios2-elf/10.1.1/../../../../../H-x86_64-mingw32/nios2-elf/lib/mno-hw-mul\libc.a(lib_a-fflush.o)
 .text.__sflush_r
                0x000000000000c3c4      0x228 c:/intelfpga_lite/20.1/nios2eds/bin/gnu/h-x86_64-mingw32/bin/../lib/gcc/nios2-elf/10.1.1/../../../../../H-x86_64-mingw32/nios2-elf/lib/mno-hw-mul\libc.a(lib_a-fflush.o)
                0x000000000000c3c4                __sflush_r
 .text._fflush_r
                0x000000000000c5ec       0x60 c:/intelfpga_lite/20.1/nios2eds/bin/gnu/h-x86_64-mingw32/bin/../lib/gcc/nios2-elf/10.1.1/../../../../../H-x86_64-mingw32/nios2-elf/lib/mno-hw-mul\libc.a(lib_a-fflush.o)
                0x000000000000c5ec                _fflush_r
 .text.fflush   0x000000000000c64c       0x84 c:/intelfpga_lite/20.1/nios2eds/bin/gnu/h-x86_64-mingw32/bin/../lib/gcc/nios2-elf/10.1.1/../../../../../H-x86_64-mingw32/nios2-elf/lib/mno-hw-mul\libc.a(lib_a-fflush.o)
                0x000000000000c64c                fflush
 .text          0x000000000000c6d0        0x0 c:/intelfpga_lite/20.1/nios2eds/bin/gnu/h-x86_64-mingw32/bin/../lib/gcc/nios2-elf/10.1.1/../../../../../H-x86_64-mingw32/nios2-elf/lib/mno-hw-mul\libc.a(lib_a-findfp.o)
 .text.__fp_lock
                0x000000000000c6d0        0x8 c:/intelfpga_lite/20.1/nios2eds/bin/gnu/h-x86_64-mingw32/bin/../lib/gcc/nios2-elf/10.1.1/../../../../../H-x86_64-mingw32/nios2-elf/lib/mno-hw-mul\libc.a(lib_a-findfp.o)
 .text._cleanup_r
                0x000000000000c6d8        0xc c:/intelfpga_lite/20.1/nios2eds/bin/gnu/h-x86_64-mingw32/bin/../lib/gcc/nios2-elf/10.1.1/../../../../../H-x86_64-mingw32/nios2-elf/lib/mno-hw-mul\libc.a(lib_a-findfp.o)
                0x000000000000c6d8                _cleanup_r
 .text.__fp_unlock
                0x000000000000c6e4        0x8 c:/intelfpga_lite/20.1/nios2eds/bin/gnu/h-x86_64-mingw32/bin/../lib/gcc/nios2-elf/10.1.1/../../../../../H-x86_64-mingw32/nios2-elf/lib/mno-hw-mul\libc.a(lib_a-findfp.o)
 .text.__sinit.part.0
                0x000000000000c6ec      0x168 c:/intelfpga_lite/20.1/nios2eds/bin/gnu/h-x86_64-mingw32/bin/../lib/gcc/nios2-elf/10.1.1/../../../../../H-x86_64-mingw32/nios2-elf/lib/mno-hw-mul\libc.a(lib_a-findfp.o)
 .text.__sfmoreglue
                0x000000000000c854       0x78 c:/intelfpga_lite/20.1/nios2eds/bin/gnu/h-x86_64-mingw32/bin/../lib/gcc/nios2-elf/10.1.1/../../../../../H-x86_64-mingw32/nios2-elf/lib/mno-hw-mul\libc.a(lib_a-findfp.o)
                0x000000000000c854                __sfmoreglue
 .text.__sfp    0x000000000000c8cc      0x154 c:/intelfpga_lite/20.1/nios2eds/bin/gnu/h-x86_64-mingw32/bin/../lib/gcc/nios2-elf/10.1.1/../../../../../H-x86_64-mingw32/nios2-elf/lib/mno-hw-mul\libc.a(lib_a-findfp.o)
                0x000000000000c8cc                __sfp
 .text._cleanup
                0x000000000000ca20       0x14 c:/intelfpga_lite/20.1/nios2eds/bin/gnu/h-x86_64-mingw32/bin/../lib/gcc/nios2-elf/10.1.1/../../../../../H-x86_64-mingw32/nios2-elf/lib/mno-hw-mul\libc.a(lib_a-findfp.o)
                0x000000000000ca20                _cleanup
 .text.__sinit  0x000000000000ca34       0x10 c:/intelfpga_lite/20.1/nios2eds/bin/gnu/h-x86_64-mingw32/bin/../lib/gcc/nios2-elf/10.1.1/../../../../../H-x86_64-mingw32/nios2-elf/lib/mno-hw-mul\libc.a(lib_a-findfp.o)
                0x000000000000ca34                __sinit
 .text.__sfp_lock_acquire
                0x000000000000ca44        0x4 c:/intelfpga_lite/20.1/nios2eds/bin/gnu/h-x86_64-mingw32/bin/../lib/gcc/nios2-elf/10.1.1/../../../../../H-x86_64-mingw32/nios2-elf/lib/mno-hw-mul\libc.a(lib_a-findfp.o)
                0x000000000000ca44                __sfp_lock_acquire
 .text.__sfp_lock_release
                0x000000000000ca48        0x4 c:/intelfpga_lite/20.1/nios2eds/bin/gnu/h-x86_64-mingw32/bin/../lib/gcc/nios2-elf/10.1.1/../../../../../H-x86_64-mingw32/nios2-elf/lib/mno-hw-mul\libc.a(lib_a-findfp.o)
                0x000000000000ca48                __sfp_lock_release
 .text.__sinit_lock_acquire
                0x000000000000ca4c        0x4 c:/intelfpga_lite/20.1/nios2eds/bin/gnu/h-x86_64-mingw32/bin/../lib/gcc/nios2-elf/10.1.1/../../../../../H-x86_64-mingw32/nios2-elf/lib/mno-hw-mul\libc.a(lib_a-findfp.o)
                0x000000000000ca4c                __sinit_lock_acquire
 .text.__sinit_lock_release
                0x000000000000ca50        0x4 c:/intelfpga_lite/20.1/nios2eds/bin/gnu/h-x86_64-mingw32/bin/../lib/gcc/nios2-elf/10.1.1/../../../../../H-x86_64-mingw32/nios2-elf/lib/mno-hw-mul\libc.a(lib_a-findfp.o)
                0x000000000000ca50                __sinit_lock_release
 .text.__fp_lock_all
                0x000000000000ca54       0x14 c:/intelfpga_lite/20.1/nios2eds/bin/gnu/h-x86_64-mingw32/bin/../lib/gcc/nios2-elf/10.1.1/../../../../../H-x86_64-mingw32/nios2-elf/lib/mno-hw-mul\libc.a(lib_a-findfp.o)
                0x000000000000ca54                __fp_lock_all
 .text.__fp_unlock_all
                0x000000000000ca68       0x14 c:/intelfpga_lite/20.1/nios2eds/bin/gnu/h-x86_64-mingw32/bin/../lib/gcc/nios2-elf/10.1.1/../../../../../H-x86_64-mingw32/nios2-elf/lib/mno-hw-mul\libc.a(lib_a-findfp.o)
                0x000000000000ca68                __fp_unlock_all
 .text          0x000000000000ca7c        0x0 c:/intelfpga_lite/20.1/nios2eds/bin/gnu/h-x86_64-mingw32/bin/../lib/gcc/nios2-elf/10.1.1/../../../../../H-x86_64-mingw32/nios2-elf/lib/mno-hw-mul\libc.a(lib_a-freer.o)
 .text._malloc_trim_r
                0x000000000000ca7c      0x11c c:/intelfpga_lite/20.1/nios2eds/bin/gnu/h-x86_64-mingw32/bin/../lib/gcc/nios2-elf/10.1.1/../../../../../H-x86_64-mingw32/nios2-elf/lib/mno-hw-mul\libc.a(lib_a-freer.o)
                0x000000000000ca7c                _malloc_trim_r
 .text._free_r  0x000000000000cb98      0x2fc c:/intelfpga_lite/20.1/nios2eds/bin/gnu/h-x86_64-mingw32/bin/../lib/gcc/nios2-elf/10.1.1/../../../../../H-x86_64-mingw32/nios2-elf/lib/mno-hw-mul\libc.a(lib_a-freer.o)
                0x000000000000cb98                _free_r
 .text          0x000000000000ce94        0x0 c:/intelfpga_lite/20.1/nios2eds/bin/gnu/h-x86_64-mingw32/bin/../lib/gcc/nios2-elf/10.1.1/../../../../../H-x86_64-mingw32/nios2-elf/lib/mno-hw-mul\libc.a(lib_a-fwalk.o)
 .text._fwalk   0x000000000000ce94       0x98 c:/intelfpga_lite/20.1/nios2eds/bin/gnu/h-x86_64-mingw32/bin/../lib/gcc/nios2-elf/10.1.1/../../../../../H-x86_64-mingw32/nios2-elf/lib/mno-hw-mul\libc.a(lib_a-fwalk.o)
                0x000000000000ce94                _fwalk
 .text._fwalk_reent
                0x000000000000cf2c       0xa8 c:/intelfpga_lite/20.1/nios2eds/bin/gnu/h-x86_64-mingw32/bin/../lib/gcc/nios2-elf/10.1.1/../../../../../H-x86_64-mingw32/nios2-elf/lib/mno-hw-mul\libc.a(lib_a-fwalk.o)
                0x000000000000cf2c                _fwalk_reent
 .text          0x000000000000cfd4        0x0 c:/intelfpga_lite/20.1/nios2eds/bin/gnu/h-x86_64-mingw32/bin/../lib/gcc/nios2-elf/10.1.1/../../../../../H-x86_64-mingw32/nios2-elf/lib/mno-hw-mul\libc.a(lib_a-makebuf.o)
 .text.__smakebuf_r
                0x000000000000cfd4      0x1b0 c:/intelfpga_lite/20.1/nios2eds/bin/gnu/h-x86_64-mingw32/bin/../lib/gcc/nios2-elf/10.1.1/../../../../../H-x86_64-mingw32/nios2-elf/lib/mno-hw-mul\libc.a(lib_a-makebuf.o)
                0x000000000000cfd4                __smakebuf_r
 .text.__swhatbuf_r
                0x000000000000d184       0x98 c:/intelfpga_lite/20.1/nios2eds/bin/gnu/h-x86_64-mingw32/bin/../lib/gcc/nios2-elf/10.1.1/../../../../../H-x86_64-mingw32/nios2-elf/lib/mno-hw-mul\libc.a(lib_a-makebuf.o)
                0x000000000000d184                __swhatbuf_r
 .text          0x000000000000d21c        0x0 c:/intelfpga_lite/20.1/nios2eds/bin/gnu/h-x86_64-mingw32/bin/../lib/gcc/nios2-elf/10.1.1/../../../../../H-x86_64-mingw32/nios2-elf/lib/mno-hw-mul\libc.a(lib_a-mallocr.o)
 .text._malloc_r
                0x000000000000d21c      0x7e0 c:/intelfpga_lite/20.1/nios2eds/bin/gnu/h-x86_64-mingw32/bin/../lib/gcc/nios2-elf/10.1.1/../../../../../H-x86_64-mingw32/nios2-elf/lib/mno-hw-mul\libc.a(lib_a-mallocr.o)
                0x000000000000d21c                _malloc_r
 .text          0x000000000000d9fc        0x0 c:/intelfpga_lite/20.1/nios2eds/bin/gnu/h-x86_64-mingw32/bin/../lib/gcc/nios2-elf/10.1.1/../../../../../H-x86_64-mingw32/nios2-elf/lib/mno-hw-mul\libc.a(lib_a-memset.o)
 .text.memset   0x000000000000d9fc       0xf0 c:/intelfpga_lite/20.1/nios2eds/bin/gnu/h-x86_64-mingw32/bin/../lib/gcc/nios2-elf/10.1.1/../../../../../H-x86_64-mingw32/nios2-elf/lib/mno-hw-mul\libc.a(lib_a-memset.o)
                0x000000000000d9fc                memset
 .text          0x000000000000daec        0x0 c:/intelfpga_lite/20.1/nios2eds/bin/gnu/h-x86_64-mingw32/bin/../lib/gcc/nios2-elf/10.1.1/../../../../../H-x86_64-mingw32/nios2-elf/lib/mno-hw-mul\libc.a(lib_a-sbrkr.o)
 .text._sbrk_r  0x000000000000daec       0x58 c:/intelfpga_lite/20.1/nios2eds/bin/gnu/h-x86_64-mingw32/bin/../lib/gcc/nios2-elf/10.1.1/../../../../../H-x86_64-mingw32/nios2-elf/lib/mno-hw-mul\libc.a(lib_a-sbrkr.o)
                0x000000000000daec                _sbrk_r
 .text          0x000000000000db44        0x0 c:/intelfpga_lite/20.1/nios2eds/bin/gnu/h-x86_64-mingw32/bin/../lib/gcc/nios2-elf/10.1.1/../../../../../H-x86_64-mingw32/nios2-elf/lib/mno-hw-mul\libc.a(lib_a-stdio.o)
 .text.__sread  0x000000000000db44       0x54 c:/intelfpga_lite/20.1/nios2eds/bin/gnu/h-x86_64-mingw32/bin/../lib/gcc/nios2-elf/10.1.1/../../../../../H-x86_64-mingw32/nios2-elf/lib/mno-hw-mul\libc.a(lib_a-stdio.o)
                0x000000000000db44                __sread
 .text.__seofread
                0x000000000000db98        0x8 c:/intelfpga_lite/20.1/nios2eds/bin/gnu/h-x86_64-mingw32/bin/../lib/gcc/nios2-elf/10.1.1/../../../../../H-x86_64-mingw32/nios2-elf/lib/mno-hw-mul\libc.a(lib_a-stdio.o)
                0x000000000000db98                __seofread
 .text.__swrite
                0x000000000000dba0       0x80 c:/intelfpga_lite/20.1/nios2eds/bin/gnu/h-x86_64-mingw32/bin/../lib/gcc/nios2-elf/10.1.1/../../../../../H-x86_64-mingw32/nios2-elf/lib/mno-hw-mul\libc.a(lib_a-stdio.o)
                0x000000000000dba0                __swrite
 .text.__sseek  0x000000000000dc20       0x5c c:/intelfpga_lite/20.1/nios2eds/bin/gnu/h-x86_64-mingw32/bin/../lib/gcc/nios2-elf/10.1.1/../../../../../H-x86_64-mingw32/nios2-elf/lib/mno-hw-mul\libc.a(lib_a-stdio.o)
                0x000000000000dc20                __sseek
 .text.__sclose
                0x000000000000dc7c        0x8 c:/intelfpga_lite/20.1/nios2eds/bin/gnu/h-x86_64-mingw32/bin/../lib/gcc/nios2-elf/10.1.1/../../../../../H-x86_64-mingw32/nios2-elf/lib/mno-hw-mul\libc.a(lib_a-stdio.o)
                0x000000000000dc7c                __sclose
 .text          0x000000000000dc84        0x0 c:/intelfpga_lite/20.1/nios2eds/bin/gnu/h-x86_64-mingw32/bin/../lib/gcc/nios2-elf/10.1.1/../../../../../H-x86_64-mingw32/nios2-elf/lib/mno-hw-mul\libc.a(lib_a-writer.o)
 .text._write_r
                0x000000000000dc84       0x64 c:/intelfpga_lite/20.1/nios2eds/bin/gnu/h-x86_64-mingw32/bin/../lib/gcc/nios2-elf/10.1.1/../../../../../H-x86_64-mingw32/nios2-elf/lib/mno-hw-mul\libc.a(lib_a-writer.o)
                0x000000000000dc84                _write_r
 .text          0x000000000000dce8        0x0 c:/intelfpga_lite/20.1/nios2eds/bin/gnu/h-x86_64-mingw32/bin/../lib/gcc/nios2-elf/10.1.1/../../../../../H-x86_64-mingw32/nios2-elf/lib/mno-hw-mul\libc.a(closer.o)
 .text._close_r
                0x000000000000dce8       0x58 c:/intelfpga_lite/20.1/nios2eds/bin/gnu/h-x86_64-mingw32/bin/../lib/gcc/nios2-elf/10.1.1/../../../../../H-x86_64-mingw32/nios2-elf/lib/mno-hw-mul\libc.a(closer.o)
                0x000000000000dce8                _close_r
 .text          0x000000000000dd40        0x0 c:/intelfpga_lite/20.1/nios2eds/bin/gnu/h-x86_64-mingw32/bin/../lib/gcc/nios2-elf/10.1.1/../../../../../H-x86_64-mingw32/nios2-elf/lib/mno-hw-mul\libc.a(lib_a-fclose.o)
 .text._fclose_r.part.0
                0x000000000000dd40       0xc0 c:/intelfpga_lite/20.1/nios2eds/bin/gnu/h-x86_64-mingw32/bin/../lib/gcc/nios2-elf/10.1.1/../../../../../H-x86_64-mingw32/nios2-elf/lib/mno-hw-mul\libc.a(lib_a-fclose.o)
 .text._fclose_r
                0x000000000000de00       0x70 c:/intelfpga_lite/20.1/nios2eds/bin/gnu/h-x86_64-mingw32/bin/../lib/gcc/nios2-elf/10.1.1/../../../../../H-x86_64-mingw32/nios2-elf/lib/mno-hw-mul\libc.a(lib_a-fclose.o)
                0x000000000000de00                _fclose_r
 .text.fclose   0x000000000000de70       0x70 c:/intelfpga_lite/20.1/nios2eds/bin/gnu/h-x86_64-mingw32/bin/../lib/gcc/nios2-elf/10.1.1/../../../../../H-x86_64-mingw32/nios2-elf/lib/mno-hw-mul\libc.a(lib_a-fclose.o)
                0x000000000000de70                fclose
 .text          0x000000000000dee0        0x0 c:/intelfpga_lite/20.1/nios2eds/bin/gnu/h-x86_64-mingw32/bin/../lib/gcc/nios2-elf/10.1.1/../../../../../H-x86_64-mingw32/nios2-elf/lib/mno-hw-mul\libc.a(lib_a-fstatr.o)
 .text._fstat_r
                0x000000000000dee0       0x60 c:/intelfpga_lite/20.1/nios2eds/bin/gnu/h-x86_64-mingw32/bin/../lib/gcc/nios2-elf/10.1.1/../../../../../H-x86_64-mingw32/nios2-elf/lib/mno-hw-mul\libc.a(lib_a-fstatr.o)
                0x000000000000dee0                _fstat_r
 .text          0x000000000000df40        0x0 c:/intelfpga_lite/20.1/nios2eds/bin/gnu/h-x86_64-mingw32/bin/../lib/gcc/nios2-elf/10.1.1/../../../../../H-x86_64-mingw32/nios2-elf/lib/mno-hw-mul\libc.a(lib_a-isattyr.o)
 .text._isatty_r
                0x000000000000df40       0x58 c:/intelfpga_lite/20.1/nios2eds/bin/gnu/h-x86_64-mingw32/bin/../lib/gcc/nios2-elf/10.1.1/../../../../../H-x86_64-mingw32/nios2-elf/lib/mno-hw-mul\libc.a(lib_a-isattyr.o)
                0x000000000000df40                _isatty_r
 .text          0x000000000000df98        0x0 c:/intelfpga_lite/20.1/nios2eds/bin/gnu/h-x86_64-mingw32/bin/../lib/gcc/nios2-elf/10.1.1/../../../../../H-x86_64-mingw32/nios2-elf/lib/mno-hw-mul\libc.a(lib_a-lseekr.o)
 .text._lseek_r
                0x000000000000df98       0x64 c:/intelfpga_lite/20.1/nios2eds/bin/gnu/h-x86_64-mingw32/bin/../lib/gcc/nios2-elf/10.1.1/../../../../../H-x86_64-mingw32/nios2-elf/lib/mno-hw-mul\libc.a(lib_a-lseekr.o)
                0x000000000000df98                _lseek_r
 .text          0x000000000000dffc        0x0 c:/intelfpga_lite/20.1/nios2eds/bin/gnu/h-x86_64-mingw32/bin/../lib/gcc/nios2-elf/10.1.1/../../../../../H-x86_64-mingw32/nios2-elf/lib/mno-hw-mul\libc.a(lib_a-readr.o)
 .text._read_r  0x000000000000dffc       0x64 c:/intelfpga_lite/20.1/nios2eds/bin/gnu/h-x86_64-mingw32/bin/../lib/gcc/nios2-elf/10.1.1/../../../../../H-x86_64-mingw32/nios2-elf/lib/mno-hw-mul\libc.a(lib_a-readr.o)
                0x000000000000dffc                _read_r
 .text          0x000000000000e060       0x38 c:/GitHub/FAccel-CNN/hardware/intel_fpga/development_kits/terasic_de0_nano/quartus_projects/inference_test/20.1/software/bringup_test_bsp/\libhal_bsp.a(alt_exit.o)
                0x000000000000e060                _exit
 .text          0x000000000000e098       0xf8 c:/GitHub/FAccel-CNN/hardware/intel_fpga/development_kits/terasic_de0_nano/quartus_projects/inference_test/20.1/software/bringup_test_bsp/\libhal_bsp.a(alt_fstat.o)
                0x000000000000e0d4                fstat
 .text          0x000000000000e190       0xec c:/GitHub/FAccel-CNN/hardware/intel_fpga/development_kits/terasic_de0_nano/quartus_projects/inference_test/20.1/software/bringup_test_bsp/\libhal_bsp.a(alt_isatty.o)
                0x000000000000e1cc                isatty
 .text          0x000000000000e27c      0x11c c:/GitHub/FAccel-CNN/hardware/intel_fpga/development_kits/terasic_de0_nano/quartus_projects/inference_test/20.1/software/bringup_test_bsp/\libhal_bsp.a(alt_lseek.o)
                0x000000000000e2b8                lseek
 .text          0x000000000000e398       0x48 c:/GitHub/FAccel-CNN/hardware/intel_fpga/development_kits/terasic_de0_nano/quartus_projects/inference_test/20.1/software/bringup_test_bsp/\libhal_bsp.a(alt_malloc_lock.o)
                0x000000000000e398                __malloc_lock
                0x000000000000e3bc                __malloc_unlock
 .text          0x000000000000e3e0      0x144 c:/GitHub/FAccel-CNN/hardware/intel_fpga/development_kits/terasic_de0_nano/quartus_projects/inference_test/20.1/software/bringup_test_bsp/\libhal_bsp.a(alt_read.o)
                0x000000000000e41c                read
 .text          0x000000000000e524       0xb8 c:/GitHub/FAccel-CNN/hardware/intel_fpga/development_kits/terasic_de0_nano/quartus_projects/inference_test/20.1/software/bringup_test_bsp/\libhal_bsp.a(alt_sbrk.o)
                0x000000000000e524                sbrk
 .text          0x000000000000e5dc      0x140 c:/GitHub/FAccel-CNN/hardware/intel_fpga/development_kits/terasic_de0_nano/quartus_projects/inference_test/20.1/software/bringup_test_bsp/\libhal_bsp.a(alt_write.o)
                0x000000000000e618                write
 *(.gnu.warning.*)
 *(.fini)
                [!provide]                        PROVIDE (__etext = ABSOLUTE (.))
                [!provide]                        PROVIDE (_etext = ABSOLUTE (.))
                [!provide]                        PROVIDE (etext = ABSOLUTE (.))
 *(.eh_frame_hdr)
                0x000000000000e71c                . = ALIGN (0x4)
                [!provide]                        PROVIDE (__preinit_array_start = ABSOLUTE (.))
 *(.preinit_array)
                [!provide]                        PROVIDE (__preinit_array_end = ABSOLUTE (.))
                [!provide]                        PROVIDE (__init_array_start = ABSOLUTE (.))
 *(.init_array)
                [!provide]                        PROVIDE (__init_array_end = ABSOLUTE (.))
                [!provide]                        PROVIDE (__fini_array_start = ABSOLUTE (.))
 *(.fini_array)
                [!provide]                        PROVIDE (__fini_array_end = ABSOLUTE (.))
 *(.eh_frame)
 *(.gcc_except_table .gcc_except_table.*)
 *(.dynamic)
                0x000000000000e71c                PROVIDE (__CTOR_LIST__ = ABSOLUTE (.))
 *(.ctors)
 *(SORT_BY_NAME(.ctors.*))
                0x000000000000e71c                PROVIDE (__CTOR_END__ = ABSOLUTE (.))
                0x000000000000e71c                PROVIDE (__DTOR_LIST__ = ABSOLUTE (.))
 *(.dtors)
 *(SORT_BY_NAME(.dtors.*))
                0x000000000000e71c                PROVIDE (__DTOR_END__ = ABSOLUTE (.))
 *(.jcr)
                0x000000000000e71c                . = ALIGN (0x4)

.rodata         0x000000000000e71c      0x1fc
                0x000000000000e71c                PROVIDE (__ram_rodata_start = ABSOLUTE (.))
                0x000000000000e71c                . = ALIGN (0x4)
 *(.rodata .rodata.* .gnu.linkonce.r.*)
 .rodata        0x000000000000e71c       0x68 obj/default/bringup_test.o
 .rodata        0x000000000000e784       0x68 obj/default/printf.o
 .rodata        0x000000000000e7ec      0x100 c:/intelfpga_lite/20.1/nios2eds/bin/gnu/h-x86_64-mingw32/bin/../lib/gcc/nios2-elf/10.1.1/mno-hw-mul\libgcc.a(_clz.o)
                0x000000000000e7ec                __clz_tab
 .rodata        0x000000000000e8ec        0xf c:/GitHub/FAccel-CNN/hardware/intel_fpga/development_kits/terasic_de0_nano/quartus_projects/inference_test/20.1/software/bringup_test_bsp/\libhal_bsp.a(alt_main.o)
 *fill*         0x000000000000e8fb        0x1 
 .rodata        0x000000000000e8fc        0xf c:/GitHub/FAccel-CNN/hardware/intel_fpga/development_kits/terasic_de0_nano/quartus_projects/inference_test/20.1/software/bringup_test_bsp/\libhal_bsp.a(alt_sys_init.o)
 *fill*         0x000000000000e90b        0x1 
 .rodata        0x000000000000e90c        0xa c:/GitHub/FAccel-CNN/hardware/intel_fpga/development_kits/terasic_de0_nano/quartus_projects/inference_test/20.1/software/bringup_test_bsp/\libhal_bsp.a(alt_dev.o)
 *(.rodata1)
                0x000000000000e918                . = ALIGN (0x4)
 *fill*         0x000000000000e916        0x2 
                0x000000000000e918                PROVIDE (__ram_rodata_end = ABSOLUTE (.))
                0x000000000000e71c                PROVIDE (__flash_rodata_start = LOADADDR (.rodata))

.rwdata         0x000000000000e918     0x3a88 load address 0x00000000000123a0
                0x000000000000e918                PROVIDE (__ram_rwdata_start = ABSOLUTE (.))
                0x000000000000e918                . = ALIGN (0x4)
 *(.got.plt)
 *(.got)
 *(.data1)
 *(.data .data.* .gnu.linkonce.d.*)
 .data          0x000000000000e918        0x0 c:/GitHub/FAccel-CNN/hardware/intel_fpga/development_kits/terasic_de0_nano/quartus_projects/inference_test/20.1/software/bringup_test_bsp//obj/HAL/src/crt0.o
 .data          0x000000000000e918     0x2000 obj/default/bringup_test.o
                0x000000000000e918                image64by64
 .data          0x0000000000010918        0x0 obj/default/printf.o
 .data          0x0000000000010918        0x0 c:/intelfpga_lite/20.1/nios2eds/bin/gnu/h-x86_64-mingw32/bin/../lib/gcc/nios2-elf/10.1.1/../../../../../H-x86_64-mingw32/nios2-elf/lib/mno-hw-mul\libm.a(lib_a-wf_exp.o)
 .data          0x0000000000010918        0x0 c:/intelfpga_lite/20.1/nios2eds/bin/gnu/h-x86_64-mingw32/bin/../lib/gcc/nios2-elf/10.1.1/../../../../../H-x86_64-mingw32/nios2-elf/lib/mno-hw-mul\libm.a(lib_a-wf_log.o)
 .data          0x0000000000010918        0x0 c:/intelfpga_lite/20.1/nios2eds/bin/gnu/h-x86_64-mingw32/bin/../lib/gcc/nios2-elf/10.1.1/../../../../../H-x86_64-mingw32/nios2-elf/lib/mno-hw-mul\libm.a(lib_a-ef_exp.o)
 .data          0x0000000000010918        0x0 c:/intelfpga_lite/20.1/nios2eds/bin/gnu/h-x86_64-mingw32/bin/../lib/gcc/nios2-elf/10.1.1/../../../../../H-x86_64-mingw32/nios2-elf/lib/mno-hw-mul\libm.a(lib_a-ef_log.o)
 .data          0x0000000000010918        0x0 c:/intelfpga_lite/20.1/nios2eds/bin/gnu/h-x86_64-mingw32/bin/../lib/gcc/nios2-elf/10.1.1/../../../../../H-x86_64-mingw32/nios2-elf/lib/mno-hw-mul\libm.a(lib_a-s_lib_ver.o)
 .data          0x0000000000010918        0x0 c:/intelfpga_lite/20.1/nios2eds/bin/gnu/h-x86_64-mingw32/bin/../lib/gcc/nios2-elf/10.1.1/mno-hw-mul\libgcc.a(_fixunsdfsi.o)
 .data          0x0000000000010918        0x0 c:/intelfpga_lite/20.1/nios2eds/bin/gnu/h-x86_64-mingw32/bin/../lib/gcc/nios2-elf/10.1.1/mno-hw-mul\libgcc.a(_udivdi3.o)
 .data          0x0000000000010918        0x0 c:/intelfpga_lite/20.1/nios2eds/bin/gnu/h-x86_64-mingw32/bin/../lib/gcc/nios2-elf/10.1.1/mno-hw-mul\libgcc.a(_umoddi3.o)
 .data          0x0000000000010918        0x0 c:/intelfpga_lite/20.1/nios2eds/bin/gnu/h-x86_64-mingw32/bin/../lib/gcc/nios2-elf/10.1.1/mno-hw-mul\libgcc.a(lib2-divmod.o)
 .data          0x0000000000010918        0x0 c:/intelfpga_lite/20.1/nios2eds/bin/gnu/h-x86_64-mingw32/bin/../lib/gcc/nios2-elf/10.1.1/mno-hw-mul\libgcc.a(lib2-mul.o)
 .data          0x0000000000010918        0x0 c:/intelfpga_lite/20.1/nios2eds/bin/gnu/h-x86_64-mingw32/bin/../lib/gcc/nios2-elf/10.1.1/mno-hw-mul\libgcc.a(addsf3.o)
 .data          0x0000000000010918        0x0 c:/intelfpga_lite/20.1/nios2eds/bin/gnu/h-x86_64-mingw32/bin/../lib/gcc/nios2-elf/10.1.1/mno-hw-mul\libgcc.a(divsf3.o)
 .data          0x0000000000010918        0x0 c:/intelfpga_lite/20.1/nios2eds/bin/gnu/h-x86_64-mingw32/bin/../lib/gcc/nios2-elf/10.1.1/mno-hw-mul\libgcc.a(eqsf2.o)
 .data          0x0000000000010918        0x0 c:/intelfpga_lite/20.1/nios2eds/bin/gnu/h-x86_64-mingw32/bin/../lib/gcc/nios2-elf/10.1.1/mno-hw-mul\libgcc.a(gesf2.o)
 .data          0x0000000000010918        0x0 c:/intelfpga_lite/20.1/nios2eds/bin/gnu/h-x86_64-mingw32/bin/../lib/gcc/nios2-elf/10.1.1/mno-hw-mul\libgcc.a(lesf2.o)
 .data          0x0000000000010918        0x0 c:/intelfpga_lite/20.1/nios2eds/bin/gnu/h-x86_64-mingw32/bin/../lib/gcc/nios2-elf/10.1.1/mno-hw-mul\libgcc.a(mulsf3.o)
 .data          0x0000000000010918        0x0 c:/intelfpga_lite/20.1/nios2eds/bin/gnu/h-x86_64-mingw32/bin/../lib/gcc/nios2-elf/10.1.1/mno-hw-mul\libgcc.a(subsf3.o)
 .data          0x0000000000010918        0x0 c:/intelfpga_lite/20.1/nios2eds/bin/gnu/h-x86_64-mingw32/bin/../lib/gcc/nios2-elf/10.1.1/mno-hw-mul\libgcc.a(unordsf2.o)
 .data          0x0000000000010918        0x0 c:/intelfpga_lite/20.1/nios2eds/bin/gnu/h-x86_64-mingw32/bin/../lib/gcc/nios2-elf/10.1.1/mno-hw-mul\libgcc.a(fixsfsi.o)
 .data          0x0000000000010918        0x0 c:/intelfpga_lite/20.1/nios2eds/bin/gnu/h-x86_64-mingw32/bin/../lib/gcc/nios2-elf/10.1.1/mno-hw-mul\libgcc.a(floatsisf.o)
 .data          0x0000000000010918        0x0 c:/intelfpga_lite/20.1/nios2eds/bin/gnu/h-x86_64-mingw32/bin/../lib/gcc/nios2-elf/10.1.1/mno-hw-mul\libgcc.a(floatunsisf.o)
 .data          0x0000000000010918        0x0 c:/intelfpga_lite/20.1/nios2eds/bin/gnu/h-x86_64-mingw32/bin/../lib/gcc/nios2-elf/10.1.1/mno-hw-mul\libgcc.a(adddf3.o)
 .data          0x0000000000010918        0x0 c:/intelfpga_lite/20.1/nios2eds/bin/gnu/h-x86_64-mingw32/bin/../lib/gcc/nios2-elf/10.1.1/mno-hw-mul\libgcc.a(divdf3.o)
 .data          0x0000000000010918        0x0 c:/intelfpga_lite/20.1/nios2eds/bin/gnu/h-x86_64-mingw32/bin/../lib/gcc/nios2-elf/10.1.1/mno-hw-mul\libgcc.a(eqdf2.o)
 .data          0x0000000000010918        0x0 c:/intelfpga_lite/20.1/nios2eds/bin/gnu/h-x86_64-mingw32/bin/../lib/gcc/nios2-elf/10.1.1/mno-hw-mul\libgcc.a(gedf2.o)
 .data          0x0000000000010918        0x0 c:/intelfpga_lite/20.1/nios2eds/bin/gnu/h-x86_64-mingw32/bin/../lib/gcc/nios2-elf/10.1.1/mno-hw-mul\libgcc.a(ledf2.o)
 .data          0x0000000000010918        0x0 c:/intelfpga_lite/20.1/nios2eds/bin/gnu/h-x86_64-mingw32/bin/../lib/gcc/nios2-elf/10.1.1/mno-hw-mul\libgcc.a(muldf3.o)
 .data          0x0000000000010918        0x0 c:/intelfpga_lite/20.1/nios2eds/bin/gnu/h-x86_64-mingw32/bin/../lib/gcc/nios2-elf/10.1.1/mno-hw-mul\libgcc.a(subdf3.o)
 .data          0x0000000000010918        0x0 c:/intelfpga_lite/20.1/nios2eds/bin/gnu/h-x86_64-mingw32/bin/../lib/gcc/nios2-elf/10.1.1/mno-hw-mul\libgcc.a(fixdfsi.o)
 .data          0x0000000000010918        0x0 c:/intelfpga_lite/20.1/nios2eds/bin/gnu/h-x86_64-mingw32/bin/../lib/gcc/nios2-elf/10.1.1/mno-hw-mul\libgcc.a(floatsidf.o)
 .data          0x0000000000010918        0x0 c:/intelfpga_lite/20.1/nios2eds/bin/gnu/h-x86_64-mingw32/bin/../lib/gcc/nios2-elf/10.1.1/mno-hw-mul\libgcc.a(floatunsidf.o)
 .data          0x0000000000010918        0x0 c:/intelfpga_lite/20.1/nios2eds/bin/gnu/h-x86_64-mingw32/bin/../lib/gcc/nios2-elf/10.1.1/mno-hw-mul\libgcc.a(extendsfdf2.o)
 .data          0x0000000000010918        0x0 c:/intelfpga_lite/20.1/nios2eds/bin/gnu/h-x86_64-mingw32/bin/../lib/gcc/nios2-elf/10.1.1/mno-hw-mul\libgcc.a(_clz.o)
 .data          0x0000000000010918        0x0 c:/intelfpga_lite/20.1/nios2eds/bin/gnu/h-x86_64-mingw32/bin/../lib/gcc/nios2-elf/10.1.1/mno-hw-mul\libgcc.a(_clzsi2.o)
 .data          0x0000000000010918        0x0 c:/intelfpga_lite/20.1/nios2eds/bin/gnu/h-x86_64-mingw32/bin/../lib/gcc/nios2-elf/10.1.1/../../../../../H-x86_64-mingw32/nios2-elf/lib/mno-hw-mul\libc.a(lib_a-errno.o)
 .data          0x0000000000010918        0x0 c:/intelfpga_lite/20.1/nios2eds/bin/gnu/h-x86_64-mingw32/bin/../lib/gcc/nios2-elf/10.1.1/../../../../../H-x86_64-mingw32/nios2-elf/lib/mno-hw-mul\libc.a(lib_a-impure.o)
 .data.impure_data
                0x0000000000010918      0x424 c:/intelfpga_lite/20.1/nios2eds/bin/gnu/h-x86_64-mingw32/bin/../lib/gcc/nios2-elf/10.1.1/../../../../../H-x86_64-mingw32/nios2-elf/lib/mno-hw-mul\libc.a(lib_a-impure.o)
 .data          0x0000000000010d3c        0x0 c:/intelfpga_lite/20.1/nios2eds/bin/gnu/h-x86_64-mingw32/bin/../lib/gcc/nios2-elf/10.1.1/../../../../../H-x86_64-mingw32/nios2-elf/lib/mno-hw-mul\libc.a(lib_a-memcpy.o)
 .data          0x0000000000010d3c        0x0 c:/GitHub/FAccel-CNN/hardware/intel_fpga/development_kits/terasic_de0_nano/quartus_projects/inference_test/20.1/software/bringup_test_bsp/\libhal_bsp.a(alt_load.o)
 .data          0x0000000000010d3c        0x0 c:/GitHub/FAccel-CNN/hardware/intel_fpga/development_kits/terasic_de0_nano/quartus_projects/inference_test/20.1/software/bringup_test_bsp/\libhal_bsp.a(alt_main.o)
 .data          0x0000000000010d3c        0x0 c:/GitHub/FAccel-CNN/hardware/intel_fpga/development_kits/terasic_de0_nano/quartus_projects/inference_test/20.1/software/bringup_test_bsp/\libhal_bsp.a(alt_printf.o)
 .data          0x0000000000010d3c        0x0 c:/GitHub/FAccel-CNN/hardware/intel_fpga/development_kits/terasic_de0_nano/quartus_projects/inference_test/20.1/software/bringup_test_bsp/\libhal_bsp.a(alt_putchar.o)
 .data          0x0000000000010d3c     0x1060 c:/GitHub/FAccel-CNN/hardware/intel_fpga/development_kits/terasic_de0_nano/quartus_projects/inference_test/20.1/software/bringup_test_bsp/\libhal_bsp.a(alt_sys_init.o)
 .data          0x0000000000011d9c        0x0 c:/GitHub/FAccel-CNN/hardware/intel_fpga/development_kits/terasic_de0_nano/quartus_projects/inference_test/20.1/software/bringup_test_bsp/\libhal_bsp.a(altera_avalon_jtag_uart_fd.o)
 .data          0x0000000000011d9c        0x0 c:/GitHub/FAccel-CNN/hardware/intel_fpga/development_kits/terasic_de0_nano/quartus_projects/inference_test/20.1/software/bringup_test_bsp/\libhal_bsp.a(altera_avalon_jtag_uart_init.o)
 .data          0x0000000000011d9c        0x0 c:/GitHub/FAccel-CNN/hardware/intel_fpga/development_kits/terasic_de0_nano/quartus_projects/inference_test/20.1/software/bringup_test_bsp/\libhal_bsp.a(altera_avalon_jtag_uart_ioctl.o)
 .data          0x0000000000011d9c        0x0 c:/GitHub/FAccel-CNN/hardware/intel_fpga/development_kits/terasic_de0_nano/quartus_projects/inference_test/20.1/software/bringup_test_bsp/\libhal_bsp.a(altera_avalon_jtag_uart_read.o)
 .data          0x0000000000011d9c        0x0 c:/GitHub/FAccel-CNN/hardware/intel_fpga/development_kits/terasic_de0_nano/quartus_projects/inference_test/20.1/software/bringup_test_bsp/\libhal_bsp.a(altera_avalon_jtag_uart_write.o)
 .data          0x0000000000011d9c        0x0 c:/GitHub/FAccel-CNN/hardware/intel_fpga/development_kits/terasic_de0_nano/quartus_projects/inference_test/20.1/software/bringup_test_bsp/\libhal_bsp.a(alt_alarm_start.o)
 .data          0x0000000000011d9c        0x0 c:/GitHub/FAccel-CNN/hardware/intel_fpga/development_kits/terasic_de0_nano/quartus_projects/inference_test/20.1/software/bringup_test_bsp/\libhal_bsp.a(alt_close.o)
 .data          0x0000000000011d9c        0x0 c:/GitHub/FAccel-CNN/hardware/intel_fpga/development_kits/terasic_de0_nano/quartus_projects/inference_test/20.1/software/bringup_test_bsp/\libhal_bsp.a(alt_dcache_flush_all.o)
 .data          0x0000000000011d9c      0x1a8 c:/GitHub/FAccel-CNN/hardware/intel_fpga/development_kits/terasic_de0_nano/quartus_projects/inference_test/20.1/software/bringup_test_bsp/\libhal_bsp.a(alt_dev.o)
                0x0000000000011d9c                alt_dev_null
                0x0000000000011dc4                alt_fd_list
 .data          0x0000000000011f44        0x0 c:/GitHub/FAccel-CNN/hardware/intel_fpga/development_kits/terasic_de0_nano/quartus_projects/inference_test/20.1/software/bringup_test_bsp/\libhal_bsp.a(alt_dev_llist_insert.o)
 .data          0x0000000000011f44        0x0 c:/GitHub/FAccel-CNN/hardware/intel_fpga/development_kits/terasic_de0_nano/quartus_projects/inference_test/20.1/software/bringup_test_bsp/\libhal_bsp.a(alt_do_ctors.o)
 .data          0x0000000000011f44        0x0 c:/GitHub/FAccel-CNN/hardware/intel_fpga/development_kits/terasic_de0_nano/quartus_projects/inference_test/20.1/software/bringup_test_bsp/\libhal_bsp.a(alt_do_dtors.o)
 .data          0x0000000000011f44        0x0 c:/GitHub/FAccel-CNN/hardware/intel_fpga/development_kits/terasic_de0_nano/quartus_projects/inference_test/20.1/software/bringup_test_bsp/\libhal_bsp.a(alt_errno.o)
 .data          0x0000000000011f44        0x0 c:/GitHub/FAccel-CNN/hardware/intel_fpga/development_kits/terasic_de0_nano/quartus_projects/inference_test/20.1/software/bringup_test_bsp/\libhal_bsp.a(alt_icache_flush_all.o)
 .data          0x0000000000011f44        0x0 c:/GitHub/FAccel-CNN/hardware/intel_fpga/development_kits/terasic_de0_nano/quartus_projects/inference_test/20.1/software/bringup_test_bsp/\libhal_bsp.a(alt_iic.o)
 .data          0x0000000000011f44        0x0 c:/GitHub/FAccel-CNN/hardware/intel_fpga/development_kits/terasic_de0_nano/quartus_projects/inference_test/20.1/software/bringup_test_bsp/\libhal_bsp.a(alt_iic_isr_register.o)
 .data          0x0000000000011f44        0x0 c:/GitHub/FAccel-CNN/hardware/intel_fpga/development_kits/terasic_de0_nano/quartus_projects/inference_test/20.1/software/bringup_test_bsp/\libhal_bsp.a(alt_io_redirect.o)
 .data          0x0000000000011f44        0x0 c:/GitHub/FAccel-CNN/hardware/intel_fpga/development_kits/terasic_de0_nano/quartus_projects/inference_test/20.1/software/bringup_test_bsp/\libhal_bsp.a(alt_irq_entry.o)
 .data          0x0000000000011f44        0x0 c:/GitHub/FAccel-CNN/hardware/intel_fpga/development_kits/terasic_de0_nano/quartus_projects/inference_test/20.1/software/bringup_test_bsp/\libhal_bsp.a(alt_irq_handler.o)
 .data          0x0000000000011f44        0x0 c:/GitHub/FAccel-CNN/hardware/intel_fpga/development_kits/terasic_de0_nano/quartus_projects/inference_test/20.1/software/bringup_test_bsp/\libhal_bsp.a(alt_irq_vars.o)
 .data          0x0000000000011f44        0x0 c:/GitHub/FAccel-CNN/hardware/intel_fpga/development_kits/terasic_de0_nano/quartus_projects/inference_test/20.1/software/bringup_test_bsp/\libhal_bsp.a(alt_open.o)
 .data          0x0000000000011f44        0x0 c:/GitHub/FAccel-CNN/hardware/intel_fpga/development_kits/terasic_de0_nano/quartus_projects/inference_test/20.1/software/bringup_test_bsp/\libhal_bsp.a(alt_release_fd.o)
 .data          0x0000000000011f44        0x0 c:/GitHub/FAccel-CNN/hardware/intel_fpga/development_kits/terasic_de0_nano/quartus_projects/inference_test/20.1/software/bringup_test_bsp/\libhal_bsp.a(alt_tick.o)
 .data          0x0000000000011f44        0x0 c:/GitHub/FAccel-CNN/hardware/intel_fpga/development_kits/terasic_de0_nano/quartus_projects/inference_test/20.1/software/bringup_test_bsp/\libhal_bsp.a(altera_nios2_gen2_irq.o)
 .data          0x0000000000011f44        0x0 c:/GitHub/FAccel-CNN/hardware/intel_fpga/development_kits/terasic_de0_nano/quartus_projects/inference_test/20.1/software/bringup_test_bsp/\libhal_bsp.a(alt_exception_entry.o)
 .data          0x0000000000011f44        0x0 c:/GitHub/FAccel-CNN/hardware/intel_fpga/development_kits/terasic_de0_nano/quartus_projects/inference_test/20.1/software/bringup_test_bsp/\libhal_bsp.a(alt_find_dev.o)
 .data          0x0000000000011f44        0x0 c:/GitHub/FAccel-CNN/hardware/intel_fpga/development_kits/terasic_de0_nano/quartus_projects/inference_test/20.1/software/bringup_test_bsp/\libhal_bsp.a(alt_find_file.o)
 .data          0x0000000000011f44        0x0 c:/GitHub/FAccel-CNN/hardware/intel_fpga/development_kits/terasic_de0_nano/quartus_projects/inference_test/20.1/software/bringup_test_bsp/\libhal_bsp.a(alt_get_fd.o)
 .data          0x0000000000011f44        0x0 c:/GitHub/FAccel-CNN/hardware/intel_fpga/development_kits/terasic_de0_nano/quartus_projects/inference_test/20.1/software/bringup_test_bsp/\libhal_bsp.a(alt_instruction_exception_entry.o)
 .data          0x0000000000011f44        0x0 c:/intelfpga_lite/20.1/nios2eds/bin/gnu/h-x86_64-mingw32/bin/../lib/gcc/nios2-elf/10.1.1/../../../../../H-x86_64-mingw32/nios2-elf/lib/mno-hw-mul\libc.a(lib_a-atexit.o)
 .data          0x0000000000011f44        0x0 c:/intelfpga_lite/20.1/nios2eds/bin/gnu/h-x86_64-mingw32/bin/../lib/gcc/nios2-elf/10.1.1/../../../../../H-x86_64-mingw32/nios2-elf/lib/mno-hw-mul\libc.a(lib_a-exit.o)
 .data          0x0000000000011f44        0x0 c:/intelfpga_lite/20.1/nios2eds/bin/gnu/h-x86_64-mingw32/bin/../lib/gcc/nios2-elf/10.1.1/../../../../../H-x86_64-mingw32/nios2-elf/lib/mno-hw-mul\libc.a(lib_a-int_errno.o)
 .data          0x0000000000011f44        0x0 c:/intelfpga_lite/20.1/nios2eds/bin/gnu/h-x86_64-mingw32/bin/../lib/gcc/nios2-elf/10.1.1/../../../../../H-x86_64-mingw32/nios2-elf/lib/mno-hw-mul\libc.a(lib_a-memcmp.o)
 .data          0x0000000000011f44        0x0 c:/intelfpga_lite/20.1/nios2eds/bin/gnu/h-x86_64-mingw32/bin/../lib/gcc/nios2-elf/10.1.1/../../../../../H-x86_64-mingw32/nios2-elf/lib/mno-hw-mul\libc.a(lib_a-putchar.o)
 .data          0x0000000000011f44        0x0 c:/intelfpga_lite/20.1/nios2eds/bin/gnu/h-x86_64-mingw32/bin/../lib/gcc/nios2-elf/10.1.1/../../../../../H-x86_64-mingw32/nios2-elf/lib/mno-hw-mul\libc.a(lib_a-strlen.o)
 .data          0x0000000000011f44        0x0 c:/intelfpga_lite/20.1/nios2eds/bin/gnu/h-x86_64-mingw32/bin/../lib/gcc/nios2-elf/10.1.1/../../../../../H-x86_64-mingw32/nios2-elf/lib/mno-hw-mul\libc.a(lib_a-__atexit.o)
 .data          0x0000000000011f44        0x0 c:/intelfpga_lite/20.1/nios2eds/bin/gnu/h-x86_64-mingw32/bin/../lib/gcc/nios2-elf/10.1.1/../../../../../H-x86_64-mingw32/nios2-elf/lib/mno-hw-mul\libc.a(lib_a-__call_atexit.o)
 .data          0x0000000000011f44        0x0 c:/intelfpga_lite/20.1/nios2eds/bin/gnu/h-x86_64-mingw32/bin/../lib/gcc/nios2-elf/10.1.1/../../../../../H-x86_64-mingw32/nios2-elf/lib/mno-hw-mul\libc.a(lib_a-putc.o)
 .data          0x0000000000011f44        0x0 c:/intelfpga_lite/20.1/nios2eds/bin/gnu/h-x86_64-mingw32/bin/../lib/gcc/nios2-elf/10.1.1/../../../../../H-x86_64-mingw32/nios2-elf/lib/mno-hw-mul\libc.a(lib_a-wbuf.o)
 .data          0x0000000000011f44        0x0 c:/intelfpga_lite/20.1/nios2eds/bin/gnu/h-x86_64-mingw32/bin/../lib/gcc/nios2-elf/10.1.1/../../../../../H-x86_64-mingw32/nios2-elf/lib/mno-hw-mul\libc.a(lib_a-wsetup.o)
 .data          0x0000000000011f44        0x0 c:/intelfpga_lite/20.1/nios2eds/bin/gnu/h-x86_64-mingw32/bin/../lib/gcc/nios2-elf/10.1.1/../../../../../H-x86_64-mingw32/nios2-elf/lib/mno-hw-mul\libc.a(lib_a-fflush.o)
 .data          0x0000000000011f44        0x0 c:/intelfpga_lite/20.1/nios2eds/bin/gnu/h-x86_64-mingw32/bin/../lib/gcc/nios2-elf/10.1.1/../../../../../H-x86_64-mingw32/nios2-elf/lib/mno-hw-mul\libc.a(lib_a-findfp.o)
 .data          0x0000000000011f44        0x0 c:/intelfpga_lite/20.1/nios2eds/bin/gnu/h-x86_64-mingw32/bin/../lib/gcc/nios2-elf/10.1.1/../../../../../H-x86_64-mingw32/nios2-elf/lib/mno-hw-mul\libc.a(lib_a-freer.o)
 .data          0x0000000000011f44        0x0 c:/intelfpga_lite/20.1/nios2eds/bin/gnu/h-x86_64-mingw32/bin/../lib/gcc/nios2-elf/10.1.1/../../../../../H-x86_64-mingw32/nios2-elf/lib/mno-hw-mul\libc.a(lib_a-fwalk.o)
 .data          0x0000000000011f44        0x0 c:/intelfpga_lite/20.1/nios2eds/bin/gnu/h-x86_64-mingw32/bin/../lib/gcc/nios2-elf/10.1.1/../../../../../H-x86_64-mingw32/nios2-elf/lib/mno-hw-mul\libc.a(lib_a-makebuf.o)
 .data          0x0000000000011f44        0x0 c:/intelfpga_lite/20.1/nios2eds/bin/gnu/h-x86_64-mingw32/bin/../lib/gcc/nios2-elf/10.1.1/../../../../../H-x86_64-mingw32/nios2-elf/lib/mno-hw-mul\libc.a(lib_a-mallocr.o)
 .data.__malloc_av_
                0x0000000000011f44      0x408 c:/intelfpga_lite/20.1/nios2eds/bin/gnu/h-x86_64-mingw32/bin/../lib/gcc/nios2-elf/10.1.1/../../../../../H-x86_64-mingw32/nios2-elf/lib/mno-hw-mul\libc.a(lib_a-mallocr.o)
                0x0000000000011f44                __malloc_av_
 .data          0x000000000001234c        0x0 c:/intelfpga_lite/20.1/nios2eds/bin/gnu/h-x86_64-mingw32/bin/../lib/gcc/nios2-elf/10.1.1/../../../../../H-x86_64-mingw32/nios2-elf/lib/mno-hw-mul\libc.a(lib_a-memset.o)
 .data          0x000000000001234c        0x0 c:/intelfpga_lite/20.1/nios2eds/bin/gnu/h-x86_64-mingw32/bin/../lib/gcc/nios2-elf/10.1.1/../../../../../H-x86_64-mingw32/nios2-elf/lib/mno-hw-mul\libc.a(lib_a-sbrkr.o)
 .data          0x000000000001234c        0x0 c:/intelfpga_lite/20.1/nios2eds/bin/gnu/h-x86_64-mingw32/bin/../lib/gcc/nios2-elf/10.1.1/../../../../../H-x86_64-mingw32/nios2-elf/lib/mno-hw-mul\libc.a(lib_a-stdio.o)
 .data          0x000000000001234c        0x0 c:/intelfpga_lite/20.1/nios2eds/bin/gnu/h-x86_64-mingw32/bin/../lib/gcc/nios2-elf/10.1.1/../../../../../H-x86_64-mingw32/nios2-elf/lib/mno-hw-mul\libc.a(lib_a-writer.o)
 .data          0x000000000001234c        0x0 c:/intelfpga_lite/20.1/nios2eds/bin/gnu/h-x86_64-mingw32/bin/../lib/gcc/nios2-elf/10.1.1/../../../../../H-x86_64-mingw32/nios2-elf/lib/mno-hw-mul\libc.a(closer.o)
 .data          0x000000000001234c        0x0 c:/intelfpga_lite/20.1/nios2eds/bin/gnu/h-x86_64-mingw32/bin/../lib/gcc/nios2-elf/10.1.1/../../../../../H-x86_64-mingw32/nios2-elf/lib/mno-hw-mul\libc.a(lib_a-fclose.o)
 .data          0x000000000001234c        0x0 c:/intelfpga_lite/20.1/nios2eds/bin/gnu/h-x86_64-mingw32/bin/../lib/gcc/nios2-elf/10.1.1/../../../../../H-x86_64-mingw32/nios2-elf/lib/mno-hw-mul\libc.a(lib_a-fstatr.o)
 .data          0x000000000001234c        0x0 c:/intelfpga_lite/20.1/nios2eds/bin/gnu/h-x86_64-mingw32/bin/../lib/gcc/nios2-elf/10.1.1/../../../../../H-x86_64-mingw32/nios2-elf/lib/mno-hw-mul\libc.a(lib_a-isattyr.o)
 .data          0x000000000001234c        0x0 c:/intelfpga_lite/20.1/nios2eds/bin/gnu/h-x86_64-mingw32/bin/../lib/gcc/nios2-elf/10.1.1/../../../../../H-x86_64-mingw32/nios2-elf/lib/mno-hw-mul\libc.a(lib_a-lseekr.o)
 .data          0x000000000001234c        0x0 c:/intelfpga_lite/20.1/nios2eds/bin/gnu/h-x86_64-mingw32/bin/../lib/gcc/nios2-elf/10.1.1/../../../../../H-x86_64-mingw32/nios2-elf/lib/mno-hw-mul\libc.a(lib_a-readr.o)
 .data          0x000000000001234c        0x0 c:/GitHub/FAccel-CNN/hardware/intel_fpga/development_kits/terasic_de0_nano/quartus_projects/inference_test/20.1/software/bringup_test_bsp/\libhal_bsp.a(alt_exit.o)
 .data          0x000000000001234c        0x0 c:/GitHub/FAccel-CNN/hardware/intel_fpga/development_kits/terasic_de0_nano/quartus_projects/inference_test/20.1/software/bringup_test_bsp/\libhal_bsp.a(alt_fstat.o)
 .data          0x000000000001234c        0x0 c:/GitHub/FAccel-CNN/hardware/intel_fpga/development_kits/terasic_de0_nano/quartus_projects/inference_test/20.1/software/bringup_test_bsp/\libhal_bsp.a(alt_isatty.o)
 .data          0x000000000001234c        0x0 c:/GitHub/FAccel-CNN/hardware/intel_fpga/development_kits/terasic_de0_nano/quartus_projects/inference_test/20.1/software/bringup_test_bsp/\libhal_bsp.a(alt_lseek.o)
 .data          0x000000000001234c        0x0 c:/GitHub/FAccel-CNN/hardware/intel_fpga/development_kits/terasic_de0_nano/quartus_projects/inference_test/20.1/software/bringup_test_bsp/\libhal_bsp.a(alt_malloc_lock.o)
 .data          0x000000000001234c        0x0 c:/GitHub/FAccel-CNN/hardware/intel_fpga/development_kits/terasic_de0_nano/quartus_projects/inference_test/20.1/software/bringup_test_bsp/\libhal_bsp.a(alt_read.o)
 .data          0x000000000001234c        0x0 c:/GitHub/FAccel-CNN/hardware/intel_fpga/development_kits/terasic_de0_nano/quartus_projects/inference_test/20.1/software/bringup_test_bsp/\libhal_bsp.a(alt_sbrk.o)
 .data          0x000000000001234c        0x0 c:/GitHub/FAccel-CNN/hardware/intel_fpga/development_kits/terasic_de0_nano/quartus_projects/inference_test/20.1/software/bringup_test_bsp/\libhal_bsp.a(alt_write.o)
                0x000000000001a34c                _gp = ABSOLUTE ((. + 0x8000))
                [!provide]                        PROVIDE (gp = _gp)
 *(.rwdata .rwdata.*)
 *(.sdata .sdata.* .gnu.linkonce.s.*)
 .sdata.ln2LO   0x000000000001234c        0x8 c:/intelfpga_lite/20.1/nios2eds/bin/gnu/h-x86_64-mingw32/bin/../lib/gcc/nios2-elf/10.1.1/../../../../../H-x86_64-mingw32/nios2-elf/lib/mno-hw-mul\libm.a(lib_a-ef_exp.o)
 .sdata.ln2HI   0x0000000000012354        0x8 c:/intelfpga_lite/20.1/nios2eds/bin/gnu/h-x86_64-mingw32/bin/../lib/gcc/nios2-elf/10.1.1/../../../../../H-x86_64-mingw32/nios2-elf/lib/mno-hw-mul\libm.a(lib_a-ef_exp.o)
 .sdata.halF    0x000000000001235c        0x8 c:/intelfpga_lite/20.1/nios2eds/bin/gnu/h-x86_64-mingw32/bin/../lib/gcc/nios2-elf/10.1.1/../../../../../H-x86_64-mingw32/nios2-elf/lib/mno-hw-mul\libm.a(lib_a-ef_exp.o)
 .sdata.__fdlib_version
                0x0000000000012364        0x4 c:/intelfpga_lite/20.1/nios2eds/bin/gnu/h-x86_64-mingw32/bin/../lib/gcc/nios2-elf/10.1.1/../../../../../H-x86_64-mingw32/nios2-elf/lib/mno-hw-mul\libm.a(lib_a-s_lib_ver.o)
                0x0000000000012364                __fdlib_version
 .sdata._global_impure_ptr
                0x0000000000012368        0x4 c:/intelfpga_lite/20.1/nios2eds/bin/gnu/h-x86_64-mingw32/bin/../lib/gcc/nios2-elf/10.1.1/../../../../../H-x86_64-mingw32/nios2-elf/lib/mno-hw-mul\libc.a(lib_a-impure.o)
                0x0000000000012368                _global_impure_ptr
 .sdata._impure_ptr
                0x000000000001236c        0x4 c:/intelfpga_lite/20.1/nios2eds/bin/gnu/h-x86_64-mingw32/bin/../lib/gcc/nios2-elf/10.1.1/../../../../../H-x86_64-mingw32/nios2-elf/lib/mno-hw-mul\libc.a(lib_a-impure.o)
                0x000000000001236c                _impure_ptr
 .sdata         0x0000000000012370       0x14 c:/GitHub/FAccel-CNN/hardware/intel_fpga/development_kits/terasic_de0_nano/quartus_projects/inference_test/20.1/software/bringup_test_bsp/\libhal_bsp.a(alt_dev.o)
                0x0000000000012370                alt_fs_list
                0x0000000000012378                alt_dev_list
                0x0000000000012380                alt_max_fd
 .sdata         0x0000000000012384        0x4 c:/GitHub/FAccel-CNN/hardware/intel_fpga/development_kits/terasic_de0_nano/quartus_projects/inference_test/20.1/software/bringup_test_bsp/\libhal_bsp.a(alt_errno.o)
                0x0000000000012384                alt_errno
 .sdata         0x0000000000012388        0x4 c:/GitHub/FAccel-CNN/hardware/intel_fpga/development_kits/terasic_de0_nano/quartus_projects/inference_test/20.1/software/bringup_test_bsp/\libhal_bsp.a(alt_irq_vars.o)
                0x0000000000012388                alt_priority_mask
 .sdata         0x000000000001238c        0x8 c:/GitHub/FAccel-CNN/hardware/intel_fpga/development_kits/terasic_de0_nano/quartus_projects/inference_test/20.1/software/bringup_test_bsp/\libhal_bsp.a(alt_tick.o)
                0x000000000001238c                alt_alarm_list
 .sdata.__malloc_sbrk_base
                0x0000000000012394        0x4 c:/intelfpga_lite/20.1/nios2eds/bin/gnu/h-x86_64-mingw32/bin/../lib/gcc/nios2-elf/10.1.1/../../../../../H-x86_64-mingw32/nios2-elf/lib/mno-hw-mul\libc.a(lib_a-mallocr.o)
                0x0000000000012394                __malloc_sbrk_base
 .sdata.__malloc_trim_threshold
                0x0000000000012398        0x4 c:/intelfpga_lite/20.1/nios2eds/bin/gnu/h-x86_64-mingw32/bin/../lib/gcc/nios2-elf/10.1.1/../../../../../H-x86_64-mingw32/nios2-elf/lib/mno-hw-mul\libc.a(lib_a-mallocr.o)
                0x0000000000012398                __malloc_trim_threshold
 .sdata         0x000000000001239c        0x4 c:/GitHub/FAccel-CNN/hardware/intel_fpga/development_kits/terasic_de0_nano/quartus_projects/inference_test/20.1/software/bringup_test_bsp/\libhal_bsp.a(alt_sbrk.o)
 *(.sdata2 .sdata2.* .gnu.linkonce.s2.*)
                0x00000000000123a0                . = ALIGN (0x4)
                0x00000000000123a0                _edata = ABSOLUTE (.)
                [!provide]                        PROVIDE (edata = ABSOLUTE (.))
                0x00000000000123a0                PROVIDE (__ram_rwdata_end = ABSOLUTE (.))
                0x00000000000123a0                PROVIDE (__flash_rwdata_start = LOADADDR (.rwdata))

.bss            0x0000000000015e28      0x154
                0x0000000000015e28                __bss_start = ABSOLUTE (.)
                [!provide]                        PROVIDE (__sbss_start = ABSOLUTE (.))
                [!provide]                        PROVIDE (___sbss_start = ABSOLUTE (.))
 *(.dynsbss)
 *(.sbss .sbss.* .gnu.linkonce.sb.*)
 .sbss          0x0000000000015e28        0xc c:/GitHub/FAccel-CNN/hardware/intel_fpga/development_kits/terasic_de0_nano/quartus_projects/inference_test/20.1/software/bringup_test_bsp/\libhal_bsp.a(alt_main.o)
                0x0000000000015e28                alt_argc
                0x0000000000015e2c                alt_argv
                0x0000000000015e30                alt_envp
 .sbss          0x0000000000015e34        0x4 c:/GitHub/FAccel-CNN/hardware/intel_fpga/development_kits/terasic_de0_nano/quartus_projects/inference_test/20.1/software/bringup_test_bsp/\libhal_bsp.a(alt_irq_vars.o)
                0x0000000000015e34                alt_irq_active
 .sbss          0x0000000000015e38        0x8 c:/GitHub/FAccel-CNN/hardware/intel_fpga/development_kits/terasic_de0_nano/quartus_projects/inference_test/20.1/software/bringup_test_bsp/\libhal_bsp.a(alt_tick.o)
                0x0000000000015e38                _alt_tick_rate
                0x0000000000015e3c                _alt_nticks
 .sbss          0x0000000000015e40        0x4 c:/GitHub/FAccel-CNN/hardware/intel_fpga/development_kits/terasic_de0_nano/quartus_projects/inference_test/20.1/software/bringup_test_bsp/\libhal_bsp.a(alt_instruction_exception_entry.o)
                0x0000000000015e40                alt_instruction_exception_handler
 .sbss.errno    0x0000000000015e44        0x4 c:/intelfpga_lite/20.1/nios2eds/bin/gnu/h-x86_64-mingw32/bin/../lib/gcc/nios2-elf/10.1.1/../../../../../H-x86_64-mingw32/nios2-elf/lib/mno-hw-mul\libc.a(lib_a-int_errno.o)
                0x0000000000015e44                errno
 .sbss.__malloc_max_total_mem
                0x0000000000015e48        0x4 c:/intelfpga_lite/20.1/nios2eds/bin/gnu/h-x86_64-mingw32/bin/../lib/gcc/nios2-elf/10.1.1/../../../../../H-x86_64-mingw32/nios2-elf/lib/mno-hw-mul\libc.a(lib_a-mallocr.o)
                0x0000000000015e48                __malloc_max_total_mem
 .sbss.__malloc_max_sbrked_mem
                0x0000000000015e4c        0x4 c:/intelfpga_lite/20.1/nios2eds/bin/gnu/h-x86_64-mingw32/bin/../lib/gcc/nios2-elf/10.1.1/../../../../../H-x86_64-mingw32/nios2-elf/lib/mno-hw-mul\libc.a(lib_a-mallocr.o)
                0x0000000000015e4c                __malloc_max_sbrked_mem
 .sbss.__malloc_top_pad
                0x0000000000015e50        0x4 c:/intelfpga_lite/20.1/nios2eds/bin/gnu/h-x86_64-mingw32/bin/../lib/gcc/nios2-elf/10.1.1/../../../../../H-x86_64-mingw32/nios2-elf/lib/mno-hw-mul\libc.a(lib_a-mallocr.o)
                0x0000000000015e50                __malloc_top_pad
 *(.sbss2 .sbss2.* .gnu.linkonce.sb2.*)
 *(.scommon)
                [!provide]                        PROVIDE (__sbss_end = ABSOLUTE (.))
                [!provide]                        PROVIDE (___sbss_end = ABSOLUTE (.))
 *(.dynbss)
 *(.bss .bss.* .gnu.linkonce.b.*)
 .bss           0x0000000000015e54        0x0 c:/GitHub/FAccel-CNN/hardware/intel_fpga/development_kits/terasic_de0_nano/quartus_projects/inference_test/20.1/software/bringup_test_bsp//obj/HAL/src/crt0.o
 .bss           0x0000000000015e54        0x0 obj/default/bringup_test.o
 .bss           0x0000000000015e54        0x0 obj/default/printf.o
 .bss           0x0000000000015e54        0x0 c:/intelfpga_lite/20.1/nios2eds/bin/gnu/h-x86_64-mingw32/bin/../lib/gcc/nios2-elf/10.1.1/../../../../../H-x86_64-mingw32/nios2-elf/lib/mno-hw-mul\libm.a(lib_a-wf_exp.o)
 .bss           0x0000000000015e54        0x0 c:/intelfpga_lite/20.1/nios2eds/bin/gnu/h-x86_64-mingw32/bin/../lib/gcc/nios2-elf/10.1.1/../../../../../H-x86_64-mingw32/nios2-elf/lib/mno-hw-mul\libm.a(lib_a-wf_log.o)
 .bss           0x0000000000015e54        0x0 c:/intelfpga_lite/20.1/nios2eds/bin/gnu/h-x86_64-mingw32/bin/../lib/gcc/nios2-elf/10.1.1/../../../../../H-x86_64-mingw32/nios2-elf/lib/mno-hw-mul\libm.a(lib_a-ef_exp.o)
 .bss           0x0000000000015e54        0x0 c:/intelfpga_lite/20.1/nios2eds/bin/gnu/h-x86_64-mingw32/bin/../lib/gcc/nios2-elf/10.1.1/../../../../../H-x86_64-mingw32/nios2-elf/lib/mno-hw-mul\libm.a(lib_a-ef_log.o)
 .bss           0x0000000000015e54        0x0 c:/intelfpga_lite/20.1/nios2eds/bin/gnu/h-x86_64-mingw32/bin/../lib/gcc/nios2-elf/10.1.1/../../../../../H-x86_64-mingw32/nios2-elf/lib/mno-hw-mul\libm.a(lib_a-s_lib_ver.o)
 .bss           0x0000000000015e54        0x0 c:/intelfpga_lite/20.1/nios2eds/bin/gnu/h-x86_64-mingw32/bin/../lib/gcc/nios2-elf/10.1.1/mno-hw-mul\libgcc.a(_fixunsdfsi.o)
 .bss           0x0000000000015e54        0x0 c:/intelfpga_lite/20.1/nios2eds/bin/gnu/h-x86_64-mingw32/bin/../lib/gcc/nios2-elf/10.1.1/mno-hw-mul\libgcc.a(_udivdi3.o)
 .bss           0x0000000000015e54        0x0 c:/intelfpga_lite/20.1/nios2eds/bin/gnu/h-x86_64-mingw32/bin/../lib/gcc/nios2-elf/10.1.1/mno-hw-mul\libgcc.a(_umoddi3.o)
 .bss           0x0000000000015e54        0x0 c:/intelfpga_lite/20.1/nios2eds/bin/gnu/h-x86_64-mingw32/bin/../lib/gcc/nios2-elf/10.1.1/mno-hw-mul\libgcc.a(lib2-divmod.o)
 .bss           0x0000000000015e54        0x0 c:/intelfpga_lite/20.1/nios2eds/bin/gnu/h-x86_64-mingw32/bin/../lib/gcc/nios2-elf/10.1.1/mno-hw-mul\libgcc.a(lib2-mul.o)
 .bss           0x0000000000015e54        0x0 c:/intelfpga_lite/20.1/nios2eds/bin/gnu/h-x86_64-mingw32/bin/../lib/gcc/nios2-elf/10.1.1/mno-hw-mul\libgcc.a(addsf3.o)
 .bss           0x0000000000015e54        0x0 c:/intelfpga_lite/20.1/nios2eds/bin/gnu/h-x86_64-mingw32/bin/../lib/gcc/nios2-elf/10.1.1/mno-hw-mul\libgcc.a(divsf3.o)
 .bss           0x0000000000015e54        0x0 c:/intelfpga_lite/20.1/nios2eds/bin/gnu/h-x86_64-mingw32/bin/../lib/gcc/nios2-elf/10.1.1/mno-hw-mul\libgcc.a(eqsf2.o)
 .bss           0x0000000000015e54        0x0 c:/intelfpga_lite/20.1/nios2eds/bin/gnu/h-x86_64-mingw32/bin/../lib/gcc/nios2-elf/10.1.1/mno-hw-mul\libgcc.a(gesf2.o)
 .bss           0x0000000000015e54        0x0 c:/intelfpga_lite/20.1/nios2eds/bin/gnu/h-x86_64-mingw32/bin/../lib/gcc/nios2-elf/10.1.1/mno-hw-mul\libgcc.a(lesf2.o)
 .bss           0x0000000000015e54        0x0 c:/intelfpga_lite/20.1/nios2eds/bin/gnu/h-x86_64-mingw32/bin/../lib/gcc/nios2-elf/10.1.1/mno-hw-mul\libgcc.a(mulsf3.o)
 .bss           0x0000000000015e54        0x0 c:/intelfpga_lite/20.1/nios2eds/bin/gnu/h-x86_64-mingw32/bin/../lib/gcc/nios2-elf/10.1.1/mno-hw-mul\libgcc.a(subsf3.o)
 .bss           0x0000000000015e54        0x0 c:/intelfpga_lite/20.1/nios2eds/bin/gnu/h-x86_64-mingw32/bin/../lib/gcc/nios2-elf/10.1.1/mno-hw-mul\libgcc.a(unordsf2.o)
 .bss           0x0000000000015e54        0x0 c:/intelfpga_lite/20.1/nios2eds/bin/gnu/h-x86_64-mingw32/bin/../lib/gcc/nios2-elf/10.1.1/mno-hw-mul\libgcc.a(fixsfsi.o)
 .bss           0x0000000000015e54        0x0 c:/intelfpga_lite/20.1/nios2eds/bin/gnu/h-x86_64-mingw32/bin/../lib/gcc/nios2-elf/10.1.1/mno-hw-mul\libgcc.a(floatsisf.o)
 .bss           0x0000000000015e54        0x0 c:/intelfpga_lite/20.1/nios2eds/bin/gnu/h-x86_64-mingw32/bin/../lib/gcc/nios2-elf/10.1.1/mno-hw-mul\libgcc.a(floatunsisf.o)
 .bss           0x0000000000015e54        0x0 c:/intelfpga_lite/20.1/nios2eds/bin/gnu/h-x86_64-mingw32/bin/../lib/gcc/nios2-elf/10.1.1/mno-hw-mul\libgcc.a(adddf3.o)
 .bss           0x0000000000015e54        0x0 c:/intelfpga_lite/20.1/nios2eds/bin/gnu/h-x86_64-mingw32/bin/../lib/gcc/nios2-elf/10.1.1/mno-hw-mul\libgcc.a(divdf3.o)
 .bss           0x0000000000015e54        0x0 c:/intelfpga_lite/20.1/nios2eds/bin/gnu/h-x86_64-mingw32/bin/../lib/gcc/nios2-elf/10.1.1/mno-hw-mul\libgcc.a(eqdf2.o)
 .bss           0x0000000000015e54        0x0 c:/intelfpga_lite/20.1/nios2eds/bin/gnu/h-x86_64-mingw32/bin/../lib/gcc/nios2-elf/10.1.1/mno-hw-mul\libgcc.a(gedf2.o)
 .bss           0x0000000000015e54        0x0 c:/intelfpga_lite/20.1/nios2eds/bin/gnu/h-x86_64-mingw32/bin/../lib/gcc/nios2-elf/10.1.1/mno-hw-mul\libgcc.a(ledf2.o)
 .bss           0x0000000000015e54        0x0 c:/intelfpga_lite/20.1/nios2eds/bin/gnu/h-x86_64-mingw32/bin/../lib/gcc/nios2-elf/10.1.1/mno-hw-mul\libgcc.a(muldf3.o)
 .bss           0x0000000000015e54        0x0 c:/intelfpga_lite/20.1/nios2eds/bin/gnu/h-x86_64-mingw32/bin/../lib/gcc/nios2-elf/10.1.1/mno-hw-mul\libgcc.a(subdf3.o)
 .bss           0x0000000000015e54        0x0 c:/intelfpga_lite/20.1/nios2eds/bin/gnu/h-x86_64-mingw32/bin/../lib/gcc/nios2-elf/10.1.1/mno-hw-mul\libgcc.a(fixdfsi.o)
 .bss           0x0000000000015e54        0x0 c:/intelfpga_lite/20.1/nios2eds/bin/gnu/h-x86_64-mingw32/bin/../lib/gcc/nios2-elf/10.1.1/mno-hw-mul\libgcc.a(floatsidf.o)
 .bss           0x0000000000015e54        0x0 c:/intelfpga_lite/20.1/nios2eds/bin/gnu/h-x86_64-mingw32/bin/../lib/gcc/nios2-elf/10.1.1/mno-hw-mul\libgcc.a(floatunsidf.o)
 .bss           0x0000000000015e54        0x0 c:/intelfpga_lite/20.1/nios2eds/bin/gnu/h-x86_64-mingw32/bin/../lib/gcc/nios2-elf/10.1.1/mno-hw-mul\libgcc.a(extendsfdf2.o)
 .bss           0x0000000000015e54        0x0 c:/intelfpga_lite/20.1/nios2eds/bin/gnu/h-x86_64-mingw32/bin/../lib/gcc/nios2-elf/10.1.1/mno-hw-mul\libgcc.a(_clz.o)
 .bss           0x0000000000015e54        0x0 c:/intelfpga_lite/20.1/nios2eds/bin/gnu/h-x86_64-mingw32/bin/../lib/gcc/nios2-elf/10.1.1/mno-hw-mul\libgcc.a(_clzsi2.o)
 .bss           0x0000000000015e54        0x0 c:/intelfpga_lite/20.1/nios2eds/bin/gnu/h-x86_64-mingw32/bin/../lib/gcc/nios2-elf/10.1.1/../../../../../H-x86_64-mingw32/nios2-elf/lib/mno-hw-mul\libc.a(lib_a-errno.o)
 .bss           0x0000000000015e54        0x0 c:/intelfpga_lite/20.1/nios2eds/bin/gnu/h-x86_64-mingw32/bin/../lib/gcc/nios2-elf/10.1.1/../../../../../H-x86_64-mingw32/nios2-elf/lib/mno-hw-mul\libc.a(lib_a-impure.o)
 .bss           0x0000000000015e54        0x0 c:/intelfpga_lite/20.1/nios2eds/bin/gnu/h-x86_64-mingw32/bin/../lib/gcc/nios2-elf/10.1.1/../../../../../H-x86_64-mingw32/nios2-elf/lib/mno-hw-mul\libc.a(lib_a-memcpy.o)
 .bss           0x0000000000015e54        0x0 c:/GitHub/FAccel-CNN/hardware/intel_fpga/development_kits/terasic_de0_nano/quartus_projects/inference_test/20.1/software/bringup_test_bsp/\libhal_bsp.a(alt_load.o)
 .bss           0x0000000000015e54        0x0 c:/GitHub/FAccel-CNN/hardware/intel_fpga/development_kits/terasic_de0_nano/quartus_projects/inference_test/20.1/software/bringup_test_bsp/\libhal_bsp.a(alt_main.o)
 .bss           0x0000000000015e54        0x0 c:/GitHub/FAccel-CNN/hardware/intel_fpga/development_kits/terasic_de0_nano/quartus_projects/inference_test/20.1/software/bringup_test_bsp/\libhal_bsp.a(alt_printf.o)
 .bss           0x0000000000015e54        0x0 c:/GitHub/FAccel-CNN/hardware/intel_fpga/development_kits/terasic_de0_nano/quartus_projects/inference_test/20.1/software/bringup_test_bsp/\libhal_bsp.a(alt_putchar.o)
 .bss           0x0000000000015e54        0x0 c:/GitHub/FAccel-CNN/hardware/intel_fpga/development_kits/terasic_de0_nano/quartus_projects/inference_test/20.1/software/bringup_test_bsp/\libhal_bsp.a(alt_sys_init.o)
 .bss           0x0000000000015e54        0x0 c:/GitHub/FAccel-CNN/hardware/intel_fpga/development_kits/terasic_de0_nano/quartus_projects/inference_test/20.1/software/bringup_test_bsp/\libhal_bsp.a(altera_avalon_jtag_uart_fd.o)
 .bss           0x0000000000015e54        0x0 c:/GitHub/FAccel-CNN/hardware/intel_fpga/development_kits/terasic_de0_nano/quartus_projects/inference_test/20.1/software/bringup_test_bsp/\libhal_bsp.a(altera_avalon_jtag_uart_init.o)
 .bss           0x0000000000015e54        0x0 c:/GitHub/FAccel-CNN/hardware/intel_fpga/development_kits/terasic_de0_nano/quartus_projects/inference_test/20.1/software/bringup_test_bsp/\libhal_bsp.a(altera_avalon_jtag_uart_ioctl.o)
 .bss           0x0000000000015e54        0x0 c:/GitHub/FAccel-CNN/hardware/intel_fpga/development_kits/terasic_de0_nano/quartus_projects/inference_test/20.1/software/bringup_test_bsp/\libhal_bsp.a(altera_avalon_jtag_uart_read.o)
 .bss           0x0000000000015e54        0x0 c:/GitHub/FAccel-CNN/hardware/intel_fpga/development_kits/terasic_de0_nano/quartus_projects/inference_test/20.1/software/bringup_test_bsp/\libhal_bsp.a(altera_avalon_jtag_uart_write.o)
 .bss           0x0000000000015e54        0x0 c:/GitHub/FAccel-CNN/hardware/intel_fpga/development_kits/terasic_de0_nano/quartus_projects/inference_test/20.1/software/bringup_test_bsp/\libhal_bsp.a(alt_alarm_start.o)
 .bss           0x0000000000015e54        0x0 c:/GitHub/FAccel-CNN/hardware/intel_fpga/development_kits/terasic_de0_nano/quartus_projects/inference_test/20.1/software/bringup_test_bsp/\libhal_bsp.a(alt_close.o)
 .bss           0x0000000000015e54        0x0 c:/GitHub/FAccel-CNN/hardware/intel_fpga/development_kits/terasic_de0_nano/quartus_projects/inference_test/20.1/software/bringup_test_bsp/\libhal_bsp.a(alt_dcache_flush_all.o)
 .bss           0x0000000000015e54        0x0 c:/GitHub/FAccel-CNN/hardware/intel_fpga/development_kits/terasic_de0_nano/quartus_projects/inference_test/20.1/software/bringup_test_bsp/\libhal_bsp.a(alt_dev.o)
 .bss           0x0000000000015e54        0x0 c:/GitHub/FAccel-CNN/hardware/intel_fpga/development_kits/terasic_de0_nano/quartus_projects/inference_test/20.1/software/bringup_test_bsp/\libhal_bsp.a(alt_dev_llist_insert.o)
 .bss           0x0000000000015e54        0x0 c:/GitHub/FAccel-CNN/hardware/intel_fpga/development_kits/terasic_de0_nano/quartus_projects/inference_test/20.1/software/bringup_test_bsp/\libhal_bsp.a(alt_do_ctors.o)
 .bss           0x0000000000015e54        0x0 c:/GitHub/FAccel-CNN/hardware/intel_fpga/development_kits/terasic_de0_nano/quartus_projects/inference_test/20.1/software/bringup_test_bsp/\libhal_bsp.a(alt_do_dtors.o)
 .bss           0x0000000000015e54        0x0 c:/GitHub/FAccel-CNN/hardware/intel_fpga/development_kits/terasic_de0_nano/quartus_projects/inference_test/20.1/software/bringup_test_bsp/\libhal_bsp.a(alt_errno.o)
 .bss           0x0000000000015e54        0x0 c:/GitHub/FAccel-CNN/hardware/intel_fpga/development_kits/terasic_de0_nano/quartus_projects/inference_test/20.1/software/bringup_test_bsp/\libhal_bsp.a(alt_icache_flush_all.o)
 .bss           0x0000000000015e54        0x0 c:/GitHub/FAccel-CNN/hardware/intel_fpga/development_kits/terasic_de0_nano/quartus_projects/inference_test/20.1/software/bringup_test_bsp/\libhal_bsp.a(alt_iic.o)
 .bss           0x0000000000015e54        0x0 c:/GitHub/FAccel-CNN/hardware/intel_fpga/development_kits/terasic_de0_nano/quartus_projects/inference_test/20.1/software/bringup_test_bsp/\libhal_bsp.a(alt_iic_isr_register.o)
 .bss           0x0000000000015e54        0x0 c:/GitHub/FAccel-CNN/hardware/intel_fpga/development_kits/terasic_de0_nano/quartus_projects/inference_test/20.1/software/bringup_test_bsp/\libhal_bsp.a(alt_io_redirect.o)
 .bss           0x0000000000015e54        0x0 c:/GitHub/FAccel-CNN/hardware/intel_fpga/development_kits/terasic_de0_nano/quartus_projects/inference_test/20.1/software/bringup_test_bsp/\libhal_bsp.a(alt_irq_entry.o)
 .bss           0x0000000000015e54      0x100 c:/GitHub/FAccel-CNN/hardware/intel_fpga/development_kits/terasic_de0_nano/quartus_projects/inference_test/20.1/software/bringup_test_bsp/\libhal_bsp.a(alt_irq_handler.o)
                0x0000000000015e54                alt_irq
 .bss           0x0000000000015f54        0x0 c:/GitHub/FAccel-CNN/hardware/intel_fpga/development_kits/terasic_de0_nano/quartus_projects/inference_test/20.1/software/bringup_test_bsp/\libhal_bsp.a(alt_irq_vars.o)
 .bss           0x0000000000015f54        0x0 c:/GitHub/FAccel-CNN/hardware/intel_fpga/development_kits/terasic_de0_nano/quartus_projects/inference_test/20.1/software/bringup_test_bsp/\libhal_bsp.a(alt_open.o)
 .bss           0x0000000000015f54        0x0 c:/GitHub/FAccel-CNN/hardware/intel_fpga/development_kits/terasic_de0_nano/quartus_projects/inference_test/20.1/software/bringup_test_bsp/\libhal_bsp.a(alt_release_fd.o)
 .bss           0x0000000000015f54        0x0 c:/GitHub/FAccel-CNN/hardware/intel_fpga/development_kits/terasic_de0_nano/quartus_projects/inference_test/20.1/software/bringup_test_bsp/\libhal_bsp.a(alt_tick.o)
 .bss           0x0000000000015f54        0x0 c:/GitHub/FAccel-CNN/hardware/intel_fpga/development_kits/terasic_de0_nano/quartus_projects/inference_test/20.1/software/bringup_test_bsp/\libhal_bsp.a(altera_nios2_gen2_irq.o)
 .bss           0x0000000000015f54        0x0 c:/GitHub/FAccel-CNN/hardware/intel_fpga/development_kits/terasic_de0_nano/quartus_projects/inference_test/20.1/software/bringup_test_bsp/\libhal_bsp.a(alt_exception_entry.o)
 .bss           0x0000000000015f54        0x0 c:/GitHub/FAccel-CNN/hardware/intel_fpga/development_kits/terasic_de0_nano/quartus_projects/inference_test/20.1/software/bringup_test_bsp/\libhal_bsp.a(alt_find_dev.o)
 .bss           0x0000000000015f54        0x0 c:/GitHub/FAccel-CNN/hardware/intel_fpga/development_kits/terasic_de0_nano/quartus_projects/inference_test/20.1/software/bringup_test_bsp/\libhal_bsp.a(alt_find_file.o)
 .bss           0x0000000000015f54        0x0 c:/GitHub/FAccel-CNN/hardware/intel_fpga/development_kits/terasic_de0_nano/quartus_projects/inference_test/20.1/software/bringup_test_bsp/\libhal_bsp.a(alt_get_fd.o)
 .bss           0x0000000000015f54        0x0 c:/GitHub/FAccel-CNN/hardware/intel_fpga/development_kits/terasic_de0_nano/quartus_projects/inference_test/20.1/software/bringup_test_bsp/\libhal_bsp.a(alt_instruction_exception_entry.o)
 .bss           0x0000000000015f54        0x0 c:/intelfpga_lite/20.1/nios2eds/bin/gnu/h-x86_64-mingw32/bin/../lib/gcc/nios2-elf/10.1.1/../../../../../H-x86_64-mingw32/nios2-elf/lib/mno-hw-mul\libc.a(lib_a-atexit.o)
 .bss           0x0000000000015f54        0x0 c:/intelfpga_lite/20.1/nios2eds/bin/gnu/h-x86_64-mingw32/bin/../lib/gcc/nios2-elf/10.1.1/../../../../../H-x86_64-mingw32/nios2-elf/lib/mno-hw-mul\libc.a(lib_a-exit.o)
 .bss           0x0000000000015f54        0x0 c:/intelfpga_lite/20.1/nios2eds/bin/gnu/h-x86_64-mingw32/bin/../lib/gcc/nios2-elf/10.1.1/../../../../../H-x86_64-mingw32/nios2-elf/lib/mno-hw-mul\libc.a(lib_a-int_errno.o)
 .bss           0x0000000000015f54        0x0 c:/intelfpga_lite/20.1/nios2eds/bin/gnu/h-x86_64-mingw32/bin/../lib/gcc/nios2-elf/10.1.1/../../../../../H-x86_64-mingw32/nios2-elf/lib/mno-hw-mul\libc.a(lib_a-memcmp.o)
 .bss           0x0000000000015f54        0x0 c:/intelfpga_lite/20.1/nios2eds/bin/gnu/h-x86_64-mingw32/bin/../lib/gcc/nios2-elf/10.1.1/../../../../../H-x86_64-mingw32/nios2-elf/lib/mno-hw-mul\libc.a(lib_a-putchar.o)
 .bss           0x0000000000015f54        0x0 c:/intelfpga_lite/20.1/nios2eds/bin/gnu/h-x86_64-mingw32/bin/../lib/gcc/nios2-elf/10.1.1/../../../../../H-x86_64-mingw32/nios2-elf/lib/mno-hw-mul\libc.a(lib_a-strlen.o)
 .bss           0x0000000000015f54        0x0 c:/intelfpga_lite/20.1/nios2eds/bin/gnu/h-x86_64-mingw32/bin/../lib/gcc/nios2-elf/10.1.1/../../../../../H-x86_64-mingw32/nios2-elf/lib/mno-hw-mul\libc.a(lib_a-__atexit.o)
 .bss           0x0000000000015f54        0x0 c:/intelfpga_lite/20.1/nios2eds/bin/gnu/h-x86_64-mingw32/bin/../lib/gcc/nios2-elf/10.1.1/../../../../../H-x86_64-mingw32/nios2-elf/lib/mno-hw-mul\libc.a(lib_a-__call_atexit.o)
 .bss           0x0000000000015f54        0x0 c:/intelfpga_lite/20.1/nios2eds/bin/gnu/h-x86_64-mingw32/bin/../lib/gcc/nios2-elf/10.1.1/../../../../../H-x86_64-mingw32/nios2-elf/lib/mno-hw-mul\libc.a(lib_a-putc.o)
 .bss           0x0000000000015f54        0x0 c:/intelfpga_lite/20.1/nios2eds/bin/gnu/h-x86_64-mingw32/bin/../lib/gcc/nios2-elf/10.1.1/../../../../../H-x86_64-mingw32/nios2-elf/lib/mno-hw-mul\libc.a(lib_a-wbuf.o)
 .bss           0x0000000000015f54        0x0 c:/intelfpga_lite/20.1/nios2eds/bin/gnu/h-x86_64-mingw32/bin/../lib/gcc/nios2-elf/10.1.1/../../../../../H-x86_64-mingw32/nios2-elf/lib/mno-hw-mul\libc.a(lib_a-wsetup.o)
 .bss           0x0000000000015f54        0x0 c:/intelfpga_lite/20.1/nios2eds/bin/gnu/h-x86_64-mingw32/bin/../lib/gcc/nios2-elf/10.1.1/../../../../../H-x86_64-mingw32/nios2-elf/lib/mno-hw-mul\libc.a(lib_a-fflush.o)
 .bss           0x0000000000015f54        0x0 c:/intelfpga_lite/20.1/nios2eds/bin/gnu/h-x86_64-mingw32/bin/../lib/gcc/nios2-elf/10.1.1/../../../../../H-x86_64-mingw32/nios2-elf/lib/mno-hw-mul\libc.a(lib_a-findfp.o)
 .bss           0x0000000000015f54        0x0 c:/intelfpga_lite/20.1/nios2eds/bin/gnu/h-x86_64-mingw32/bin/../lib/gcc/nios2-elf/10.1.1/../../../../../H-x86_64-mingw32/nios2-elf/lib/mno-hw-mul\libc.a(lib_a-freer.o)
 .bss           0x0000000000015f54        0x0 c:/intelfpga_lite/20.1/nios2eds/bin/gnu/h-x86_64-mingw32/bin/../lib/gcc/nios2-elf/10.1.1/../../../../../H-x86_64-mingw32/nios2-elf/lib/mno-hw-mul\libc.a(lib_a-fwalk.o)
 .bss           0x0000000000015f54        0x0 c:/intelfpga_lite/20.1/nios2eds/bin/gnu/h-x86_64-mingw32/bin/../lib/gcc/nios2-elf/10.1.1/../../../../../H-x86_64-mingw32/nios2-elf/lib/mno-hw-mul\libc.a(lib_a-makebuf.o)
 .bss           0x0000000000015f54        0x0 c:/intelfpga_lite/20.1/nios2eds/bin/gnu/h-x86_64-mingw32/bin/../lib/gcc/nios2-elf/10.1.1/../../../../../H-x86_64-mingw32/nios2-elf/lib/mno-hw-mul\libc.a(lib_a-mallocr.o)
 .bss.__malloc_current_mallinfo
                0x0000000000015f54       0x28 c:/intelfpga_lite/20.1/nios2eds/bin/gnu/h-x86_64-mingw32/bin/../lib/gcc/nios2-elf/10.1.1/../../../../../H-x86_64-mingw32/nios2-elf/lib/mno-hw-mul\libc.a(lib_a-mallocr.o)
                0x0000000000015f54                __malloc_current_mallinfo
 .bss           0x0000000000015f7c        0x0 c:/intelfpga_lite/20.1/nios2eds/bin/gnu/h-x86_64-mingw32/bin/../lib/gcc/nios2-elf/10.1.1/../../../../../H-x86_64-mingw32/nios2-elf/lib/mno-hw-mul\libc.a(lib_a-memset.o)
 .bss           0x0000000000015f7c        0x0 c:/intelfpga_lite/20.1/nios2eds/bin/gnu/h-x86_64-mingw32/bin/../lib/gcc/nios2-elf/10.1.1/../../../../../H-x86_64-mingw32/nios2-elf/lib/mno-hw-mul\libc.a(lib_a-sbrkr.o)
 .bss           0x0000000000015f7c        0x0 c:/intelfpga_lite/20.1/nios2eds/bin/gnu/h-x86_64-mingw32/bin/../lib/gcc/nios2-elf/10.1.1/../../../../../H-x86_64-mingw32/nios2-elf/lib/mno-hw-mul\libc.a(lib_a-stdio.o)
 .bss           0x0000000000015f7c        0x0 c:/intelfpga_lite/20.1/nios2eds/bin/gnu/h-x86_64-mingw32/bin/../lib/gcc/nios2-elf/10.1.1/../../../../../H-x86_64-mingw32/nios2-elf/lib/mno-hw-mul\libc.a(lib_a-writer.o)
 .bss           0x0000000000015f7c        0x0 c:/intelfpga_lite/20.1/nios2eds/bin/gnu/h-x86_64-mingw32/bin/../lib/gcc/nios2-elf/10.1.1/../../../../../H-x86_64-mingw32/nios2-elf/lib/mno-hw-mul\libc.a(closer.o)
 .bss           0x0000000000015f7c        0x0 c:/intelfpga_lite/20.1/nios2eds/bin/gnu/h-x86_64-mingw32/bin/../lib/gcc/nios2-elf/10.1.1/../../../../../H-x86_64-mingw32/nios2-elf/lib/mno-hw-mul\libc.a(lib_a-fclose.o)
 .bss           0x0000000000015f7c        0x0 c:/intelfpga_lite/20.1/nios2eds/bin/gnu/h-x86_64-mingw32/bin/../lib/gcc/nios2-elf/10.1.1/../../../../../H-x86_64-mingw32/nios2-elf/lib/mno-hw-mul\libc.a(lib_a-fstatr.o)
 .bss           0x0000000000015f7c        0x0 c:/intelfpga_lite/20.1/nios2eds/bin/gnu/h-x86_64-mingw32/bin/../lib/gcc/nios2-elf/10.1.1/../../../../../H-x86_64-mingw32/nios2-elf/lib/mno-hw-mul\libc.a(lib_a-isattyr.o)
 .bss           0x0000000000015f7c        0x0 c:/intelfpga_lite/20.1/nios2eds/bin/gnu/h-x86_64-mingw32/bin/../lib/gcc/nios2-elf/10.1.1/../../../../../H-x86_64-mingw32/nios2-elf/lib/mno-hw-mul\libc.a(lib_a-lseekr.o)
 .bss           0x0000000000015f7c        0x0 c:/intelfpga_lite/20.1/nios2eds/bin/gnu/h-x86_64-mingw32/bin/../lib/gcc/nios2-elf/10.1.1/../../../../../H-x86_64-mingw32/nios2-elf/lib/mno-hw-mul\libc.a(lib_a-readr.o)
 .bss           0x0000000000015f7c        0x0 c:/GitHub/FAccel-CNN/hardware/intel_fpga/development_kits/terasic_de0_nano/quartus_projects/inference_test/20.1/software/bringup_test_bsp/\libhal_bsp.a(alt_exit.o)
 .bss           0x0000000000015f7c        0x0 c:/GitHub/FAccel-CNN/hardware/intel_fpga/development_kits/terasic_de0_nano/quartus_projects/inference_test/20.1/software/bringup_test_bsp/\libhal_bsp.a(alt_fstat.o)
 .bss           0x0000000000015f7c        0x0 c:/GitHub/FAccel-CNN/hardware/intel_fpga/development_kits/terasic_de0_nano/quartus_projects/inference_test/20.1/software/bringup_test_bsp/\libhal_bsp.a(alt_isatty.o)
 .bss           0x0000000000015f7c        0x0 c:/GitHub/FAccel-CNN/hardware/intel_fpga/development_kits/terasic_de0_nano/quartus_projects/inference_test/20.1/software/bringup_test_bsp/\libhal_bsp.a(alt_lseek.o)
 .bss           0x0000000000015f7c        0x0 c:/GitHub/FAccel-CNN/hardware/intel_fpga/development_kits/terasic_de0_nano/quartus_projects/inference_test/20.1/software/bringup_test_bsp/\libhal_bsp.a(alt_malloc_lock.o)
 .bss           0x0000000000015f7c        0x0 c:/GitHub/FAccel-CNN/hardware/intel_fpga/development_kits/terasic_de0_nano/quartus_projects/inference_test/20.1/software/bringup_test_bsp/\libhal_bsp.a(alt_read.o)
 .bss           0x0000000000015f7c        0x0 c:/GitHub/FAccel-CNN/hardware/intel_fpga/development_kits/terasic_de0_nano/quartus_projects/inference_test/20.1/software/bringup_test_bsp/\libhal_bsp.a(alt_sbrk.o)
 .bss           0x0000000000015f7c        0x0 c:/GitHub/FAccel-CNN/hardware/intel_fpga/development_kits/terasic_de0_nano/quartus_projects/inference_test/20.1/software/bringup_test_bsp/\libhal_bsp.a(alt_write.o)
 *(COMMON)
                0x0000000000015f7c                . = ALIGN (0x4)
                0x0000000000015f7c                __bss_end = ABSOLUTE (.)

.sdram          0x0000000000015f7c        0x0
                [!provide]                        PROVIDE (_alt_partition_sdram_start = ABSOLUTE (.))
 *(.sdram .sdram. sdram.*)
                0x0000000000015f7c                . = ALIGN (0x4)
                [!provide]                        PROVIDE (_alt_partition_sdram_end = ABSOLUTE (.))
                0x0000000000015f7c                _end = ABSOLUTE (.)
                0x0000000000015f7c                end = ABSOLUTE (.)
                0x0000000000015f7c                __alt_stack_base = ABSOLUTE (.)
                [!provide]                        PROVIDE (_alt_partition_sdram_load_addr = LOADADDR (.sdram))

.onchip_ram     0x0000000002002224        0x0 load address 0x0000000000015f7c
                [!provide]                        PROVIDE (_alt_partition_onchip_ram_start = ABSOLUTE (.))
 *(.onchip_ram .onchip_ram. onchip_ram.*)
                0x0000000002002224                . = ALIGN (0x4)
                [!provide]                        PROVIDE (_alt_partition_onchip_ram_end = ABSOLUTE (.))
                [!provide]                        PROVIDE (_alt_partition_onchip_ram_load_addr = LOADADDR (.onchip_ram))

.stab
 *(.stab)

.stabstr
 *(.stabstr)

.stab.excl
 *(.stab.excl)

.stab.exclstr
 *(.stab.exclstr)

.stab.index
 *(.stab.index)

.stab.indexstr
 *(.stab.indexstr)

.comment        0x0000000000000000       0x2d
 *(.comment)
 .comment       0x0000000000000000       0x2d obj/default/bringup_test.o
                                         0x2e (size before relaxing)
 .comment       0x000000000000002d       0x2e obj/default/printf.o
 .comment       0x000000000000002d       0x2e c:/intelfpga_lite/20.1/nios2eds/bin/gnu/h-x86_64-mingw32/bin/../lib/gcc/nios2-elf/10.1.1/../../../../../H-x86_64-mingw32/nios2-elf/lib/mno-hw-mul\libm.a(lib_a-wf_exp.o)
 .comment       0x000000000000002d       0x2e c:/intelfpga_lite/20.1/nios2eds/bin/gnu/h-x86_64-mingw32/bin/../lib/gcc/nios2-elf/10.1.1/../../../../../H-x86_64-mingw32/nios2-elf/lib/mno-hw-mul\libm.a(lib_a-wf_log.o)
 .comment       0x000000000000002d       0x2e c:/intelfpga_lite/20.1/nios2eds/bin/gnu/h-x86_64-mingw32/bin/../lib/gcc/nios2-elf/10.1.1/../../../../../H-x86_64-mingw32/nios2-elf/lib/mno-hw-mul\libm.a(lib_a-ef_exp.o)
 .comment       0x000000000000002d       0x2e c:/intelfpga_lite/20.1/nios2eds/bin/gnu/h-x86_64-mingw32/bin/../lib/gcc/nios2-elf/10.1.1/../../../../../H-x86_64-mingw32/nios2-elf/lib/mno-hw-mul\libm.a(lib_a-ef_log.o)
 .comment       0x000000000000002d       0x2e c:/intelfpga_lite/20.1/nios2eds/bin/gnu/h-x86_64-mingw32/bin/../lib/gcc/nios2-elf/10.1.1/../../../../../H-x86_64-mingw32/nios2-elf/lib/mno-hw-mul\libm.a(lib_a-s_lib_ver.o)
 .comment       0x000000000000002d       0x2e c:/intelfpga_lite/20.1/nios2eds/bin/gnu/h-x86_64-mingw32/bin/../lib/gcc/nios2-elf/10.1.1/mno-hw-mul\libgcc.a(_fixunsdfsi.o)
 .comment       0x000000000000002d       0x2e c:/intelfpga_lite/20.1/nios2eds/bin/gnu/h-x86_64-mingw32/bin/../lib/gcc/nios2-elf/10.1.1/mno-hw-mul\libgcc.a(_udivdi3.o)
 .comment       0x000000000000002d       0x2e c:/intelfpga_lite/20.1/nios2eds/bin/gnu/h-x86_64-mingw32/bin/../lib/gcc/nios2-elf/10.1.1/mno-hw-mul\libgcc.a(_umoddi3.o)
 .comment       0x000000000000002d       0x2e c:/intelfpga_lite/20.1/nios2eds/bin/gnu/h-x86_64-mingw32/bin/../lib/gcc/nios2-elf/10.1.1/mno-hw-mul\libgcc.a(lib2-divmod.o)
 .comment       0x000000000000002d       0x2e c:/intelfpga_lite/20.1/nios2eds/bin/gnu/h-x86_64-mingw32/bin/../lib/gcc/nios2-elf/10.1.1/mno-hw-mul\libgcc.a(lib2-mul.o)
 .comment       0x000000000000002d       0x2e c:/intelfpga_lite/20.1/nios2eds/bin/gnu/h-x86_64-mingw32/bin/../lib/gcc/nios2-elf/10.1.1/mno-hw-mul\libgcc.a(addsf3.o)
 .comment       0x000000000000002d       0x2e c:/intelfpga_lite/20.1/nios2eds/bin/gnu/h-x86_64-mingw32/bin/../lib/gcc/nios2-elf/10.1.1/mno-hw-mul\libgcc.a(divsf3.o)
 .comment       0x000000000000002d       0x2e c:/intelfpga_lite/20.1/nios2eds/bin/gnu/h-x86_64-mingw32/bin/../lib/gcc/nios2-elf/10.1.1/mno-hw-mul\libgcc.a(eqsf2.o)
 .comment       0x000000000000002d       0x2e c:/intelfpga_lite/20.1/nios2eds/bin/gnu/h-x86_64-mingw32/bin/../lib/gcc/nios2-elf/10.1.1/mno-hw-mul\libgcc.a(gesf2.o)
 .comment       0x000000000000002d       0x2e c:/intelfpga_lite/20.1/nios2eds/bin/gnu/h-x86_64-mingw32/bin/../lib/gcc/nios2-elf/10.1.1/mno-hw-mul\libgcc.a(lesf2.o)
 .comment       0x000000000000002d       0x2e c:/intelfpga_lite/20.1/nios2eds/bin/gnu/h-x86_64-mingw32/bin/../lib/gcc/nios2-elf/10.1.1/mno-hw-mul\libgcc.a(mulsf3.o)
 .comment       0x000000000000002d       0x2e c:/intelfpga_lite/20.1/nios2eds/bin/gnu/h-x86_64-mingw32/bin/../lib/gcc/nios2-elf/10.1.1/mno-hw-mul\libgcc.a(subsf3.o)
 .comment       0x000000000000002d       0x2e c:/intelfpga_lite/20.1/nios2eds/bin/gnu/h-x86_64-mingw32/bin/../lib/gcc/nios2-elf/10.1.1/mno-hw-mul\libgcc.a(unordsf2.o)
 .comment       0x000000000000002d       0x2e c:/intelfpga_lite/20.1/nios2eds/bin/gnu/h-x86_64-mingw32/bin/../lib/gcc/nios2-elf/10.1.1/mno-hw-mul\libgcc.a(fixsfsi.o)
 .comment       0x000000000000002d       0x2e c:/intelfpga_lite/20.1/nios2eds/bin/gnu/h-x86_64-mingw32/bin/../lib/gcc/nios2-elf/10.1.1/mno-hw-mul\libgcc.a(floatsisf.o)
 .comment       0x000000000000002d       0x2e c:/intelfpga_lite/20.1/nios2eds/bin/gnu/h-x86_64-mingw32/bin/../lib/gcc/nios2-elf/10.1.1/mno-hw-mul\libgcc.a(floatunsisf.o)
 .comment       0x000000000000002d       0x2e c:/intelfpga_lite/20.1/nios2eds/bin/gnu/h-x86_64-mingw32/bin/../lib/gcc/nios2-elf/10.1.1/mno-hw-mul\libgcc.a(adddf3.o)
 .comment       0x000000000000002d       0x2e c:/intelfpga_lite/20.1/nios2eds/bin/gnu/h-x86_64-mingw32/bin/../lib/gcc/nios2-elf/10.1.1/mno-hw-mul\libgcc.a(divdf3.o)
 .comment       0x000000000000002d       0x2e c:/intelfpga_lite/20.1/nios2eds/bin/gnu/h-x86_64-mingw32/bin/../lib/gcc/nios2-elf/10.1.1/mno-hw-mul\libgcc.a(eqdf2.o)
 .comment       0x000000000000002d       0x2e c:/intelfpga_lite/20.1/nios2eds/bin/gnu/h-x86_64-mingw32/bin/../lib/gcc/nios2-elf/10.1.1/mno-hw-mul\libgcc.a(gedf2.o)
 .comment       0x000000000000002d       0x2e c:/intelfpga_lite/20.1/nios2eds/bin/gnu/h-x86_64-mingw32/bin/../lib/gcc/nios2-elf/10.1.1/mno-hw-mul\libgcc.a(ledf2.o)
 .comment       0x000000000000002d       0x2e c:/intelfpga_lite/20.1/nios2eds/bin/gnu/h-x86_64-mingw32/bin/../lib/gcc/nios2-elf/10.1.1/mno-hw-mul\libgcc.a(muldf3.o)
 .comment       0x000000000000002d       0x2e c:/intelfpga_lite/20.1/nios2eds/bin/gnu/h-x86_64-mingw32/bin/../lib/gcc/nios2-elf/10.1.1/mno-hw-mul\libgcc.a(subdf3.o)
 .comment       0x000000000000002d       0x2e c:/intelfpga_lite/20.1/nios2eds/bin/gnu/h-x86_64-mingw32/bin/../lib/gcc/nios2-elf/10.1.1/mno-hw-mul\libgcc.a(fixdfsi.o)
 .comment       0x000000000000002d       0x2e c:/intelfpga_lite/20.1/nios2eds/bin/gnu/h-x86_64-mingw32/bin/../lib/gcc/nios2-elf/10.1.1/mno-hw-mul\libgcc.a(floatsidf.o)
 .comment       0x000000000000002d       0x2e c:/intelfpga_lite/20.1/nios2eds/bin/gnu/h-x86_64-mingw32/bin/../lib/gcc/nios2-elf/10.1.1/mno-hw-mul\libgcc.a(floatunsidf.o)
 .comment       0x000000000000002d       0x2e c:/intelfpga_lite/20.1/nios2eds/bin/gnu/h-x86_64-mingw32/bin/../lib/gcc/nios2-elf/10.1.1/mno-hw-mul\libgcc.a(extendsfdf2.o)
 .comment       0x000000000000002d       0x2e c:/intelfpga_lite/20.1/nios2eds/bin/gnu/h-x86_64-mingw32/bin/../lib/gcc/nios2-elf/10.1.1/mno-hw-mul\libgcc.a(_clz.o)
 .comment       0x000000000000002d       0x2e c:/intelfpga_lite/20.1/nios2eds/bin/gnu/h-x86_64-mingw32/bin/../lib/gcc/nios2-elf/10.1.1/mno-hw-mul\libgcc.a(_clzsi2.o)
 .comment       0x000000000000002d       0x2e c:/intelfpga_lite/20.1/nios2eds/bin/gnu/h-x86_64-mingw32/bin/../lib/gcc/nios2-elf/10.1.1/../../../../../H-x86_64-mingw32/nios2-elf/lib/mno-hw-mul\libc.a(lib_a-errno.o)
 .comment       0x000000000000002d       0x2e c:/intelfpga_lite/20.1/nios2eds/bin/gnu/h-x86_64-mingw32/bin/../lib/gcc/nios2-elf/10.1.1/../../../../../H-x86_64-mingw32/nios2-elf/lib/mno-hw-mul\libc.a(lib_a-impure.o)
 .comment       0x000000000000002d       0x2e c:/intelfpga_lite/20.1/nios2eds/bin/gnu/h-x86_64-mingw32/bin/../lib/gcc/nios2-elf/10.1.1/../../../../../H-x86_64-mingw32/nios2-elf/lib/mno-hw-mul\libc.a(lib_a-memcpy.o)
 .comment       0x000000000000002d       0x2e c:/GitHub/FAccel-CNN/hardware/intel_fpga/development_kits/terasic_de0_nano/quartus_projects/inference_test/20.1/software/bringup_test_bsp/\libhal_bsp.a(alt_load.o)
 .comment       0x000000000000002d       0x2e c:/GitHub/FAccel-CNN/hardware/intel_fpga/development_kits/terasic_de0_nano/quartus_projects/inference_test/20.1/software/bringup_test_bsp/\libhal_bsp.a(alt_main.o)
 .comment       0x000000000000002d       0x2e c:/GitHub/FAccel-CNN/hardware/intel_fpga/development_kits/terasic_de0_nano/quartus_projects/inference_test/20.1/software/bringup_test_bsp/\libhal_bsp.a(alt_printf.o)
 .comment       0x000000000000002d       0x2e c:/GitHub/FAccel-CNN/hardware/intel_fpga/development_kits/terasic_de0_nano/quartus_projects/inference_test/20.1/software/bringup_test_bsp/\libhal_bsp.a(alt_putchar.o)
 .comment       0x000000000000002d       0x2e c:/GitHub/FAccel-CNN/hardware/intel_fpga/development_kits/terasic_de0_nano/quartus_projects/inference_test/20.1/software/bringup_test_bsp/\libhal_bsp.a(alt_sys_init.o)
 .comment       0x000000000000002d       0x2e c:/GitHub/FAccel-CNN/hardware/intel_fpga/development_kits/terasic_de0_nano/quartus_projects/inference_test/20.1/software/bringup_test_bsp/\libhal_bsp.a(altera_avalon_jtag_uart_fd.o)
 .comment       0x000000000000002d       0x2e c:/GitHub/FAccel-CNN/hardware/intel_fpga/development_kits/terasic_de0_nano/quartus_projects/inference_test/20.1/software/bringup_test_bsp/\libhal_bsp.a(altera_avalon_jtag_uart_init.o)
 .comment       0x000000000000002d       0x2e c:/GitHub/FAccel-CNN/hardware/intel_fpga/development_kits/terasic_de0_nano/quartus_projects/inference_test/20.1/software/bringup_test_bsp/\libhal_bsp.a(altera_avalon_jtag_uart_ioctl.o)
 .comment       0x000000000000002d       0x2e c:/GitHub/FAccel-CNN/hardware/intel_fpga/development_kits/terasic_de0_nano/quartus_projects/inference_test/20.1/software/bringup_test_bsp/\libhal_bsp.a(altera_avalon_jtag_uart_read.o)
 .comment       0x000000000000002d       0x2e c:/GitHub/FAccel-CNN/hardware/intel_fpga/development_kits/terasic_de0_nano/quartus_projects/inference_test/20.1/software/bringup_test_bsp/\libhal_bsp.a(altera_avalon_jtag_uart_write.o)
 .comment       0x000000000000002d       0x2e c:/GitHub/FAccel-CNN/hardware/intel_fpga/development_kits/terasic_de0_nano/quartus_projects/inference_test/20.1/software/bringup_test_bsp/\libhal_bsp.a(alt_alarm_start.o)
 .comment       0x000000000000002d       0x2e c:/GitHub/FAccel-CNN/hardware/intel_fpga/development_kits/terasic_de0_nano/quartus_projects/inference_test/20.1/software/bringup_test_bsp/\libhal_bsp.a(alt_close.o)
 .comment       0x000000000000002d       0x2e c:/GitHub/FAccel-CNN/hardware/intel_fpga/development_kits/terasic_de0_nano/quartus_projects/inference_test/20.1/software/bringup_test_bsp/\libhal_bsp.a(alt_dcache_flush_all.o)
 .comment       0x000000000000002d       0x2e c:/GitHub/FAccel-CNN/hardware/intel_fpga/development_kits/terasic_de0_nano/quartus_projects/inference_test/20.1/software/bringup_test_bsp/\libhal_bsp.a(alt_dev.o)
 .comment       0x000000000000002d       0x2e c:/GitHub/FAccel-CNN/hardware/intel_fpga/development_kits/terasic_de0_nano/quartus_projects/inference_test/20.1/software/bringup_test_bsp/\libhal_bsp.a(alt_dev_llist_insert.o)
 .comment       0x000000000000002d       0x2e c:/GitHub/FAccel-CNN/hardware/intel_fpga/development_kits/terasic_de0_nano/quartus_projects/inference_test/20.1/software/bringup_test_bsp/\libhal_bsp.a(alt_do_ctors.o)
 .comment       0x000000000000002d       0x2e c:/GitHub/FAccel-CNN/hardware/intel_fpga/development_kits/terasic_de0_nano/quartus_projects/inference_test/20.1/software/bringup_test_bsp/\libhal_bsp.a(alt_do_dtors.o)
 .comment       0x000000000000002d       0x2e c:/GitHub/FAccel-CNN/hardware/intel_fpga/development_kits/terasic_de0_nano/quartus_projects/inference_test/20.1/software/bringup_test_bsp/\libhal_bsp.a(alt_errno.o)
 .comment       0x000000000000002d       0x2e c:/GitHub/FAccel-CNN/hardware/intel_fpga/development_kits/terasic_de0_nano/quartus_projects/inference_test/20.1/software/bringup_test_bsp/\libhal_bsp.a(alt_icache_flush_all.o)
 .comment       0x000000000000002d       0x2e c:/GitHub/FAccel-CNN/hardware/intel_fpga/development_kits/terasic_de0_nano/quartus_projects/inference_test/20.1/software/bringup_test_bsp/\libhal_bsp.a(alt_iic.o)
 .comment       0x000000000000002d       0x2e c:/GitHub/FAccel-CNN/hardware/intel_fpga/development_kits/terasic_de0_nano/quartus_projects/inference_test/20.1/software/bringup_test_bsp/\libhal_bsp.a(alt_iic_isr_register.o)
 .comment       0x000000000000002d       0x2e c:/GitHub/FAccel-CNN/hardware/intel_fpga/development_kits/terasic_de0_nano/quartus_projects/inference_test/20.1/software/bringup_test_bsp/\libhal_bsp.a(alt_io_redirect.o)
 .comment       0x000000000000002d       0x2e c:/GitHub/FAccel-CNN/hardware/intel_fpga/development_kits/terasic_de0_nano/quartus_projects/inference_test/20.1/software/bringup_test_bsp/\libhal_bsp.a(alt_irq_handler.o)
 .comment       0x000000000000002d       0x2e c:/GitHub/FAccel-CNN/hardware/intel_fpga/development_kits/terasic_de0_nano/quartus_projects/inference_test/20.1/software/bringup_test_bsp/\libhal_bsp.a(alt_irq_vars.o)
 .comment       0x000000000000002d       0x2e c:/GitHub/FAccel-CNN/hardware/intel_fpga/development_kits/terasic_de0_nano/quartus_projects/inference_test/20.1/software/bringup_test_bsp/\libhal_bsp.a(alt_open.o)
 .comment       0x000000000000002d       0x2e c:/GitHub/FAccel-CNN/hardware/intel_fpga/development_kits/terasic_de0_nano/quartus_projects/inference_test/20.1/software/bringup_test_bsp/\libhal_bsp.a(alt_release_fd.o)
 .comment       0x000000000000002d       0x2e c:/GitHub/FAccel-CNN/hardware/intel_fpga/development_kits/terasic_de0_nano/quartus_projects/inference_test/20.1/software/bringup_test_bsp/\libhal_bsp.a(alt_tick.o)
 .comment       0x000000000000002d       0x2e c:/GitHub/FAccel-CNN/hardware/intel_fpga/development_kits/terasic_de0_nano/quartus_projects/inference_test/20.1/software/bringup_test_bsp/\libhal_bsp.a(altera_nios2_gen2_irq.o)
 .comment       0x000000000000002d       0x2e c:/GitHub/FAccel-CNN/hardware/intel_fpga/development_kits/terasic_de0_nano/quartus_projects/inference_test/20.1/software/bringup_test_bsp/\libhal_bsp.a(alt_find_dev.o)
 .comment       0x000000000000002d       0x2e c:/GitHub/FAccel-CNN/hardware/intel_fpga/development_kits/terasic_de0_nano/quartus_projects/inference_test/20.1/software/bringup_test_bsp/\libhal_bsp.a(alt_find_file.o)
 .comment       0x000000000000002d       0x2e c:/GitHub/FAccel-CNN/hardware/intel_fpga/development_kits/terasic_de0_nano/quartus_projects/inference_test/20.1/software/bringup_test_bsp/\libhal_bsp.a(alt_get_fd.o)
 .comment       0x000000000000002d       0x2e c:/GitHub/FAccel-CNN/hardware/intel_fpga/development_kits/terasic_de0_nano/quartus_projects/inference_test/20.1/software/bringup_test_bsp/\libhal_bsp.a(alt_instruction_exception_entry.o)
 .comment       0x000000000000002d       0x2e c:/intelfpga_lite/20.1/nios2eds/bin/gnu/h-x86_64-mingw32/bin/../lib/gcc/nios2-elf/10.1.1/../../../../../H-x86_64-mingw32/nios2-elf/lib/mno-hw-mul\libc.a(lib_a-atexit.o)
 .comment       0x000000000000002d       0x2e c:/intelfpga_lite/20.1/nios2eds/bin/gnu/h-x86_64-mingw32/bin/../lib/gcc/nios2-elf/10.1.1/../../../../../H-x86_64-mingw32/nios2-elf/lib/mno-hw-mul\libc.a(lib_a-exit.o)
 .comment       0x000000000000002d       0x2e c:/intelfpga_lite/20.1/nios2eds/bin/gnu/h-x86_64-mingw32/bin/../lib/gcc/nios2-elf/10.1.1/../../../../../H-x86_64-mingw32/nios2-elf/lib/mno-hw-mul\libc.a(lib_a-int_errno.o)
 .comment       0x000000000000002d       0x2e c:/intelfpga_lite/20.1/nios2eds/bin/gnu/h-x86_64-mingw32/bin/../lib/gcc/nios2-elf/10.1.1/../../../../../H-x86_64-mingw32/nios2-elf/lib/mno-hw-mul\libc.a(lib_a-memcmp.o)
 .comment       0x000000000000002d       0x2e c:/intelfpga_lite/20.1/nios2eds/bin/gnu/h-x86_64-mingw32/bin/../lib/gcc/nios2-elf/10.1.1/../../../../../H-x86_64-mingw32/nios2-elf/lib/mno-hw-mul\libc.a(lib_a-putchar.o)
 .comment       0x000000000000002d       0x2e c:/intelfpga_lite/20.1/nios2eds/bin/gnu/h-x86_64-mingw32/bin/../lib/gcc/nios2-elf/10.1.1/../../../../../H-x86_64-mingw32/nios2-elf/lib/mno-hw-mul\libc.a(lib_a-strlen.o)
 .comment       0x000000000000002d       0x2e c:/intelfpga_lite/20.1/nios2eds/bin/gnu/h-x86_64-mingw32/bin/../lib/gcc/nios2-elf/10.1.1/../../../../../H-x86_64-mingw32/nios2-elf/lib/mno-hw-mul\libc.a(lib_a-__atexit.o)
 .comment       0x000000000000002d       0x2e c:/intelfpga_lite/20.1/nios2eds/bin/gnu/h-x86_64-mingw32/bin/../lib/gcc/nios2-elf/10.1.1/../../../../../H-x86_64-mingw32/nios2-elf/lib/mno-hw-mul\libc.a(lib_a-__call_atexit.o)
 .comment       0x000000000000002d       0x2e c:/intelfpga_lite/20.1/nios2eds/bin/gnu/h-x86_64-mingw32/bin/../lib/gcc/nios2-elf/10.1.1/../../../../../H-x86_64-mingw32/nios2-elf/lib/mno-hw-mul\libc.a(lib_a-putc.o)
 .comment       0x000000000000002d       0x2e c:/intelfpga_lite/20.1/nios2eds/bin/gnu/h-x86_64-mingw32/bin/../lib/gcc/nios2-elf/10.1.1/../../../../../H-x86_64-mingw32/nios2-elf/lib/mno-hw-mul\libc.a(lib_a-wbuf.o)
 .comment       0x000000000000002d       0x2e c:/intelfpga_lite/20.1/nios2eds/bin/gnu/h-x86_64-mingw32/bin/../lib/gcc/nios2-elf/10.1.1/../../../../../H-x86_64-mingw32/nios2-elf/lib/mno-hw-mul\libc.a(lib_a-wsetup.o)
 .comment       0x000000000000002d       0x2e c:/intelfpga_lite/20.1/nios2eds/bin/gnu/h-x86_64-mingw32/bin/../lib/gcc/nios2-elf/10.1.1/../../../../../H-x86_64-mingw32/nios2-elf/lib/mno-hw-mul\libc.a(lib_a-fflush.o)
 .comment       0x000000000000002d       0x2e c:/intelfpga_lite/20.1/nios2eds/bin/gnu/h-x86_64-mingw32/bin/../lib/gcc/nios2-elf/10.1.1/../../../../../H-x86_64-mingw32/nios2-elf/lib/mno-hw-mul\libc.a(lib_a-findfp.o)
 .comment       0x000000000000002d       0x2e c:/intelfpga_lite/20.1/nios2eds/bin/gnu/h-x86_64-mingw32/bin/../lib/gcc/nios2-elf/10.1.1/../../../../../H-x86_64-mingw32/nios2-elf/lib/mno-hw-mul\libc.a(lib_a-freer.o)
 .comment       0x000000000000002d       0x2e c:/intelfpga_lite/20.1/nios2eds/bin/gnu/h-x86_64-mingw32/bin/../lib/gcc/nios2-elf/10.1.1/../../../../../H-x86_64-mingw32/nios2-elf/lib/mno-hw-mul\libc.a(lib_a-fwalk.o)
 .comment       0x000000000000002d       0x2e c:/intelfpga_lite/20.1/nios2eds/bin/gnu/h-x86_64-mingw32/bin/../lib/gcc/nios2-elf/10.1.1/../../../../../H-x86_64-mingw32/nios2-elf/lib/mno-hw-mul\libc.a(lib_a-makebuf.o)
 .comment       0x000000000000002d       0x2e c:/intelfpga_lite/20.1/nios2eds/bin/gnu/h-x86_64-mingw32/bin/../lib/gcc/nios2-elf/10.1.1/../../../../../H-x86_64-mingw32/nios2-elf/lib/mno-hw-mul\libc.a(lib_a-mallocr.o)
 .comment       0x000000000000002d       0x2e c:/intelfpga_lite/20.1/nios2eds/bin/gnu/h-x86_64-mingw32/bin/../lib/gcc/nios2-elf/10.1.1/../../../../../H-x86_64-mingw32/nios2-elf/lib/mno-hw-mul\libc.a(lib_a-memset.o)
 .comment       0x000000000000002d       0x2e c:/intelfpga_lite/20.1/nios2eds/bin/gnu/h-x86_64-mingw32/bin/../lib/gcc/nios2-elf/10.1.1/../../../../../H-x86_64-mingw32/nios2-elf/lib/mno-hw-mul\libc.a(lib_a-sbrkr.o)
 .comment       0x000000000000002d       0x2e c:/intelfpga_lite/20.1/nios2eds/bin/gnu/h-x86_64-mingw32/bin/../lib/gcc/nios2-elf/10.1.1/../../../../../H-x86_64-mingw32/nios2-elf/lib/mno-hw-mul\libc.a(lib_a-stdio.o)
 .comment       0x000000000000002d       0x2e c:/intelfpga_lite/20.1/nios2eds/bin/gnu/h-x86_64-mingw32/bin/../lib/gcc/nios2-elf/10.1.1/../../../../../H-x86_64-mingw32/nios2-elf/lib/mno-hw-mul\libc.a(lib_a-writer.o)
 .comment       0x000000000000002d       0x2e c:/intelfpga_lite/20.1/nios2eds/bin/gnu/h-x86_64-mingw32/bin/../lib/gcc/nios2-elf/10.1.1/../../../../../H-x86_64-mingw32/nios2-elf/lib/mno-hw-mul\libc.a(closer.o)
 .comment       0x000000000000002d       0x2e c:/intelfpga_lite/20.1/nios2eds/bin/gnu/h-x86_64-mingw32/bin/../lib/gcc/nios2-elf/10.1.1/../../../../../H-x86_64-mingw32/nios2-elf/lib/mno-hw-mul\libc.a(lib_a-fclose.o)
 .comment       0x000000000000002d       0x2e c:/intelfpga_lite/20.1/nios2eds/bin/gnu/h-x86_64-mingw32/bin/../lib/gcc/nios2-elf/10.1.1/../../../../../H-x86_64-mingw32/nios2-elf/lib/mno-hw-mul\libc.a(lib_a-fstatr.o)
 .comment       0x000000000000002d       0x2e c:/intelfpga_lite/20.1/nios2eds/bin/gnu/h-x86_64-mingw32/bin/../lib/gcc/nios2-elf/10.1.1/../../../../../H-x86_64-mingw32/nios2-elf/lib/mno-hw-mul\libc.a(lib_a-isattyr.o)
 .comment       0x000000000000002d       0x2e c:/intelfpga_lite/20.1/nios2eds/bin/gnu/h-x86_64-mingw32/bin/../lib/gcc/nios2-elf/10.1.1/../../../../../H-x86_64-mingw32/nios2-elf/lib/mno-hw-mul\libc.a(lib_a-lseekr.o)
 .comment       0x000000000000002d       0x2e c:/intelfpga_lite/20.1/nios2eds/bin/gnu/h-x86_64-mingw32/bin/../lib/gcc/nios2-elf/10.1.1/../../../../../H-x86_64-mingw32/nios2-elf/lib/mno-hw-mul\libc.a(lib_a-readr.o)
 .comment       0x000000000000002d       0x2e c:/GitHub/FAccel-CNN/hardware/intel_fpga/development_kits/terasic_de0_nano/quartus_projects/inference_test/20.1/software/bringup_test_bsp/\libhal_bsp.a(alt_exit.o)
 .comment       0x000000000000002d       0x2e c:/GitHub/FAccel-CNN/hardware/intel_fpga/development_kits/terasic_de0_nano/quartus_projects/inference_test/20.1/software/bringup_test_bsp/\libhal_bsp.a(alt_fstat.o)
 .comment       0x000000000000002d       0x2e c:/GitHub/FAccel-CNN/hardware/intel_fpga/development_kits/terasic_de0_nano/quartus_projects/inference_test/20.1/software/bringup_test_bsp/\libhal_bsp.a(alt_isatty.o)
 .comment       0x000000000000002d       0x2e c:/GitHub/FAccel-CNN/hardware/intel_fpga/development_kits/terasic_de0_nano/quartus_projects/inference_test/20.1/software/bringup_test_bsp/\libhal_bsp.a(alt_lseek.o)
 .comment       0x000000000000002d       0x2e c:/GitHub/FAccel-CNN/hardware/intel_fpga/development_kits/terasic_de0_nano/quartus_projects/inference_test/20.1/software/bringup_test_bsp/\libhal_bsp.a(alt_malloc_lock.o)
 .comment       0x000000000000002d       0x2e c:/GitHub/FAccel-CNN/hardware/intel_fpga/development_kits/terasic_de0_nano/quartus_projects/inference_test/20.1/software/bringup_test_bsp/\libhal_bsp.a(alt_read.o)
 .comment       0x000000000000002d       0x2e c:/GitHub/FAccel-CNN/hardware/intel_fpga/development_kits/terasic_de0_nano/quartus_projects/inference_test/20.1/software/bringup_test_bsp/\libhal_bsp.a(alt_sbrk.o)
 .comment       0x000000000000002d       0x2e c:/GitHub/FAccel-CNN/hardware/intel_fpga/development_kits/terasic_de0_nano/quartus_projects/inference_test/20.1/software/bringup_test_bsp/\libhal_bsp.a(alt_write.o)

.debug
 *(.debug)

.line
 *(.line)

.debug_srcinfo
 *(.debug_srcinfo)

.debug_sfnames
 *(.debug_sfnames)

.debug_aranges  0x0000000000000000      0xe60
 *(.debug_aranges)
 .debug_aranges
                0x0000000000000000       0x28 c:/GitHub/FAccel-CNN/hardware/intel_fpga/development_kits/terasic_de0_nano/quartus_projects/inference_test/20.1/software/bringup_test_bsp//obj/HAL/src/crt0.o
 .debug_aranges
                0x0000000000000028       0x20 obj/default/bringup_test.o
 .debug_aranges
                0x0000000000000048       0x20 obj/default/printf.o
 .debug_aranges
                0x0000000000000068       0x20 c:/intelfpga_lite/20.1/nios2eds/bin/gnu/h-x86_64-mingw32/bin/../lib/gcc/nios2-elf/10.1.1/../../../../../H-x86_64-mingw32/nios2-elf/lib/mno-hw-mul\libm.a(lib_a-wf_exp.o)
 .debug_aranges
                0x0000000000000088       0x20 c:/intelfpga_lite/20.1/nios2eds/bin/gnu/h-x86_64-mingw32/bin/../lib/gcc/nios2-elf/10.1.1/../../../../../H-x86_64-mingw32/nios2-elf/lib/mno-hw-mul\libm.a(lib_a-wf_log.o)
 .debug_aranges
                0x00000000000000a8       0x20 c:/intelfpga_lite/20.1/nios2eds/bin/gnu/h-x86_64-mingw32/bin/../lib/gcc/nios2-elf/10.1.1/../../../../../H-x86_64-mingw32/nios2-elf/lib/mno-hw-mul\libm.a(lib_a-ef_exp.o)
 .debug_aranges
                0x00000000000000c8       0x20 c:/intelfpga_lite/20.1/nios2eds/bin/gnu/h-x86_64-mingw32/bin/../lib/gcc/nios2-elf/10.1.1/../../../../../H-x86_64-mingw32/nios2-elf/lib/mno-hw-mul\libm.a(lib_a-ef_log.o)
 .debug_aranges
                0x00000000000000e8       0x18 c:/intelfpga_lite/20.1/nios2eds/bin/gnu/h-x86_64-mingw32/bin/../lib/gcc/nios2-elf/10.1.1/../../../../../H-x86_64-mingw32/nios2-elf/lib/mno-hw-mul\libm.a(lib_a-s_lib_ver.o)
 .debug_aranges
                0x0000000000000100       0x20 c:/intelfpga_lite/20.1/nios2eds/bin/gnu/h-x86_64-mingw32/bin/../lib/gcc/nios2-elf/10.1.1/mno-hw-mul\libgcc.a(_fixunsdfsi.o)
 .debug_aranges
                0x0000000000000120       0x20 c:/intelfpga_lite/20.1/nios2eds/bin/gnu/h-x86_64-mingw32/bin/../lib/gcc/nios2-elf/10.1.1/mno-hw-mul\libgcc.a(_udivdi3.o)
 .debug_aranges
                0x0000000000000140       0x20 c:/intelfpga_lite/20.1/nios2eds/bin/gnu/h-x86_64-mingw32/bin/../lib/gcc/nios2-elf/10.1.1/mno-hw-mul\libgcc.a(_umoddi3.o)
 .debug_aranges
                0x0000000000000160       0x20 c:/intelfpga_lite/20.1/nios2eds/bin/gnu/h-x86_64-mingw32/bin/../lib/gcc/nios2-elf/10.1.1/mno-hw-mul\libgcc.a(lib2-divmod.o)
 .debug_aranges
                0x0000000000000180       0x20 c:/intelfpga_lite/20.1/nios2eds/bin/gnu/h-x86_64-mingw32/bin/../lib/gcc/nios2-elf/10.1.1/mno-hw-mul\libgcc.a(lib2-mul.o)
 .debug_aranges
                0x00000000000001a0       0x20 c:/intelfpga_lite/20.1/nios2eds/bin/gnu/h-x86_64-mingw32/bin/../lib/gcc/nios2-elf/10.1.1/mno-hw-mul\libgcc.a(addsf3.o)
 .debug_aranges
                0x00000000000001c0       0x20 c:/intelfpga_lite/20.1/nios2eds/bin/gnu/h-x86_64-mingw32/bin/../lib/gcc/nios2-elf/10.1.1/mno-hw-mul\libgcc.a(divsf3.o)
 .debug_aranges
                0x00000000000001e0       0x20 c:/intelfpga_lite/20.1/nios2eds/bin/gnu/h-x86_64-mingw32/bin/../lib/gcc/nios2-elf/10.1.1/mno-hw-mul\libgcc.a(eqsf2.o)
 .debug_aranges
                0x0000000000000200       0x20 c:/intelfpga_lite/20.1/nios2eds/bin/gnu/h-x86_64-mingw32/bin/../lib/gcc/nios2-elf/10.1.1/mno-hw-mul\libgcc.a(gesf2.o)
 .debug_aranges
                0x0000000000000220       0x20 c:/intelfpga_lite/20.1/nios2eds/bin/gnu/h-x86_64-mingw32/bin/../lib/gcc/nios2-elf/10.1.1/mno-hw-mul\libgcc.a(lesf2.o)
 .debug_aranges
                0x0000000000000240       0x20 c:/intelfpga_lite/20.1/nios2eds/bin/gnu/h-x86_64-mingw32/bin/../lib/gcc/nios2-elf/10.1.1/mno-hw-mul\libgcc.a(mulsf3.o)
 .debug_aranges
                0x0000000000000260       0x20 c:/intelfpga_lite/20.1/nios2eds/bin/gnu/h-x86_64-mingw32/bin/../lib/gcc/nios2-elf/10.1.1/mno-hw-mul\libgcc.a(subsf3.o)
 .debug_aranges
                0x0000000000000280       0x20 c:/intelfpga_lite/20.1/nios2eds/bin/gnu/h-x86_64-mingw32/bin/../lib/gcc/nios2-elf/10.1.1/mno-hw-mul\libgcc.a(unordsf2.o)
 .debug_aranges
                0x00000000000002a0       0x20 c:/intelfpga_lite/20.1/nios2eds/bin/gnu/h-x86_64-mingw32/bin/../lib/gcc/nios2-elf/10.1.1/mno-hw-mul\libgcc.a(fixsfsi.o)
 .debug_aranges
                0x00000000000002c0       0x20 c:/intelfpga_lite/20.1/nios2eds/bin/gnu/h-x86_64-mingw32/bin/../lib/gcc/nios2-elf/10.1.1/mno-hw-mul\libgcc.a(floatsisf.o)
 .debug_aranges
                0x00000000000002e0       0x20 c:/intelfpga_lite/20.1/nios2eds/bin/gnu/h-x86_64-mingw32/bin/../lib/gcc/nios2-elf/10.1.1/mno-hw-mul\libgcc.a(floatunsisf.o)
 .debug_aranges
                0x0000000000000300       0x20 c:/intelfpga_lite/20.1/nios2eds/bin/gnu/h-x86_64-mingw32/bin/../lib/gcc/nios2-elf/10.1.1/mno-hw-mul\libgcc.a(adddf3.o)
 .debug_aranges
                0x0000000000000320       0x20 c:/intelfpga_lite/20.1/nios2eds/bin/gnu/h-x86_64-mingw32/bin/../lib/gcc/nios2-elf/10.1.1/mno-hw-mul\libgcc.a(divdf3.o)
 .debug_aranges
                0x0000000000000340       0x20 c:/intelfpga_lite/20.1/nios2eds/bin/gnu/h-x86_64-mingw32/bin/../lib/gcc/nios2-elf/10.1.1/mno-hw-mul\libgcc.a(eqdf2.o)
 .debug_aranges
                0x0000000000000360       0x20 c:/intelfpga_lite/20.1/nios2eds/bin/gnu/h-x86_64-mingw32/bin/../lib/gcc/nios2-elf/10.1.1/mno-hw-mul\libgcc.a(gedf2.o)
 .debug_aranges
                0x0000000000000380       0x20 c:/intelfpga_lite/20.1/nios2eds/bin/gnu/h-x86_64-mingw32/bin/../lib/gcc/nios2-elf/10.1.1/mno-hw-mul\libgcc.a(ledf2.o)
 .debug_aranges
                0x00000000000003a0       0x20 c:/intelfpga_lite/20.1/nios2eds/bin/gnu/h-x86_64-mingw32/bin/../lib/gcc/nios2-elf/10.1.1/mno-hw-mul\libgcc.a(muldf3.o)
 .debug_aranges
                0x00000000000003c0       0x20 c:/intelfpga_lite/20.1/nios2eds/bin/gnu/h-x86_64-mingw32/bin/../lib/gcc/nios2-elf/10.1.1/mno-hw-mul\libgcc.a(subdf3.o)
 .debug_aranges
                0x00000000000003e0       0x20 c:/intelfpga_lite/20.1/nios2eds/bin/gnu/h-x86_64-mingw32/bin/../lib/gcc/nios2-elf/10.1.1/mno-hw-mul\libgcc.a(fixdfsi.o)
 .debug_aranges
                0x0000000000000400       0x20 c:/intelfpga_lite/20.1/nios2eds/bin/gnu/h-x86_64-mingw32/bin/../lib/gcc/nios2-elf/10.1.1/mno-hw-mul\libgcc.a(floatsidf.o)
 .debug_aranges
                0x0000000000000420       0x20 c:/intelfpga_lite/20.1/nios2eds/bin/gnu/h-x86_64-mingw32/bin/../lib/gcc/nios2-elf/10.1.1/mno-hw-mul\libgcc.a(floatunsidf.o)
 .debug_aranges
                0x0000000000000440       0x20 c:/intelfpga_lite/20.1/nios2eds/bin/gnu/h-x86_64-mingw32/bin/../lib/gcc/nios2-elf/10.1.1/mno-hw-mul\libgcc.a(extendsfdf2.o)
 .debug_aranges
                0x0000000000000460       0x18 c:/intelfpga_lite/20.1/nios2eds/bin/gnu/h-x86_64-mingw32/bin/../lib/gcc/nios2-elf/10.1.1/mno-hw-mul\libgcc.a(_clz.o)
 .debug_aranges
                0x0000000000000478       0x20 c:/intelfpga_lite/20.1/nios2eds/bin/gnu/h-x86_64-mingw32/bin/../lib/gcc/nios2-elf/10.1.1/mno-hw-mul\libgcc.a(_clzsi2.o)
 .debug_aranges
                0x0000000000000498       0x20 c:/intelfpga_lite/20.1/nios2eds/bin/gnu/h-x86_64-mingw32/bin/../lib/gcc/nios2-elf/10.1.1/../../../../../H-x86_64-mingw32/nios2-elf/lib/mno-hw-mul\libc.a(lib_a-errno.o)
 .debug_aranges
                0x00000000000004b8       0x18 c:/intelfpga_lite/20.1/nios2eds/bin/gnu/h-x86_64-mingw32/bin/../lib/gcc/nios2-elf/10.1.1/../../../../../H-x86_64-mingw32/nios2-elf/lib/mno-hw-mul\libc.a(lib_a-impure.o)
 .debug_aranges
                0x00000000000004d0       0x20 c:/intelfpga_lite/20.1/nios2eds/bin/gnu/h-x86_64-mingw32/bin/../lib/gcc/nios2-elf/10.1.1/../../../../../H-x86_64-mingw32/nios2-elf/lib/mno-hw-mul\libc.a(lib_a-memcpy.o)
 .debug_aranges
                0x00000000000004f0       0x20 c:/GitHub/FAccel-CNN/hardware/intel_fpga/development_kits/terasic_de0_nano/quartus_projects/inference_test/20.1/software/bringup_test_bsp/\libhal_bsp.a(alt_load.o)
 .debug_aranges
                0x0000000000000510       0x20 c:/GitHub/FAccel-CNN/hardware/intel_fpga/development_kits/terasic_de0_nano/quartus_projects/inference_test/20.1/software/bringup_test_bsp/\libhal_bsp.a(alt_main.o)
 .debug_aranges
                0x0000000000000530       0x20 c:/GitHub/FAccel-CNN/hardware/intel_fpga/development_kits/terasic_de0_nano/quartus_projects/inference_test/20.1/software/bringup_test_bsp/\libhal_bsp.a(alt_printf.o)
 .debug_aranges
                0x0000000000000550       0x20 c:/GitHub/FAccel-CNN/hardware/intel_fpga/development_kits/terasic_de0_nano/quartus_projects/inference_test/20.1/software/bringup_test_bsp/\libhal_bsp.a(alt_putchar.o)
 .debug_aranges
                0x0000000000000570       0x20 c:/GitHub/FAccel-CNN/hardware/intel_fpga/development_kits/terasic_de0_nano/quartus_projects/inference_test/20.1/software/bringup_test_bsp/\libhal_bsp.a(alt_sys_init.o)
 .debug_aranges
                0x0000000000000590       0x20 c:/GitHub/FAccel-CNN/hardware/intel_fpga/development_kits/terasic_de0_nano/quartus_projects/inference_test/20.1/software/bringup_test_bsp/\libhal_bsp.a(altera_avalon_jtag_uart_fd.o)
 .debug_aranges
                0x00000000000005b0       0x20 c:/GitHub/FAccel-CNN/hardware/intel_fpga/development_kits/terasic_de0_nano/quartus_projects/inference_test/20.1/software/bringup_test_bsp/\libhal_bsp.a(altera_avalon_jtag_uart_init.o)
 .debug_aranges
                0x00000000000005d0       0x20 c:/GitHub/FAccel-CNN/hardware/intel_fpga/development_kits/terasic_de0_nano/quartus_projects/inference_test/20.1/software/bringup_test_bsp/\libhal_bsp.a(altera_avalon_jtag_uart_ioctl.o)
 .debug_aranges
                0x00000000000005f0       0x20 c:/GitHub/FAccel-CNN/hardware/intel_fpga/development_kits/terasic_de0_nano/quartus_projects/inference_test/20.1/software/bringup_test_bsp/\libhal_bsp.a(altera_avalon_jtag_uart_read.o)
 .debug_aranges
                0x0000000000000610       0x20 c:/GitHub/FAccel-CNN/hardware/intel_fpga/development_kits/terasic_de0_nano/quartus_projects/inference_test/20.1/software/bringup_test_bsp/\libhal_bsp.a(altera_avalon_jtag_uart_write.o)
 .debug_aranges
                0x0000000000000630       0x20 c:/GitHub/FAccel-CNN/hardware/intel_fpga/development_kits/terasic_de0_nano/quartus_projects/inference_test/20.1/software/bringup_test_bsp/\libhal_bsp.a(alt_alarm_start.o)
 .debug_aranges
                0x0000000000000650       0x20 c:/GitHub/FAccel-CNN/hardware/intel_fpga/development_kits/terasic_de0_nano/quartus_projects/inference_test/20.1/software/bringup_test_bsp/\libhal_bsp.a(alt_close.o)
 .debug_aranges
                0x0000000000000670       0x20 c:/GitHub/FAccel-CNN/hardware/intel_fpga/development_kits/terasic_de0_nano/quartus_projects/inference_test/20.1/software/bringup_test_bsp/\libhal_bsp.a(alt_dcache_flush_all.o)
 .debug_aranges
                0x0000000000000690       0x20 c:/GitHub/FAccel-CNN/hardware/intel_fpga/development_kits/terasic_de0_nano/quartus_projects/inference_test/20.1/software/bringup_test_bsp/\libhal_bsp.a(alt_dev.o)
 .debug_aranges
                0x00000000000006b0       0x20 c:/GitHub/FAccel-CNN/hardware/intel_fpga/development_kits/terasic_de0_nano/quartus_projects/inference_test/20.1/software/bringup_test_bsp/\libhal_bsp.a(alt_dev_llist_insert.o)
 .debug_aranges
                0x00000000000006d0       0x20 c:/GitHub/FAccel-CNN/hardware/intel_fpga/development_kits/terasic_de0_nano/quartus_projects/inference_test/20.1/software/bringup_test_bsp/\libhal_bsp.a(alt_do_ctors.o)
 .debug_aranges
                0x00000000000006f0       0x20 c:/GitHub/FAccel-CNN/hardware/intel_fpga/development_kits/terasic_de0_nano/quartus_projects/inference_test/20.1/software/bringup_test_bsp/\libhal_bsp.a(alt_do_dtors.o)
 .debug_aranges
                0x0000000000000710       0x18 c:/GitHub/FAccel-CNN/hardware/intel_fpga/development_kits/terasic_de0_nano/quartus_projects/inference_test/20.1/software/bringup_test_bsp/\libhal_bsp.a(alt_errno.o)
 .debug_aranges
                0x0000000000000728       0x20 c:/GitHub/FAccel-CNN/hardware/intel_fpga/development_kits/terasic_de0_nano/quartus_projects/inference_test/20.1/software/bringup_test_bsp/\libhal_bsp.a(alt_icache_flush_all.o)
 .debug_aranges
                0x0000000000000748       0x20 c:/GitHub/FAccel-CNN/hardware/intel_fpga/development_kits/terasic_de0_nano/quartus_projects/inference_test/20.1/software/bringup_test_bsp/\libhal_bsp.a(alt_iic.o)
 .debug_aranges
                0x0000000000000768       0x20 c:/GitHub/FAccel-CNN/hardware/intel_fpga/development_kits/terasic_de0_nano/quartus_projects/inference_test/20.1/software/bringup_test_bsp/\libhal_bsp.a(alt_iic_isr_register.o)
 .debug_aranges
                0x0000000000000788       0x20 c:/GitHub/FAccel-CNN/hardware/intel_fpga/development_kits/terasic_de0_nano/quartus_projects/inference_test/20.1/software/bringup_test_bsp/\libhal_bsp.a(alt_io_redirect.o)
 .debug_aranges
                0x00000000000007a8       0x30 c:/GitHub/FAccel-CNN/hardware/intel_fpga/development_kits/terasic_de0_nano/quartus_projects/inference_test/20.1/software/bringup_test_bsp/\libhal_bsp.a(alt_irq_entry.o)
 .debug_aranges
                0x00000000000007d8       0x20 c:/GitHub/FAccel-CNN/hardware/intel_fpga/development_kits/terasic_de0_nano/quartus_projects/inference_test/20.1/software/bringup_test_bsp/\libhal_bsp.a(alt_irq_handler.o)
 .debug_aranges
                0x00000000000007f8       0x18 c:/GitHub/FAccel-CNN/hardware/intel_fpga/development_kits/terasic_de0_nano/quartus_projects/inference_test/20.1/software/bringup_test_bsp/\libhal_bsp.a(alt_irq_vars.o)
 .debug_aranges
                0x0000000000000810       0x20 c:/GitHub/FAccel-CNN/hardware/intel_fpga/development_kits/terasic_de0_nano/quartus_projects/inference_test/20.1/software/bringup_test_bsp/\libhal_bsp.a(alt_open.o)
 .debug_aranges
                0x0000000000000830       0x20 c:/GitHub/FAccel-CNN/hardware/intel_fpga/development_kits/terasic_de0_nano/quartus_projects/inference_test/20.1/software/bringup_test_bsp/\libhal_bsp.a(alt_release_fd.o)
 .debug_aranges
                0x0000000000000850       0x20 c:/GitHub/FAccel-CNN/hardware/intel_fpga/development_kits/terasic_de0_nano/quartus_projects/inference_test/20.1/software/bringup_test_bsp/\libhal_bsp.a(alt_tick.o)
 .debug_aranges
                0x0000000000000870       0x20 c:/GitHub/FAccel-CNN/hardware/intel_fpga/development_kits/terasic_de0_nano/quartus_projects/inference_test/20.1/software/bringup_test_bsp/\libhal_bsp.a(altera_nios2_gen2_irq.o)
 .debug_aranges
                0x0000000000000890       0x38 c:/GitHub/FAccel-CNN/hardware/intel_fpga/development_kits/terasic_de0_nano/quartus_projects/inference_test/20.1/software/bringup_test_bsp/\libhal_bsp.a(alt_exception_entry.o)
 .debug_aranges
                0x00000000000008c8       0x20 c:/GitHub/FAccel-CNN/hardware/intel_fpga/development_kits/terasic_de0_nano/quartus_projects/inference_test/20.1/software/bringup_test_bsp/\libhal_bsp.a(alt_find_dev.o)
 .debug_aranges
                0x00000000000008e8       0x20 c:/GitHub/FAccel-CNN/hardware/intel_fpga/development_kits/terasic_de0_nano/quartus_projects/inference_test/20.1/software/bringup_test_bsp/\libhal_bsp.a(alt_find_file.o)
 .debug_aranges
                0x0000000000000908       0x20 c:/GitHub/FAccel-CNN/hardware/intel_fpga/development_kits/terasic_de0_nano/quartus_projects/inference_test/20.1/software/bringup_test_bsp/\libhal_bsp.a(alt_get_fd.o)
 .debug_aranges
                0x0000000000000928       0x28 c:/GitHub/FAccel-CNN/hardware/intel_fpga/development_kits/terasic_de0_nano/quartus_projects/inference_test/20.1/software/bringup_test_bsp/\libhal_bsp.a(alt_instruction_exception_entry.o)
 .debug_aranges
                0x0000000000000950       0x20 c:/intelfpga_lite/20.1/nios2eds/bin/gnu/h-x86_64-mingw32/bin/../lib/gcc/nios2-elf/10.1.1/../../../../../H-x86_64-mingw32/nios2-elf/lib/mno-hw-mul\libc.a(lib_a-atexit.o)
 .debug_aranges
                0x0000000000000970       0x20 c:/intelfpga_lite/20.1/nios2eds/bin/gnu/h-x86_64-mingw32/bin/../lib/gcc/nios2-elf/10.1.1/../../../../../H-x86_64-mingw32/nios2-elf/lib/mno-hw-mul\libc.a(lib_a-exit.o)
 .debug_aranges
                0x0000000000000990       0x18 c:/intelfpga_lite/20.1/nios2eds/bin/gnu/h-x86_64-mingw32/bin/../lib/gcc/nios2-elf/10.1.1/../../../../../H-x86_64-mingw32/nios2-elf/lib/mno-hw-mul\libc.a(lib_a-int_errno.o)
 .debug_aranges
                0x00000000000009a8       0x20 c:/intelfpga_lite/20.1/nios2eds/bin/gnu/h-x86_64-mingw32/bin/../lib/gcc/nios2-elf/10.1.1/../../../../../H-x86_64-mingw32/nios2-elf/lib/mno-hw-mul\libc.a(lib_a-memcmp.o)
 .debug_aranges
                0x00000000000009c8       0x28 c:/intelfpga_lite/20.1/nios2eds/bin/gnu/h-x86_64-mingw32/bin/../lib/gcc/nios2-elf/10.1.1/../../../../../H-x86_64-mingw32/nios2-elf/lib/mno-hw-mul\libc.a(lib_a-putchar.o)
 .debug_aranges
                0x00000000000009f0       0x20 c:/intelfpga_lite/20.1/nios2eds/bin/gnu/h-x86_64-mingw32/bin/../lib/gcc/nios2-elf/10.1.1/../../../../../H-x86_64-mingw32/nios2-elf/lib/mno-hw-mul\libc.a(lib_a-strlen.o)
 .debug_aranges
                0x0000000000000a10       0x20 c:/intelfpga_lite/20.1/nios2eds/bin/gnu/h-x86_64-mingw32/bin/../lib/gcc/nios2-elf/10.1.1/../../../../../H-x86_64-mingw32/nios2-elf/lib/mno-hw-mul\libc.a(lib_a-__atexit.o)
 .debug_aranges
                0x0000000000000a30       0x20 c:/intelfpga_lite/20.1/nios2eds/bin/gnu/h-x86_64-mingw32/bin/../lib/gcc/nios2-elf/10.1.1/../../../../../H-x86_64-mingw32/nios2-elf/lib/mno-hw-mul\libc.a(lib_a-__call_atexit.o)
 .debug_aranges
                0x0000000000000a50       0x28 c:/intelfpga_lite/20.1/nios2eds/bin/gnu/h-x86_64-mingw32/bin/../lib/gcc/nios2-elf/10.1.1/../../../../../H-x86_64-mingw32/nios2-elf/lib/mno-hw-mul\libc.a(lib_a-putc.o)
 .debug_aranges
                0x0000000000000a78       0x28 c:/intelfpga_lite/20.1/nios2eds/bin/gnu/h-x86_64-mingw32/bin/../lib/gcc/nios2-elf/10.1.1/../../../../../H-x86_64-mingw32/nios2-elf/lib/mno-hw-mul\libc.a(lib_a-wbuf.o)
 .debug_aranges
                0x0000000000000aa0       0x20 c:/intelfpga_lite/20.1/nios2eds/bin/gnu/h-x86_64-mingw32/bin/../lib/gcc/nios2-elf/10.1.1/../../../../../H-x86_64-mingw32/nios2-elf/lib/mno-hw-mul\libc.a(lib_a-wsetup.o)
 .debug_aranges
                0x0000000000000ac0       0x30 c:/intelfpga_lite/20.1/nios2eds/bin/gnu/h-x86_64-mingw32/bin/../lib/gcc/nios2-elf/10.1.1/../../../../../H-x86_64-mingw32/nios2-elf/lib/mno-hw-mul\libc.a(lib_a-fflush.o)
 .debug_aranges
                0x0000000000000af0       0x68 c:/intelfpga_lite/20.1/nios2eds/bin/gnu/h-x86_64-mingw32/bin/../lib/gcc/nios2-elf/10.1.1/../../../../../H-x86_64-mingw32/nios2-elf/lib/mno-hw-mul\libc.a(lib_a-findfp.o)
 .debug_aranges
                0x0000000000000b58       0x28 c:/intelfpga_lite/20.1/nios2eds/bin/gnu/h-x86_64-mingw32/bin/../lib/gcc/nios2-elf/10.1.1/../../../../../H-x86_64-mingw32/nios2-elf/lib/mno-hw-mul\libc.a(lib_a-freer.o)
 .debug_aranges
                0x0000000000000b80       0x28 c:/intelfpga_lite/20.1/nios2eds/bin/gnu/h-x86_64-mingw32/bin/../lib/gcc/nios2-elf/10.1.1/../../../../../H-x86_64-mingw32/nios2-elf/lib/mno-hw-mul\libc.a(lib_a-fwalk.o)
 .debug_aranges
                0x0000000000000ba8       0x28 c:/intelfpga_lite/20.1/nios2eds/bin/gnu/h-x86_64-mingw32/bin/../lib/gcc/nios2-elf/10.1.1/../../../../../H-x86_64-mingw32/nios2-elf/lib/mno-hw-mul\libc.a(lib_a-makebuf.o)
 .debug_aranges
                0x0000000000000bd0       0x20 c:/intelfpga_lite/20.1/nios2eds/bin/gnu/h-x86_64-mingw32/bin/../lib/gcc/nios2-elf/10.1.1/../../../../../H-x86_64-mingw32/nios2-elf/lib/mno-hw-mul\libc.a(lib_a-mallocr.o)
 .debug_aranges
                0x0000000000000bf0       0x20 c:/intelfpga_lite/20.1/nios2eds/bin/gnu/h-x86_64-mingw32/bin/../lib/gcc/nios2-elf/10.1.1/../../../../../H-x86_64-mingw32/nios2-elf/lib/mno-hw-mul\libc.a(lib_a-memset.o)
 .debug_aranges
                0x0000000000000c10       0x20 c:/intelfpga_lite/20.1/nios2eds/bin/gnu/h-x86_64-mingw32/bin/../lib/gcc/nios2-elf/10.1.1/../../../../../H-x86_64-mingw32/nios2-elf/lib/mno-hw-mul\libc.a(lib_a-sbrkr.o)
 .debug_aranges
                0x0000000000000c30       0x40 c:/intelfpga_lite/20.1/nios2eds/bin/gnu/h-x86_64-mingw32/bin/../lib/gcc/nios2-elf/10.1.1/../../../../../H-x86_64-mingw32/nios2-elf/lib/mno-hw-mul\libc.a(lib_a-stdio.o)
 .debug_aranges
                0x0000000000000c70       0x20 c:/intelfpga_lite/20.1/nios2eds/bin/gnu/h-x86_64-mingw32/bin/../lib/gcc/nios2-elf/10.1.1/../../../../../H-x86_64-mingw32/nios2-elf/lib/mno-hw-mul\libc.a(lib_a-writer.o)
 .debug_aranges
                0x0000000000000c90       0x20 c:/intelfpga_lite/20.1/nios2eds/bin/gnu/h-x86_64-mingw32/bin/../lib/gcc/nios2-elf/10.1.1/../../../../../H-x86_64-mingw32/nios2-elf/lib/mno-hw-mul\libc.a(closer.o)
 .debug_aranges
                0x0000000000000cb0       0x30 c:/intelfpga_lite/20.1/nios2eds/bin/gnu/h-x86_64-mingw32/bin/../lib/gcc/nios2-elf/10.1.1/../../../../../H-x86_64-mingw32/nios2-elf/lib/mno-hw-mul\libc.a(lib_a-fclose.o)
 .debug_aranges
                0x0000000000000ce0       0x20 c:/intelfpga_lite/20.1/nios2eds/bin/gnu/h-x86_64-mingw32/bin/../lib/gcc/nios2-elf/10.1.1/../../../../../H-x86_64-mingw32/nios2-elf/lib/mno-hw-mul\libc.a(lib_a-fstatr.o)
 .debug_aranges
                0x0000000000000d00       0x20 c:/intelfpga_lite/20.1/nios2eds/bin/gnu/h-x86_64-mingw32/bin/../lib/gcc/nios2-elf/10.1.1/../../../../../H-x86_64-mingw32/nios2-elf/lib/mno-hw-mul\libc.a(lib_a-isattyr.o)
 .debug_aranges
                0x0000000000000d20       0x20 c:/intelfpga_lite/20.1/nios2eds/bin/gnu/h-x86_64-mingw32/bin/../lib/gcc/nios2-elf/10.1.1/../../../../../H-x86_64-mingw32/nios2-elf/lib/mno-hw-mul\libc.a(lib_a-lseekr.o)
 .debug_aranges
                0x0000000000000d40       0x20 c:/intelfpga_lite/20.1/nios2eds/bin/gnu/h-x86_64-mingw32/bin/../lib/gcc/nios2-elf/10.1.1/../../../../../H-x86_64-mingw32/nios2-elf/lib/mno-hw-mul\libc.a(lib_a-readr.o)
 .debug_aranges
                0x0000000000000d60       0x20 c:/GitHub/FAccel-CNN/hardware/intel_fpga/development_kits/terasic_de0_nano/quartus_projects/inference_test/20.1/software/bringup_test_bsp/\libhal_bsp.a(alt_exit.o)
 .debug_aranges
                0x0000000000000d80       0x20 c:/GitHub/FAccel-CNN/hardware/intel_fpga/development_kits/terasic_de0_nano/quartus_projects/inference_test/20.1/software/bringup_test_bsp/\libhal_bsp.a(alt_fstat.o)
 .debug_aranges
                0x0000000000000da0       0x20 c:/GitHub/FAccel-CNN/hardware/intel_fpga/development_kits/terasic_de0_nano/quartus_projects/inference_test/20.1/software/bringup_test_bsp/\libhal_bsp.a(alt_isatty.o)
 .debug_aranges
                0x0000000000000dc0       0x20 c:/GitHub/FAccel-CNN/hardware/intel_fpga/development_kits/terasic_de0_nano/quartus_projects/inference_test/20.1/software/bringup_test_bsp/\libhal_bsp.a(alt_lseek.o)
 .debug_aranges
                0x0000000000000de0       0x20 c:/GitHub/FAccel-CNN/hardware/intel_fpga/development_kits/terasic_de0_nano/quartus_projects/inference_test/20.1/software/bringup_test_bsp/\libhal_bsp.a(alt_malloc_lock.o)
 .debug_aranges
                0x0000000000000e00       0x20 c:/GitHub/FAccel-CNN/hardware/intel_fpga/development_kits/terasic_de0_nano/quartus_projects/inference_test/20.1/software/bringup_test_bsp/\libhal_bsp.a(alt_read.o)
 .debug_aranges
                0x0000000000000e20       0x20 c:/GitHub/FAccel-CNN/hardware/intel_fpga/development_kits/terasic_de0_nano/quartus_projects/inference_test/20.1/software/bringup_test_bsp/\libhal_bsp.a(alt_sbrk.o)
 .debug_aranges
                0x0000000000000e40       0x20 c:/GitHub/FAccel-CNN/hardware/intel_fpga/development_kits/terasic_de0_nano/quartus_projects/inference_test/20.1/software/bringup_test_bsp/\libhal_bsp.a(alt_write.o)

.debug_pubnames
 *(.debug_pubnames)

.debug_info     0x0000000000000000    0x20902
 *(.debug_info .gnu.linkonce.wi.*)
 .debug_info    0x0000000000000000       0x22 c:/GitHub/FAccel-CNN/hardware/intel_fpga/development_kits/terasic_de0_nano/quartus_projects/inference_test/20.1/software/bringup_test_bsp//obj/HAL/src/crt0.o
 .debug_info    0x0000000000000022      0xb59 obj/default/bringup_test.o
 .debug_info    0x0000000000000b7b      0xde6 obj/default/printf.o
 .debug_info    0x0000000000001961      0x19c c:/intelfpga_lite/20.1/nios2eds/bin/gnu/h-x86_64-mingw32/bin/../lib/gcc/nios2-elf/10.1.1/../../../../../H-x86_64-mingw32/nios2-elf/lib/mno-hw-mul\libm.a(lib_a-wf_exp.o)
 .debug_info    0x0000000000001afd      0x16c c:/intelfpga_lite/20.1/nios2eds/bin/gnu/h-x86_64-mingw32/bin/../lib/gcc/nios2-elf/10.1.1/../../../../../H-x86_64-mingw32/nios2-elf/lib/mno-hw-mul\libm.a(lib_a-wf_log.o)
 .debug_info    0x0000000000001c69      0x525 c:/intelfpga_lite/20.1/nios2eds/bin/gnu/h-x86_64-mingw32/bin/../lib/gcc/nios2-elf/10.1.1/../../../../../H-x86_64-mingw32/nios2-elf/lib/mno-hw-mul\libm.a(lib_a-ef_exp.o)
 .debug_info    0x000000000000218e      0x526 c:/intelfpga_lite/20.1/nios2eds/bin/gnu/h-x86_64-mingw32/bin/../lib/gcc/nios2-elf/10.1.1/../../../../../H-x86_64-mingw32/nios2-elf/lib/mno-hw-mul\libm.a(lib_a-ef_log.o)
 .debug_info    0x00000000000026b4       0xbb c:/intelfpga_lite/20.1/nios2eds/bin/gnu/h-x86_64-mingw32/bin/../lib/gcc/nios2-elf/10.1.1/../../../../../H-x86_64-mingw32/nios2-elf/lib/mno-hw-mul\libm.a(lib_a-s_lib_ver.o)
 .debug_info    0x000000000000276f      0x11a c:/intelfpga_lite/20.1/nios2eds/bin/gnu/h-x86_64-mingw32/bin/../lib/gcc/nios2-elf/10.1.1/mno-hw-mul\libgcc.a(_fixunsdfsi.o)
 .debug_info    0x0000000000002889      0x993 c:/intelfpga_lite/20.1/nios2eds/bin/gnu/h-x86_64-mingw32/bin/../lib/gcc/nios2-elf/10.1.1/mno-hw-mul\libgcc.a(_udivdi3.o)
 .debug_info    0x000000000000321c      0xa05 c:/intelfpga_lite/20.1/nios2eds/bin/gnu/h-x86_64-mingw32/bin/../lib/gcc/nios2-elf/10.1.1/mno-hw-mul\libgcc.a(_umoddi3.o)
 .debug_info    0x0000000000003c21      0x368 c:/intelfpga_lite/20.1/nios2eds/bin/gnu/h-x86_64-mingw32/bin/../lib/gcc/nios2-elf/10.1.1/mno-hw-mul\libgcc.a(lib2-divmod.o)
 .debug_info    0x0000000000003f89       0xcb c:/intelfpga_lite/20.1/nios2eds/bin/gnu/h-x86_64-mingw32/bin/../lib/gcc/nios2-elf/10.1.1/mno-hw-mul\libgcc.a(lib2-mul.o)
 .debug_info    0x0000000000004054      0x35b c:/intelfpga_lite/20.1/nios2eds/bin/gnu/h-x86_64-mingw32/bin/../lib/gcc/nios2-elf/10.1.1/mno-hw-mul\libgcc.a(addsf3.o)
 .debug_info    0x00000000000043af      0x372 c:/intelfpga_lite/20.1/nios2eds/bin/gnu/h-x86_64-mingw32/bin/../lib/gcc/nios2-elf/10.1.1/mno-hw-mul\libgcc.a(divsf3.o)
 .debug_info    0x0000000000004721      0x23d c:/intelfpga_lite/20.1/nios2eds/bin/gnu/h-x86_64-mingw32/bin/../lib/gcc/nios2-elf/10.1.1/mno-hw-mul\libgcc.a(eqsf2.o)
 .debug_info    0x000000000000495e      0x23e c:/intelfpga_lite/20.1/nios2eds/bin/gnu/h-x86_64-mingw32/bin/../lib/gcc/nios2-elf/10.1.1/mno-hw-mul\libgcc.a(gesf2.o)
 .debug_info    0x0000000000004b9c      0x23e c:/intelfpga_lite/20.1/nios2eds/bin/gnu/h-x86_64-mingw32/bin/../lib/gcc/nios2-elf/10.1.1/mno-hw-mul\libgcc.a(lesf2.o)
 .debug_info    0x0000000000004dda      0x424 c:/intelfpga_lite/20.1/nios2eds/bin/gnu/h-x86_64-mingw32/bin/../lib/gcc/nios2-elf/10.1.1/mno-hw-mul\libgcc.a(mulsf3.o)
 .debug_info    0x00000000000051fe      0x363 c:/intelfpga_lite/20.1/nios2eds/bin/gnu/h-x86_64-mingw32/bin/../lib/gcc/nios2-elf/10.1.1/mno-hw-mul\libgcc.a(subsf3.o)
 .debug_info    0x0000000000005561      0x21b c:/intelfpga_lite/20.1/nios2eds/bin/gnu/h-x86_64-mingw32/bin/../lib/gcc/nios2-elf/10.1.1/mno-hw-mul\libgcc.a(unordsf2.o)
 .debug_info    0x000000000000577c      0x1cd c:/intelfpga_lite/20.1/nios2eds/bin/gnu/h-x86_64-mingw32/bin/../lib/gcc/nios2-elf/10.1.1/mno-hw-mul\libgcc.a(fixsfsi.o)
 .debug_info    0x0000000000005949      0x24f c:/intelfpga_lite/20.1/nios2eds/bin/gnu/h-x86_64-mingw32/bin/../lib/gcc/nios2-elf/10.1.1/mno-hw-mul\libgcc.a(floatsisf.o)
 .debug_info    0x0000000000005b98      0x242 c:/intelfpga_lite/20.1/nios2eds/bin/gnu/h-x86_64-mingw32/bin/../lib/gcc/nios2-elf/10.1.1/mno-hw-mul\libgcc.a(floatunsisf.o)
 .debug_info    0x0000000000005dda      0x614 c:/intelfpga_lite/20.1/nios2eds/bin/gnu/h-x86_64-mingw32/bin/../lib/gcc/nios2-elf/10.1.1/mno-hw-mul\libgcc.a(adddf3.o)
 .debug_info    0x00000000000063ee      0x8ec c:/intelfpga_lite/20.1/nios2eds/bin/gnu/h-x86_64-mingw32/bin/../lib/gcc/nios2-elf/10.1.1/mno-hw-mul\libgcc.a(divdf3.o)
 .debug_info    0x0000000000006cda      0x273 c:/intelfpga_lite/20.1/nios2eds/bin/gnu/h-x86_64-mingw32/bin/../lib/gcc/nios2-elf/10.1.1/mno-hw-mul\libgcc.a(eqdf2.o)
 .debug_info    0x0000000000006f4d      0x274 c:/intelfpga_lite/20.1/nios2eds/bin/gnu/h-x86_64-mingw32/bin/../lib/gcc/nios2-elf/10.1.1/mno-hw-mul\libgcc.a(gedf2.o)
 .debug_info    0x00000000000071c1      0x274 c:/intelfpga_lite/20.1/nios2eds/bin/gnu/h-x86_64-mingw32/bin/../lib/gcc/nios2-elf/10.1.1/mno-hw-mul\libgcc.a(ledf2.o)
 .debug_info    0x0000000000007435      0x8e2 c:/intelfpga_lite/20.1/nios2eds/bin/gnu/h-x86_64-mingw32/bin/../lib/gcc/nios2-elf/10.1.1/mno-hw-mul\libgcc.a(muldf3.o)
 .debug_info    0x0000000000007d17      0x614 c:/intelfpga_lite/20.1/nios2eds/bin/gnu/h-x86_64-mingw32/bin/../lib/gcc/nios2-elf/10.1.1/mno-hw-mul\libgcc.a(subdf3.o)
 .debug_info    0x000000000000832b      0x1f7 c:/intelfpga_lite/20.1/nios2eds/bin/gnu/h-x86_64-mingw32/bin/../lib/gcc/nios2-elf/10.1.1/mno-hw-mul\libgcc.a(fixdfsi.o)
 .debug_info    0x0000000000008522      0x2bf c:/intelfpga_lite/20.1/nios2eds/bin/gnu/h-x86_64-mingw32/bin/../lib/gcc/nios2-elf/10.1.1/mno-hw-mul\libgcc.a(floatsidf.o)
 .debug_info    0x00000000000087e1      0x2b2 c:/intelfpga_lite/20.1/nios2eds/bin/gnu/h-x86_64-mingw32/bin/../lib/gcc/nios2-elf/10.1.1/mno-hw-mul\libgcc.a(floatunsidf.o)
 .debug_info    0x0000000000008a93      0x2aa c:/intelfpga_lite/20.1/nios2eds/bin/gnu/h-x86_64-mingw32/bin/../lib/gcc/nios2-elf/10.1.1/mno-hw-mul\libgcc.a(extendsfdf2.o)
 .debug_info    0x0000000000008d3d       0xc2 c:/intelfpga_lite/20.1/nios2eds/bin/gnu/h-x86_64-mingw32/bin/../lib/gcc/nios2-elf/10.1.1/mno-hw-mul\libgcc.a(_clz.o)
 .debug_info    0x0000000000008dff      0x133 c:/intelfpga_lite/20.1/nios2eds/bin/gnu/h-x86_64-mingw32/bin/../lib/gcc/nios2-elf/10.1.1/mno-hw-mul\libgcc.a(_clzsi2.o)
 .debug_info    0x0000000000008f32      0x91b c:/intelfpga_lite/20.1/nios2eds/bin/gnu/h-x86_64-mingw32/bin/../lib/gcc/nios2-elf/10.1.1/../../../../../H-x86_64-mingw32/nios2-elf/lib/mno-hw-mul\libc.a(lib_a-errno.o)
 .debug_info    0x000000000000984d      0x931 c:/intelfpga_lite/20.1/nios2eds/bin/gnu/h-x86_64-mingw32/bin/../lib/gcc/nios2-elf/10.1.1/../../../../../H-x86_64-mingw32/nios2-elf/lib/mno-hw-mul\libc.a(lib_a-impure.o)
 .debug_info    0x000000000000a17e      0x162 c:/intelfpga_lite/20.1/nios2eds/bin/gnu/h-x86_64-mingw32/bin/../lib/gcc/nios2-elf/10.1.1/../../../../../H-x86_64-mingw32/nios2-elf/lib/mno-hw-mul\libc.a(lib_a-memcpy.o)
 .debug_info    0x000000000000a2e0      0x14d c:/GitHub/FAccel-CNN/hardware/intel_fpga/development_kits/terasic_de0_nano/quartus_projects/inference_test/20.1/software/bringup_test_bsp/\libhal_bsp.a(alt_load.o)
 .debug_info    0x000000000000a42d       0xef c:/GitHub/FAccel-CNN/hardware/intel_fpga/development_kits/terasic_de0_nano/quartus_projects/inference_test/20.1/software/bringup_test_bsp/\libhal_bsp.a(alt_main.o)
 .debug_info    0x000000000000a51c      0x125 c:/GitHub/FAccel-CNN/hardware/intel_fpga/development_kits/terasic_de0_nano/quartus_projects/inference_test/20.1/software/bringup_test_bsp/\libhal_bsp.a(alt_printf.o)
 .debug_info    0x000000000000a641       0x9e c:/GitHub/FAccel-CNN/hardware/intel_fpga/development_kits/terasic_de0_nano/quartus_projects/inference_test/20.1/software/bringup_test_bsp/\libhal_bsp.a(alt_putchar.o)
 .debug_info    0x000000000000a6df      0x4d1 c:/GitHub/FAccel-CNN/hardware/intel_fpga/development_kits/terasic_de0_nano/quartus_projects/inference_test/20.1/software/bringup_test_bsp/\libhal_bsp.a(alt_sys_init.o)
 .debug_info    0x000000000000abb0      0x53d c:/GitHub/FAccel-CNN/hardware/intel_fpga/development_kits/terasic_de0_nano/quartus_projects/inference_test/20.1/software/bringup_test_bsp/\libhal_bsp.a(altera_avalon_jtag_uart_fd.o)
 .debug_info    0x000000000000b0ed      0x3d0 c:/GitHub/FAccel-CNN/hardware/intel_fpga/development_kits/terasic_de0_nano/quartus_projects/inference_test/20.1/software/bringup_test_bsp/\libhal_bsp.a(altera_avalon_jtag_uart_init.o)
 .debug_info    0x000000000000b4bd      0x273 c:/GitHub/FAccel-CNN/hardware/intel_fpga/development_kits/terasic_de0_nano/quartus_projects/inference_test/20.1/software/bringup_test_bsp/\libhal_bsp.a(altera_avalon_jtag_uart_ioctl.o)
 .debug_info    0x000000000000b730      0x336 c:/GitHub/FAccel-CNN/hardware/intel_fpga/development_kits/terasic_de0_nano/quartus_projects/inference_test/20.1/software/bringup_test_bsp/\libhal_bsp.a(altera_avalon_jtag_uart_read.o)
 .debug_info    0x000000000000ba66      0x331 c:/GitHub/FAccel-CNN/hardware/intel_fpga/development_kits/terasic_de0_nano/quartus_projects/inference_test/20.1/software/bringup_test_bsp/\libhal_bsp.a(altera_avalon_jtag_uart_write.o)
 .debug_info    0x000000000000bd97      0x2dd c:/GitHub/FAccel-CNN/hardware/intel_fpga/development_kits/terasic_de0_nano/quartus_projects/inference_test/20.1/software/bringup_test_bsp/\libhal_bsp.a(alt_alarm_start.o)
 .debug_info    0x000000000000c074      0x32c c:/GitHub/FAccel-CNN/hardware/intel_fpga/development_kits/terasic_de0_nano/quartus_projects/inference_test/20.1/software/bringup_test_bsp/\libhal_bsp.a(alt_close.o)
 .debug_info    0x000000000000c3a0       0x8c c:/GitHub/FAccel-CNN/hardware/intel_fpga/development_kits/terasic_de0_nano/quartus_projects/inference_test/20.1/software/bringup_test_bsp/\libhal_bsp.a(alt_dcache_flush_all.o)
 .debug_info    0x000000000000c42c      0x57d c:/GitHub/FAccel-CNN/hardware/intel_fpga/development_kits/terasic_de0_nano/quartus_projects/inference_test/20.1/software/bringup_test_bsp/\libhal_bsp.a(alt_dev.o)
 .debug_info    0x000000000000c9a9      0x1b0 c:/GitHub/FAccel-CNN/hardware/intel_fpga/development_kits/terasic_de0_nano/quartus_projects/inference_test/20.1/software/bringup_test_bsp/\libhal_bsp.a(alt_dev_llist_insert.o)
 .debug_info    0x000000000000cb59       0x88 c:/GitHub/FAccel-CNN/hardware/intel_fpga/development_kits/terasic_de0_nano/quartus_projects/inference_test/20.1/software/bringup_test_bsp/\libhal_bsp.a(alt_do_ctors.o)
 .debug_info    0x000000000000cbe1       0x88 c:/GitHub/FAccel-CNN/hardware/intel_fpga/development_kits/terasic_de0_nano/quartus_projects/inference_test/20.1/software/bringup_test_bsp/\libhal_bsp.a(alt_do_dtors.o)
 .debug_info    0x000000000000cc69       0x9d c:/GitHub/FAccel-CNN/hardware/intel_fpga/development_kits/terasic_de0_nano/quartus_projects/inference_test/20.1/software/bringup_test_bsp/\libhal_bsp.a(alt_errno.o)
 .debug_info    0x000000000000cd06       0x8c c:/GitHub/FAccel-CNN/hardware/intel_fpga/development_kits/terasic_de0_nano/quartus_projects/inference_test/20.1/software/bringup_test_bsp/\libhal_bsp.a(alt_icache_flush_all.o)
 .debug_info    0x000000000000cd92      0x32c c:/GitHub/FAccel-CNN/hardware/intel_fpga/development_kits/terasic_de0_nano/quartus_projects/inference_test/20.1/software/bringup_test_bsp/\libhal_bsp.a(alt_iic.o)
 .debug_info    0x000000000000d0be      0x1f0 c:/GitHub/FAccel-CNN/hardware/intel_fpga/development_kits/terasic_de0_nano/quartus_projects/inference_test/20.1/software/bringup_test_bsp/\libhal_bsp.a(alt_iic_isr_register.o)
 .debug_info    0x000000000000d2ae      0x546 c:/GitHub/FAccel-CNN/hardware/intel_fpga/development_kits/terasic_de0_nano/quartus_projects/inference_test/20.1/software/bringup_test_bsp/\libhal_bsp.a(alt_io_redirect.o)
 .debug_info    0x000000000000d7f4       0x22 c:/GitHub/FAccel-CNN/hardware/intel_fpga/development_kits/terasic_de0_nano/quartus_projects/inference_test/20.1/software/bringup_test_bsp/\libhal_bsp.a(alt_irq_entry.o)
 .debug_info    0x000000000000d816      0x175 c:/GitHub/FAccel-CNN/hardware/intel_fpga/development_kits/terasic_de0_nano/quartus_projects/inference_test/20.1/software/bringup_test_bsp/\libhal_bsp.a(alt_irq_handler.o)
 .debug_info    0x000000000000d98b       0x8b c:/GitHub/FAccel-CNN/hardware/intel_fpga/development_kits/terasic_de0_nano/quartus_projects/inference_test/20.1/software/bringup_test_bsp/\libhal_bsp.a(alt_irq_vars.o)
 .debug_info    0x000000000000da16      0x3dd c:/GitHub/FAccel-CNN/hardware/intel_fpga/development_kits/terasic_de0_nano/quartus_projects/inference_test/20.1/software/bringup_test_bsp/\libhal_bsp.a(alt_open.o)
 .debug_info    0x000000000000ddf3      0x2b9 c:/GitHub/FAccel-CNN/hardware/intel_fpga/development_kits/terasic_de0_nano/quartus_projects/inference_test/20.1/software/bringup_test_bsp/\libhal_bsp.a(alt_release_fd.o)
 .debug_info    0x000000000000e0ac      0x2bd c:/GitHub/FAccel-CNN/hardware/intel_fpga/development_kits/terasic_de0_nano/quartus_projects/inference_test/20.1/software/bringup_test_bsp/\libhal_bsp.a(alt_tick.o)
 .debug_info    0x000000000000e369       0x8c c:/GitHub/FAccel-CNN/hardware/intel_fpga/development_kits/terasic_de0_nano/quartus_projects/inference_test/20.1/software/bringup_test_bsp/\libhal_bsp.a(altera_nios2_gen2_irq.o)
 .debug_info    0x000000000000e3f5       0x22 c:/GitHub/FAccel-CNN/hardware/intel_fpga/development_kits/terasic_de0_nano/quartus_projects/inference_test/20.1/software/bringup_test_bsp/\libhal_bsp.a(alt_exception_entry.o)
 .debug_info    0x000000000000e417      0x2ee c:/GitHub/FAccel-CNN/hardware/intel_fpga/development_kits/terasic_de0_nano/quartus_projects/inference_test/20.1/software/bringup_test_bsp/\libhal_bsp.a(alt_find_dev.o)
 .debug_info    0x000000000000e705      0x2eb c:/GitHub/FAccel-CNN/hardware/intel_fpga/development_kits/terasic_de0_nano/quartus_projects/inference_test/20.1/software/bringup_test_bsp/\libhal_bsp.a(alt_find_file.o)
 .debug_info    0x000000000000e9f0      0x31c c:/GitHub/FAccel-CNN/hardware/intel_fpga/development_kits/terasic_de0_nano/quartus_projects/inference_test/20.1/software/bringup_test_bsp/\libhal_bsp.a(alt_get_fd.o)
 .debug_info    0x000000000000ed0c      0x1f1 c:/GitHub/FAccel-CNN/hardware/intel_fpga/development_kits/terasic_de0_nano/quartus_projects/inference_test/20.1/software/bringup_test_bsp/\libhal_bsp.a(alt_instruction_exception_entry.o)
 .debug_info    0x000000000000eefd      0x100 c:/intelfpga_lite/20.1/nios2eds/bin/gnu/h-x86_64-mingw32/bin/../lib/gcc/nios2-elf/10.1.1/../../../../../H-x86_64-mingw32/nios2-elf/lib/mno-hw-mul\libc.a(lib_a-atexit.o)
 .debug_info    0x000000000000effd      0x970 c:/intelfpga_lite/20.1/nios2eds/bin/gnu/h-x86_64-mingw32/bin/../lib/gcc/nios2-elf/10.1.1/../../../../../H-x86_64-mingw32/nios2-elf/lib/mno-hw-mul\libc.a(lib_a-exit.o)
 .debug_info    0x000000000000f96d       0x84 c:/intelfpga_lite/20.1/nios2eds/bin/gnu/h-x86_64-mingw32/bin/../lib/gcc/nios2-elf/10.1.1/../../../../../H-x86_64-mingw32/nios2-elf/lib/mno-hw-mul\libc.a(lib_a-int_errno.o)
 .debug_info    0x000000000000f9f1      0x138 c:/intelfpga_lite/20.1/nios2eds/bin/gnu/h-x86_64-mingw32/bin/../lib/gcc/nios2-elf/10.1.1/../../../../../H-x86_64-mingw32/nios2-elf/lib/mno-hw-mul\libc.a(lib_a-memcmp.o)
 .debug_info    0x000000000000fb29      0x9b8 c:/intelfpga_lite/20.1/nios2eds/bin/gnu/h-x86_64-mingw32/bin/../lib/gcc/nios2-elf/10.1.1/../../../../../H-x86_64-mingw32/nios2-elf/lib/mno-hw-mul\libc.a(lib_a-putchar.o)
 .debug_info    0x00000000000104e1       0xee c:/intelfpga_lite/20.1/nios2eds/bin/gnu/h-x86_64-mingw32/bin/../lib/gcc/nios2-elf/10.1.1/../../../../../H-x86_64-mingw32/nios2-elf/lib/mno-hw-mul\libc.a(lib_a-strlen.o)
 .debug_info    0x00000000000105cf      0x9b1 c:/intelfpga_lite/20.1/nios2eds/bin/gnu/h-x86_64-mingw32/bin/../lib/gcc/nios2-elf/10.1.1/../../../../../H-x86_64-mingw32/nios2-elf/lib/mno-hw-mul\libc.a(lib_a-__atexit.o)
 .debug_info    0x0000000000010f80      0x9f9 c:/intelfpga_lite/20.1/nios2eds/bin/gnu/h-x86_64-mingw32/bin/../lib/gcc/nios2-elf/10.1.1/../../../../../H-x86_64-mingw32/nios2-elf/lib/mno-hw-mul\libc.a(lib_a-__call_atexit.o)
 .debug_info    0x0000000000011979      0xa6a c:/intelfpga_lite/20.1/nios2eds/bin/gnu/h-x86_64-mingw32/bin/../lib/gcc/nios2-elf/10.1.1/../../../../../H-x86_64-mingw32/nios2-elf/lib/mno-hw-mul\libc.a(lib_a-putc.o)
 .debug_info    0x00000000000123e3      0xa66 c:/intelfpga_lite/20.1/nios2eds/bin/gnu/h-x86_64-mingw32/bin/../lib/gcc/nios2-elf/10.1.1/../../../../../H-x86_64-mingw32/nios2-elf/lib/mno-hw-mul\libc.a(lib_a-wbuf.o)
 .debug_info    0x0000000000012e49      0x9c9 c:/intelfpga_lite/20.1/nios2eds/bin/gnu/h-x86_64-mingw32/bin/../lib/gcc/nios2-elf/10.1.1/../../../../../H-x86_64-mingw32/nios2-elf/lib/mno-hw-mul\libc.a(lib_a-wsetup.o)
 .debug_info    0x0000000000013812      0xbf6 c:/intelfpga_lite/20.1/nios2eds/bin/gnu/h-x86_64-mingw32/bin/../lib/gcc/nios2-elf/10.1.1/../../../../../H-x86_64-mingw32/nios2-elf/lib/mno-hw-mul\libc.a(lib_a-fflush.o)
 .debug_info    0x0000000000014408      0xefa c:/intelfpga_lite/20.1/nios2eds/bin/gnu/h-x86_64-mingw32/bin/../lib/gcc/nios2-elf/10.1.1/../../../../../H-x86_64-mingw32/nios2-elf/lib/mno-hw-mul\libc.a(lib_a-findfp.o)
 .debug_info    0x0000000000015302      0xced c:/intelfpga_lite/20.1/nios2eds/bin/gnu/h-x86_64-mingw32/bin/../lib/gcc/nios2-elf/10.1.1/../../../../../H-x86_64-mingw32/nios2-elf/lib/mno-hw-mul\libc.a(lib_a-freer.o)
 .debug_info    0x0000000000015fef      0xa6d c:/intelfpga_lite/20.1/nios2eds/bin/gnu/h-x86_64-mingw32/bin/../lib/gcc/nios2-elf/10.1.1/../../../../../H-x86_64-mingw32/nios2-elf/lib/mno-hw-mul\libc.a(lib_a-fwalk.o)
 .debug_info    0x0000000000016a5c      0xe0b c:/intelfpga_lite/20.1/nios2eds/bin/gnu/h-x86_64-mingw32/bin/../lib/gcc/nios2-elf/10.1.1/../../../../../H-x86_64-mingw32/nios2-elf/lib/mno-hw-mul\libc.a(lib_a-makebuf.o)
 .debug_info    0x0000000000017867      0xe9a c:/intelfpga_lite/20.1/nios2eds/bin/gnu/h-x86_64-mingw32/bin/../lib/gcc/nios2-elf/10.1.1/../../../../../H-x86_64-mingw32/nios2-elf/lib/mno-hw-mul\libc.a(lib_a-mallocr.o)
 .debug_info    0x0000000000018701      0x13d c:/intelfpga_lite/20.1/nios2eds/bin/gnu/h-x86_64-mingw32/bin/../lib/gcc/nios2-elf/10.1.1/../../../../../H-x86_64-mingw32/nios2-elf/lib/mno-hw-mul\libc.a(lib_a-memset.o)
 .debug_info    0x000000000001883e      0x994 c:/intelfpga_lite/20.1/nios2eds/bin/gnu/h-x86_64-mingw32/bin/../lib/gcc/nios2-elf/10.1.1/../../../../../H-x86_64-mingw32/nios2-elf/lib/mno-hw-mul\libc.a(lib_a-sbrkr.o)
 .debug_info    0x00000000000191d2      0xc23 c:/intelfpga_lite/20.1/nios2eds/bin/gnu/h-x86_64-mingw32/bin/../lib/gcc/nios2-elf/10.1.1/../../../../../H-x86_64-mingw32/nios2-elf/lib/mno-hw-mul\libc.a(lib_a-stdio.o)
 .debug_info    0x0000000000019df5      0x9c6 c:/intelfpga_lite/20.1/nios2eds/bin/gnu/h-x86_64-mingw32/bin/../lib/gcc/nios2-elf/10.1.1/../../../../../H-x86_64-mingw32/nios2-elf/lib/mno-hw-mul\libc.a(lib_a-writer.o)
 .debug_info    0x000000000001a7bb      0x971 c:/intelfpga_lite/20.1/nios2eds/bin/gnu/h-x86_64-mingw32/bin/../lib/gcc/nios2-elf/10.1.1/../../../../../H-x86_64-mingw32/nios2-elf/lib/mno-hw-mul\libc.a(closer.o)
 .debug_info    0x000000000001b12c      0xb4b c:/intelfpga_lite/20.1/nios2eds/bin/gnu/h-x86_64-mingw32/bin/../lib/gcc/nios2-elf/10.1.1/../../../../../H-x86_64-mingw32/nios2-elf/lib/mno-hw-mul\libc.a(lib_a-fclose.o)
 .debug_info    0x000000000001bc77      0xb8a c:/intelfpga_lite/20.1/nios2eds/bin/gnu/h-x86_64-mingw32/bin/../lib/gcc/nios2-elf/10.1.1/../../../../../H-x86_64-mingw32/nios2-elf/lib/mno-hw-mul\libc.a(lib_a-fstatr.o)
 .debug_info    0x000000000001c801      0x971 c:/intelfpga_lite/20.1/nios2eds/bin/gnu/h-x86_64-mingw32/bin/../lib/gcc/nios2-elf/10.1.1/../../../../../H-x86_64-mingw32/nios2-elf/lib/mno-hw-mul\libc.a(lib_a-isattyr.o)
 .debug_info    0x000000000001d172      0x9a7 c:/intelfpga_lite/20.1/nios2eds/bin/gnu/h-x86_64-mingw32/bin/../lib/gcc/nios2-elf/10.1.1/../../../../../H-x86_64-mingw32/nios2-elf/lib/mno-hw-mul\libc.a(lib_a-lseekr.o)
 .debug_info    0x000000000001db19      0x9bf c:/intelfpga_lite/20.1/nios2eds/bin/gnu/h-x86_64-mingw32/bin/../lib/gcc/nios2-elf/10.1.1/../../../../../H-x86_64-mingw32/nios2-elf/lib/mno-hw-mul\libc.a(lib_a-readr.o)
 .debug_info    0x000000000001e4d8       0xe1 c:/GitHub/FAccel-CNN/hardware/intel_fpga/development_kits/terasic_de0_nano/quartus_projects/inference_test/20.1/software/bringup_test_bsp/\libhal_bsp.a(alt_exit.o)
 .debug_info    0x000000000001e5b9      0x52a c:/GitHub/FAccel-CNN/hardware/intel_fpga/development_kits/terasic_de0_nano/quartus_projects/inference_test/20.1/software/bringup_test_bsp/\libhal_bsp.a(alt_fstat.o)
 .debug_info    0x000000000001eae3      0x52d c:/GitHub/FAccel-CNN/hardware/intel_fpga/development_kits/terasic_de0_nano/quartus_projects/inference_test/20.1/software/bringup_test_bsp/\libhal_bsp.a(alt_isatty.o)
 .debug_info    0x000000000001f010      0x36d c:/GitHub/FAccel-CNN/hardware/intel_fpga/development_kits/terasic_de0_nano/quartus_projects/inference_test/20.1/software/bringup_test_bsp/\libhal_bsp.a(alt_lseek.o)
 .debug_info    0x000000000001f37d      0x938 c:/GitHub/FAccel-CNN/hardware/intel_fpga/development_kits/terasic_de0_nano/quartus_projects/inference_test/20.1/software/bringup_test_bsp/\libhal_bsp.a(alt_malloc_lock.o)
 .debug_info    0x000000000001fcb5      0x555 c:/GitHub/FAccel-CNN/hardware/intel_fpga/development_kits/terasic_de0_nano/quartus_projects/inference_test/20.1/software/bringup_test_bsp/\libhal_bsp.a(alt_read.o)
 .debug_info    0x000000000002020a      0x19c c:/GitHub/FAccel-CNN/hardware/intel_fpga/development_kits/terasic_de0_nano/quartus_projects/inference_test/20.1/software/bringup_test_bsp/\libhal_bsp.a(alt_sbrk.o)
 .debug_info    0x00000000000203a6      0x55c c:/GitHub/FAccel-CNN/hardware/intel_fpga/development_kits/terasic_de0_nano/quartus_projects/inference_test/20.1/software/bringup_test_bsp/\libhal_bsp.a(alt_write.o)

.debug_abbrev   0x0000000000000000     0x960b
 *(.debug_abbrev)
 .debug_abbrev  0x0000000000000000       0x12 c:/GitHub/FAccel-CNN/hardware/intel_fpga/development_kits/terasic_de0_nano/quartus_projects/inference_test/20.1/software/bringup_test_bsp//obj/HAL/src/crt0.o
 .debug_abbrev  0x0000000000000012      0x203 obj/default/bringup_test.o
 .debug_abbrev  0x0000000000000215      0x218 obj/default/printf.o
 .debug_abbrev  0x000000000000042d      0x106 c:/intelfpga_lite/20.1/nios2eds/bin/gnu/h-x86_64-mingw32/bin/../lib/gcc/nios2-elf/10.1.1/../../../../../H-x86_64-mingw32/nios2-elf/lib/mno-hw-mul\libm.a(lib_a-wf_exp.o)
 .debug_abbrev  0x0000000000000533       0xee c:/intelfpga_lite/20.1/nios2eds/bin/gnu/h-x86_64-mingw32/bin/../lib/gcc/nios2-elf/10.1.1/../../../../../H-x86_64-mingw32/nios2-elf/lib/mno-hw-mul\libm.a(lib_a-wf_log.o)
 .debug_abbrev  0x0000000000000621      0x166 c:/intelfpga_lite/20.1/nios2eds/bin/gnu/h-x86_64-mingw32/bin/../lib/gcc/nios2-elf/10.1.1/../../../../../H-x86_64-mingw32/nios2-elf/lib/mno-hw-mul\libm.a(lib_a-ef_exp.o)
 .debug_abbrev  0x0000000000000787      0x119 c:/intelfpga_lite/20.1/nios2eds/bin/gnu/h-x86_64-mingw32/bin/../lib/gcc/nios2-elf/10.1.1/../../../../../H-x86_64-mingw32/nios2-elf/lib/mno-hw-mul\libm.a(lib_a-ef_log.o)
 .debug_abbrev  0x00000000000008a0       0x6f c:/intelfpga_lite/20.1/nios2eds/bin/gnu/h-x86_64-mingw32/bin/../lib/gcc/nios2-elf/10.1.1/../../../../../H-x86_64-mingw32/nios2-elf/lib/mno-hw-mul\libm.a(lib_a-s_lib_ver.o)
 .debug_abbrev  0x000000000000090f       0x83 c:/intelfpga_lite/20.1/nios2eds/bin/gnu/h-x86_64-mingw32/bin/../lib/gcc/nios2-elf/10.1.1/mno-hw-mul\libgcc.a(_fixunsdfsi.o)
 .debug_abbrev  0x0000000000000992      0x1b4 c:/intelfpga_lite/20.1/nios2eds/bin/gnu/h-x86_64-mingw32/bin/../lib/gcc/nios2-elf/10.1.1/mno-hw-mul\libgcc.a(_udivdi3.o)
 .debug_abbrev  0x0000000000000b46      0x1e0 c:/intelfpga_lite/20.1/nios2eds/bin/gnu/h-x86_64-mingw32/bin/../lib/gcc/nios2-elf/10.1.1/mno-hw-mul\libgcc.a(_umoddi3.o)
 .debug_abbrev  0x0000000000000d26      0x103 c:/intelfpga_lite/20.1/nios2eds/bin/gnu/h-x86_64-mingw32/bin/../lib/gcc/nios2-elf/10.1.1/mno-hw-mul\libgcc.a(lib2-divmod.o)
 .debug_abbrev  0x0000000000000e29       0x7d c:/intelfpga_lite/20.1/nios2eds/bin/gnu/h-x86_64-mingw32/bin/../lib/gcc/nios2-elf/10.1.1/mno-hw-mul\libgcc.a(lib2-mul.o)
 .debug_abbrev  0x0000000000000ea6      0x166 c:/intelfpga_lite/20.1/nios2eds/bin/gnu/h-x86_64-mingw32/bin/../lib/gcc/nios2-elf/10.1.1/mno-hw-mul\libgcc.a(addsf3.o)
 .debug_abbrev  0x000000000000100c      0x13b c:/intelfpga_lite/20.1/nios2eds/bin/gnu/h-x86_64-mingw32/bin/../lib/gcc/nios2-elf/10.1.1/mno-hw-mul\libgcc.a(divsf3.o)
 .debug_abbrev  0x0000000000001147      0x132 c:/intelfpga_lite/20.1/nios2eds/bin/gnu/h-x86_64-mingw32/bin/../lib/gcc/nios2-elf/10.1.1/mno-hw-mul\libgcc.a(eqsf2.o)
 .debug_abbrev  0x0000000000001279      0x156 c:/intelfpga_lite/20.1/nios2eds/bin/gnu/h-x86_64-mingw32/bin/../lib/gcc/nios2-elf/10.1.1/mno-hw-mul\libgcc.a(gesf2.o)
 .debug_abbrev  0x00000000000013cf      0x156 c:/intelfpga_lite/20.1/nios2eds/bin/gnu/h-x86_64-mingw32/bin/../lib/gcc/nios2-elf/10.1.1/mno-hw-mul\libgcc.a(lesf2.o)
 .debug_abbrev  0x0000000000001525      0x14a c:/intelfpga_lite/20.1/nios2eds/bin/gnu/h-x86_64-mingw32/bin/../lib/gcc/nios2-elf/10.1.1/mno-hw-mul\libgcc.a(mulsf3.o)
 .debug_abbrev  0x000000000000166f      0x166 c:/intelfpga_lite/20.1/nios2eds/bin/gnu/h-x86_64-mingw32/bin/../lib/gcc/nios2-elf/10.1.1/mno-hw-mul\libgcc.a(subsf3.o)
 .debug_abbrev  0x00000000000017d5      0x14e c:/intelfpga_lite/20.1/nios2eds/bin/gnu/h-x86_64-mingw32/bin/../lib/gcc/nios2-elf/10.1.1/mno-hw-mul\libgcc.a(unordsf2.o)
 .debug_abbrev  0x0000000000001923      0x142 c:/intelfpga_lite/20.1/nios2eds/bin/gnu/h-x86_64-mingw32/bin/../lib/gcc/nios2-elf/10.1.1/mno-hw-mul\libgcc.a(fixsfsi.o)
 .debug_abbrev  0x0000000000001a65      0x173 c:/intelfpga_lite/20.1/nios2eds/bin/gnu/h-x86_64-mingw32/bin/../lib/gcc/nios2-elf/10.1.1/mno-hw-mul\libgcc.a(floatsisf.o)
 .debug_abbrev  0x0000000000001bd8      0x173 c:/intelfpga_lite/20.1/nios2eds/bin/gnu/h-x86_64-mingw32/bin/../lib/gcc/nios2-elf/10.1.1/mno-hw-mul\libgcc.a(floatunsisf.o)
 .debug_abbrev  0x0000000000001d4b      0x16b c:/intelfpga_lite/20.1/nios2eds/bin/gnu/h-x86_64-mingw32/bin/../lib/gcc/nios2-elf/10.1.1/mno-hw-mul\libgcc.a(adddf3.o)
 .debug_abbrev  0x0000000000001eb6      0x16b c:/intelfpga_lite/20.1/nios2eds/bin/gnu/h-x86_64-mingw32/bin/../lib/gcc/nios2-elf/10.1.1/mno-hw-mul\libgcc.a(divdf3.o)
 .debug_abbrev  0x0000000000002021      0x12f c:/intelfpga_lite/20.1/nios2eds/bin/gnu/h-x86_64-mingw32/bin/../lib/gcc/nios2-elf/10.1.1/mno-hw-mul\libgcc.a(eqdf2.o)
 .debug_abbrev  0x0000000000002150      0x153 c:/intelfpga_lite/20.1/nios2eds/bin/gnu/h-x86_64-mingw32/bin/../lib/gcc/nios2-elf/10.1.1/mno-hw-mul\libgcc.a(gedf2.o)
 .debug_abbrev  0x00000000000022a3      0x153 c:/intelfpga_lite/20.1/nios2eds/bin/gnu/h-x86_64-mingw32/bin/../lib/gcc/nios2-elf/10.1.1/mno-hw-mul\libgcc.a(ledf2.o)
 .debug_abbrev  0x00000000000023f6      0x17d c:/intelfpga_lite/20.1/nios2eds/bin/gnu/h-x86_64-mingw32/bin/../lib/gcc/nios2-elf/10.1.1/mno-hw-mul\libgcc.a(muldf3.o)
 .debug_abbrev  0x0000000000002573      0x16b c:/intelfpga_lite/20.1/nios2eds/bin/gnu/h-x86_64-mingw32/bin/../lib/gcc/nios2-elf/10.1.1/mno-hw-mul\libgcc.a(subdf3.o)
 .debug_abbrev  0x00000000000026de      0x145 c:/intelfpga_lite/20.1/nios2eds/bin/gnu/h-x86_64-mingw32/bin/../lib/gcc/nios2-elf/10.1.1/mno-hw-mul\libgcc.a(fixdfsi.o)
 .debug_abbrev  0x0000000000002823      0x16d c:/intelfpga_lite/20.1/nios2eds/bin/gnu/h-x86_64-mingw32/bin/../lib/gcc/nios2-elf/10.1.1/mno-hw-mul\libgcc.a(floatsidf.o)
 .debug_abbrev  0x0000000000002990      0x16d c:/intelfpga_lite/20.1/nios2eds/bin/gnu/h-x86_64-mingw32/bin/../lib/gcc/nios2-elf/10.1.1/mno-hw-mul\libgcc.a(floatunsidf.o)
 .debug_abbrev  0x0000000000002afd      0x145 c:/intelfpga_lite/20.1/nios2eds/bin/gnu/h-x86_64-mingw32/bin/../lib/gcc/nios2-elf/10.1.1/mno-hw-mul\libgcc.a(extendsfdf2.o)
 .debug_abbrev  0x0000000000002c42       0x70 c:/intelfpga_lite/20.1/nios2eds/bin/gnu/h-x86_64-mingw32/bin/../lib/gcc/nios2-elf/10.1.1/mno-hw-mul\libgcc.a(_clz.o)
 .debug_abbrev  0x0000000000002cb2       0xbf c:/intelfpga_lite/20.1/nios2eds/bin/gnu/h-x86_64-mingw32/bin/../lib/gcc/nios2-elf/10.1.1/mno-hw-mul\libgcc.a(_clzsi2.o)
 .debug_abbrev  0x0000000000002d71      0x1cf c:/intelfpga_lite/20.1/nios2eds/bin/gnu/h-x86_64-mingw32/bin/../lib/gcc/nios2-elf/10.1.1/../../../../../H-x86_64-mingw32/nios2-elf/lib/mno-hw-mul\libc.a(lib_a-errno.o)
 .debug_abbrev  0x0000000000002f40      0x1c9 c:/intelfpga_lite/20.1/nios2eds/bin/gnu/h-x86_64-mingw32/bin/../lib/gcc/nios2-elf/10.1.1/../../../../../H-x86_64-mingw32/nios2-elf/lib/mno-hw-mul\libc.a(lib_a-impure.o)
 .debug_abbrev  0x0000000000003109       0xb6 c:/intelfpga_lite/20.1/nios2eds/bin/gnu/h-x86_64-mingw32/bin/../lib/gcc/nios2-elf/10.1.1/../../../../../H-x86_64-mingw32/nios2-elf/lib/mno-hw-mul\libc.a(lib_a-memcpy.o)
 .debug_abbrev  0x00000000000031bf       0xab c:/GitHub/FAccel-CNN/hardware/intel_fpga/development_kits/terasic_de0_nano/quartus_projects/inference_test/20.1/software/bringup_test_bsp/\libhal_bsp.a(alt_load.o)
 .debug_abbrev  0x000000000000326a       0x86 c:/GitHub/FAccel-CNN/hardware/intel_fpga/development_kits/terasic_de0_nano/quartus_projects/inference_test/20.1/software/bringup_test_bsp/\libhal_bsp.a(alt_main.o)
 .debug_abbrev  0x00000000000032f0       0xba c:/GitHub/FAccel-CNN/hardware/intel_fpga/development_kits/terasic_de0_nano/quartus_projects/inference_test/20.1/software/bringup_test_bsp/\libhal_bsp.a(alt_printf.o)
 .debug_abbrev  0x00000000000033aa       0x57 c:/GitHub/FAccel-CNN/hardware/intel_fpga/development_kits/terasic_de0_nano/quartus_projects/inference_test/20.1/software/bringup_test_bsp/\libhal_bsp.a(alt_putchar.o)
 .debug_abbrev  0x0000000000003401      0x1a7 c:/GitHub/FAccel-CNN/hardware/intel_fpga/development_kits/terasic_de0_nano/quartus_projects/inference_test/20.1/software/bringup_test_bsp/\libhal_bsp.a(alt_sys_init.o)
 .debug_abbrev  0x00000000000035a8      0x146 c:/GitHub/FAccel-CNN/hardware/intel_fpga/development_kits/terasic_de0_nano/quartus_projects/inference_test/20.1/software/bringup_test_bsp/\libhal_bsp.a(altera_avalon_jtag_uart_fd.o)
 .debug_abbrev  0x00000000000036ee      0x1be c:/GitHub/FAccel-CNN/hardware/intel_fpga/development_kits/terasic_de0_nano/quartus_projects/inference_test/20.1/software/bringup_test_bsp/\libhal_bsp.a(altera_avalon_jtag_uart_init.o)
 .debug_abbrev  0x00000000000038ac      0x112 c:/GitHub/FAccel-CNN/hardware/intel_fpga/development_kits/terasic_de0_nano/quartus_projects/inference_test/20.1/software/bringup_test_bsp/\libhal_bsp.a(altera_avalon_jtag_uart_ioctl.o)
 .debug_abbrev  0x00000000000039be      0x1b0 c:/GitHub/FAccel-CNN/hardware/intel_fpga/development_kits/terasic_de0_nano/quartus_projects/inference_test/20.1/software/bringup_test_bsp/\libhal_bsp.a(altera_avalon_jtag_uart_read.o)
 .debug_abbrev  0x0000000000003b6e      0x1ae c:/GitHub/FAccel-CNN/hardware/intel_fpga/development_kits/terasic_de0_nano/quartus_projects/inference_test/20.1/software/bringup_test_bsp/\libhal_bsp.a(altera_avalon_jtag_uart_write.o)
 .debug_abbrev  0x0000000000003d1c      0x188 c:/GitHub/FAccel-CNN/hardware/intel_fpga/development_kits/terasic_de0_nano/quartus_projects/inference_test/20.1/software/bringup_test_bsp/\libhal_bsp.a(alt_alarm_start.o)
 .debug_abbrev  0x0000000000003ea4      0x133 c:/GitHub/FAccel-CNN/hardware/intel_fpga/development_kits/terasic_de0_nano/quartus_projects/inference_test/20.1/software/bringup_test_bsp/\libhal_bsp.a(alt_close.o)
 .debug_abbrev  0x0000000000003fd7       0x44 c:/GitHub/FAccel-CNN/hardware/intel_fpga/development_kits/terasic_de0_nano/quartus_projects/inference_test/20.1/software/bringup_test_bsp/\libhal_bsp.a(alt_dcache_flush_all.o)
 .debug_abbrev  0x000000000000401b      0x117 c:/GitHub/FAccel-CNN/hardware/intel_fpga/development_kits/terasic_de0_nano/quartus_projects/inference_test/20.1/software/bringup_test_bsp/\libhal_bsp.a(alt_dev.o)
 .debug_abbrev  0x0000000000004132      0x12a c:/GitHub/FAccel-CNN/hardware/intel_fpga/development_kits/terasic_de0_nano/quartus_projects/inference_test/20.1/software/bringup_test_bsp/\libhal_bsp.a(alt_dev_llist_insert.o)
 .debug_abbrev  0x000000000000425c       0x81 c:/GitHub/FAccel-CNN/hardware/intel_fpga/development_kits/terasic_de0_nano/quartus_projects/inference_test/20.1/software/bringup_test_bsp/\libhal_bsp.a(alt_do_ctors.o)
 .debug_abbrev  0x00000000000042dd       0x81 c:/GitHub/FAccel-CNN/hardware/intel_fpga/development_kits/terasic_de0_nano/quartus_projects/inference_test/20.1/software/bringup_test_bsp/\libhal_bsp.a(alt_do_dtors.o)
 .debug_abbrev  0x000000000000435e       0x5a c:/GitHub/FAccel-CNN/hardware/intel_fpga/development_kits/terasic_de0_nano/quartus_projects/inference_test/20.1/software/bringup_test_bsp/\libhal_bsp.a(alt_errno.o)
 .debug_abbrev  0x00000000000043b8       0x44 c:/GitHub/FAccel-CNN/hardware/intel_fpga/development_kits/terasic_de0_nano/quartus_projects/inference_test/20.1/software/bringup_test_bsp/\libhal_bsp.a(alt_icache_flush_all.o)
 .debug_abbrev  0x00000000000043fc      0x189 c:/GitHub/FAccel-CNN/hardware/intel_fpga/development_kits/terasic_de0_nano/quartus_projects/inference_test/20.1/software/bringup_test_bsp/\libhal_bsp.a(alt_iic.o)
 .debug_abbrev  0x0000000000004585      0x17c c:/GitHub/FAccel-CNN/hardware/intel_fpga/development_kits/terasic_de0_nano/quartus_projects/inference_test/20.1/software/bringup_test_bsp/\libhal_bsp.a(alt_iic_isr_register.o)
 .debug_abbrev  0x0000000000004701      0x126 c:/GitHub/FAccel-CNN/hardware/intel_fpga/development_kits/terasic_de0_nano/quartus_projects/inference_test/20.1/software/bringup_test_bsp/\libhal_bsp.a(alt_io_redirect.o)
 .debug_abbrev  0x0000000000004827       0x12 c:/GitHub/FAccel-CNN/hardware/intel_fpga/development_kits/terasic_de0_nano/quartus_projects/inference_test/20.1/software/bringup_test_bsp/\libhal_bsp.a(alt_irq_entry.o)
 .debug_abbrev  0x0000000000004839      0x12d c:/GitHub/FAccel-CNN/hardware/intel_fpga/development_kits/terasic_de0_nano/quartus_projects/inference_test/20.1/software/bringup_test_bsp/\libhal_bsp.a(alt_irq_handler.o)
 .debug_abbrev  0x0000000000004966       0x44 c:/GitHub/FAccel-CNN/hardware/intel_fpga/development_kits/terasic_de0_nano/quartus_projects/inference_test/20.1/software/bringup_test_bsp/\libhal_bsp.a(alt_irq_vars.o)
 .debug_abbrev  0x00000000000049aa      0x160 c:/GitHub/FAccel-CNN/hardware/intel_fpga/development_kits/terasic_de0_nano/quartus_projects/inference_test/20.1/software/bringup_test_bsp/\libhal_bsp.a(alt_open.o)
 .debug_abbrev  0x0000000000004b0a       0xea c:/GitHub/FAccel-CNN/hardware/intel_fpga/development_kits/terasic_de0_nano/quartus_projects/inference_test/20.1/software/bringup_test_bsp/\libhal_bsp.a(alt_release_fd.o)
 .debug_abbrev  0x0000000000004bf4      0x17a c:/GitHub/FAccel-CNN/hardware/intel_fpga/development_kits/terasic_de0_nano/quartus_projects/inference_test/20.1/software/bringup_test_bsp/\libhal_bsp.a(alt_tick.o)
 .debug_abbrev  0x0000000000004d6e       0x44 c:/GitHub/FAccel-CNN/hardware/intel_fpga/development_kits/terasic_de0_nano/quartus_projects/inference_test/20.1/software/bringup_test_bsp/\libhal_bsp.a(altera_nios2_gen2_irq.o)
 .debug_abbrev  0x0000000000004db2       0x12 c:/GitHub/FAccel-CNN/hardware/intel_fpga/development_kits/terasic_de0_nano/quartus_projects/inference_test/20.1/software/bringup_test_bsp/\libhal_bsp.a(alt_exception_entry.o)
 .debug_abbrev  0x0000000000004dc4       0xed c:/GitHub/FAccel-CNN/hardware/intel_fpga/development_kits/terasic_de0_nano/quartus_projects/inference_test/20.1/software/bringup_test_bsp/\libhal_bsp.a(alt_find_dev.o)
 .debug_abbrev  0x0000000000004eb1      0x100 c:/GitHub/FAccel-CNN/hardware/intel_fpga/development_kits/terasic_de0_nano/quartus_projects/inference_test/20.1/software/bringup_test_bsp/\libhal_bsp.a(alt_find_file.o)
 .debug_abbrev  0x0000000000004fb1      0x121 c:/GitHub/FAccel-CNN/hardware/intel_fpga/development_kits/terasic_de0_nano/quartus_projects/inference_test/20.1/software/bringup_test_bsp/\libhal_bsp.a(alt_get_fd.o)
 .debug_abbrev  0x00000000000050d2       0xea c:/GitHub/FAccel-CNN/hardware/intel_fpga/development_kits/terasic_de0_nano/quartus_projects/inference_test/20.1/software/bringup_test_bsp/\libhal_bsp.a(alt_instruction_exception_entry.o)
 .debug_abbrev  0x00000000000051bc       0xb7 c:/intelfpga_lite/20.1/nios2eds/bin/gnu/h-x86_64-mingw32/bin/../lib/gcc/nios2-elf/10.1.1/../../../../../H-x86_64-mingw32/nios2-elf/lib/mno-hw-mul\libc.a(lib_a-atexit.o)
 .debug_abbrev  0x0000000000005273      0x21d c:/intelfpga_lite/20.1/nios2eds/bin/gnu/h-x86_64-mingw32/bin/../lib/gcc/nios2-elf/10.1.1/../../../../../H-x86_64-mingw32/nios2-elf/lib/mno-hw-mul\libc.a(lib_a-exit.o)
 .debug_abbrev  0x0000000000005490       0x39 c:/intelfpga_lite/20.1/nios2eds/bin/gnu/h-x86_64-mingw32/bin/../lib/gcc/nios2-elf/10.1.1/../../../../../H-x86_64-mingw32/nios2-elf/lib/mno-hw-mul\libc.a(lib_a-int_errno.o)
 .debug_abbrev  0x00000000000054c9       0x8d c:/intelfpga_lite/20.1/nios2eds/bin/gnu/h-x86_64-mingw32/bin/../lib/gcc/nios2-elf/10.1.1/../../../../../H-x86_64-mingw32/nios2-elf/lib/mno-hw-mul\libc.a(lib_a-memcmp.o)
 .debug_abbrev  0x0000000000005556      0x244 c:/intelfpga_lite/20.1/nios2eds/bin/gnu/h-x86_64-mingw32/bin/../lib/gcc/nios2-elf/10.1.1/../../../../../H-x86_64-mingw32/nios2-elf/lib/mno-hw-mul\libc.a(lib_a-putchar.o)
 .debug_abbrev  0x000000000000579a       0x8f c:/intelfpga_lite/20.1/nios2eds/bin/gnu/h-x86_64-mingw32/bin/../lib/gcc/nios2-elf/10.1.1/../../../../../H-x86_64-mingw32/nios2-elf/lib/mno-hw-mul\libc.a(lib_a-strlen.o)
 .debug_abbrev  0x0000000000005829      0x250 c:/intelfpga_lite/20.1/nios2eds/bin/gnu/h-x86_64-mingw32/bin/../lib/gcc/nios2-elf/10.1.1/../../../../../H-x86_64-mingw32/nios2-elf/lib/mno-hw-mul\libc.a(lib_a-__atexit.o)
 .debug_abbrev  0x0000000000005a79      0x259 c:/intelfpga_lite/20.1/nios2eds/bin/gnu/h-x86_64-mingw32/bin/../lib/gcc/nios2-elf/10.1.1/../../../../../H-x86_64-mingw32/nios2-elf/lib/mno-hw-mul\libc.a(lib_a-__call_atexit.o)
 .debug_abbrev  0x0000000000005cd2      0x284 c:/intelfpga_lite/20.1/nios2eds/bin/gnu/h-x86_64-mingw32/bin/../lib/gcc/nios2-elf/10.1.1/../../../../../H-x86_64-mingw32/nios2-elf/lib/mno-hw-mul\libc.a(lib_a-putc.o)
 .debug_abbrev  0x0000000000005f56      0x297 c:/intelfpga_lite/20.1/nios2eds/bin/gnu/h-x86_64-mingw32/bin/../lib/gcc/nios2-elf/10.1.1/../../../../../H-x86_64-mingw32/nios2-elf/lib/mno-hw-mul\libc.a(lib_a-wbuf.o)
 .debug_abbrev  0x00000000000061ed      0x257 c:/intelfpga_lite/20.1/nios2eds/bin/gnu/h-x86_64-mingw32/bin/../lib/gcc/nios2-elf/10.1.1/../../../../../H-x86_64-mingw32/nios2-elf/lib/mno-hw-mul\libc.a(lib_a-wsetup.o)
 .debug_abbrev  0x0000000000006444      0x344 c:/intelfpga_lite/20.1/nios2eds/bin/gnu/h-x86_64-mingw32/bin/../lib/gcc/nios2-elf/10.1.1/../../../../../H-x86_64-mingw32/nios2-elf/lib/mno-hw-mul\libc.a(lib_a-fflush.o)
 .debug_abbrev  0x0000000000006788      0x464 c:/intelfpga_lite/20.1/nios2eds/bin/gnu/h-x86_64-mingw32/bin/../lib/gcc/nios2-elf/10.1.1/../../../../../H-x86_64-mingw32/nios2-elf/lib/mno-hw-mul\libc.a(lib_a-findfp.o)
 .debug_abbrev  0x0000000000006bec      0x2b1 c:/intelfpga_lite/20.1/nios2eds/bin/gnu/h-x86_64-mingw32/bin/../lib/gcc/nios2-elf/10.1.1/../../../../../H-x86_64-mingw32/nios2-elf/lib/mno-hw-mul\libc.a(lib_a-freer.o)
 .debug_abbrev  0x0000000000006e9d      0x20f c:/intelfpga_lite/20.1/nios2eds/bin/gnu/h-x86_64-mingw32/bin/../lib/gcc/nios2-elf/10.1.1/../../../../../H-x86_64-mingw32/nios2-elf/lib/mno-hw-mul\libc.a(lib_a-fwalk.o)
 .debug_abbrev  0x00000000000070ac      0x308 c:/intelfpga_lite/20.1/nios2eds/bin/gnu/h-x86_64-mingw32/bin/../lib/gcc/nios2-elf/10.1.1/../../../../../H-x86_64-mingw32/nios2-elf/lib/mno-hw-mul\libc.a(lib_a-makebuf.o)
 .debug_abbrev  0x00000000000073b4      0x2f6 c:/intelfpga_lite/20.1/nios2eds/bin/gnu/h-x86_64-mingw32/bin/../lib/gcc/nios2-elf/10.1.1/../../../../../H-x86_64-mingw32/nios2-elf/lib/mno-hw-mul\libc.a(lib_a-mallocr.o)
 .debug_abbrev  0x00000000000076aa       0xb4 c:/intelfpga_lite/20.1/nios2eds/bin/gnu/h-x86_64-mingw32/bin/../lib/gcc/nios2-elf/10.1.1/../../../../../H-x86_64-mingw32/nios2-elf/lib/mno-hw-mul\libc.a(lib_a-memset.o)
 .debug_abbrev  0x000000000000775e      0x24e c:/intelfpga_lite/20.1/nios2eds/bin/gnu/h-x86_64-mingw32/bin/../lib/gcc/nios2-elf/10.1.1/../../../../../H-x86_64-mingw32/nios2-elf/lib/mno-hw-mul\libc.a(lib_a-sbrkr.o)
 .debug_abbrev  0x00000000000079ac      0x273 c:/intelfpga_lite/20.1/nios2eds/bin/gnu/h-x86_64-mingw32/bin/../lib/gcc/nios2-elf/10.1.1/../../../../../H-x86_64-mingw32/nios2-elf/lib/mno-hw-mul\libc.a(lib_a-stdio.o)
 .debug_abbrev  0x0000000000007c1f      0x228 c:/intelfpga_lite/20.1/nios2eds/bin/gnu/h-x86_64-mingw32/bin/../lib/gcc/nios2-elf/10.1.1/../../../../../H-x86_64-mingw32/nios2-elf/lib/mno-hw-mul\libc.a(lib_a-writer.o)
 .debug_abbrev  0x0000000000007e47      0x223 c:/intelfpga_lite/20.1/nios2eds/bin/gnu/h-x86_64-mingw32/bin/../lib/gcc/nios2-elf/10.1.1/../../../../../H-x86_64-mingw32/nios2-elf/lib/mno-hw-mul\libc.a(closer.o)
 .debug_abbrev  0x000000000000806a      0x317 c:/intelfpga_lite/20.1/nios2eds/bin/gnu/h-x86_64-mingw32/bin/../lib/gcc/nios2-elf/10.1.1/../../../../../H-x86_64-mingw32/nios2-elf/lib/mno-hw-mul\libc.a(lib_a-fclose.o)
 .debug_abbrev  0x0000000000008381      0x237 c:/intelfpga_lite/20.1/nios2eds/bin/gnu/h-x86_64-mingw32/bin/../lib/gcc/nios2-elf/10.1.1/../../../../../H-x86_64-mingw32/nios2-elf/lib/mno-hw-mul\libc.a(lib_a-fstatr.o)
 .debug_abbrev  0x00000000000085b8      0x223 c:/intelfpga_lite/20.1/nios2eds/bin/gnu/h-x86_64-mingw32/bin/../lib/gcc/nios2-elf/10.1.1/../../../../../H-x86_64-mingw32/nios2-elf/lib/mno-hw-mul\libc.a(lib_a-isattyr.o)
 .debug_abbrev  0x00000000000087db      0x237 c:/intelfpga_lite/20.1/nios2eds/bin/gnu/h-x86_64-mingw32/bin/../lib/gcc/nios2-elf/10.1.1/../../../../../H-x86_64-mingw32/nios2-elf/lib/mno-hw-mul\libc.a(lib_a-lseekr.o)
 .debug_abbrev  0x0000000000008a12      0x223 c:/intelfpga_lite/20.1/nios2eds/bin/gnu/h-x86_64-mingw32/bin/../lib/gcc/nios2-elf/10.1.1/../../../../../H-x86_64-mingw32/nios2-elf/lib/mno-hw-mul\libc.a(lib_a-readr.o)
 .debug_abbrev  0x0000000000008c35       0xac c:/GitHub/FAccel-CNN/hardware/intel_fpga/development_kits/terasic_de0_nano/quartus_projects/inference_test/20.1/software/bringup_test_bsp/\libhal_bsp.a(alt_exit.o)
 .debug_abbrev  0x0000000000008ce1      0x133 c:/GitHub/FAccel-CNN/hardware/intel_fpga/development_kits/terasic_de0_nano/quartus_projects/inference_test/20.1/software/bringup_test_bsp/\libhal_bsp.a(alt_fstat.o)
 .debug_abbrev  0x0000000000008e14      0x133 c:/GitHub/FAccel-CNN/hardware/intel_fpga/development_kits/terasic_de0_nano/quartus_projects/inference_test/20.1/software/bringup_test_bsp/\libhal_bsp.a(alt_isatty.o)
 .debug_abbrev  0x0000000000008f47      0x133 c:/GitHub/FAccel-CNN/hardware/intel_fpga/development_kits/terasic_de0_nano/quartus_projects/inference_test/20.1/software/bringup_test_bsp/\libhal_bsp.a(alt_lseek.o)
 .debug_abbrev  0x000000000000907a      0x1e7 c:/GitHub/FAccel-CNN/hardware/intel_fpga/development_kits/terasic_de0_nano/quartus_projects/inference_test/20.1/software/bringup_test_bsp/\libhal_bsp.a(alt_malloc_lock.o)
 .debug_abbrev  0x0000000000009261      0x144 c:/GitHub/FAccel-CNN/hardware/intel_fpga/development_kits/terasic_de0_nano/quartus_projects/inference_test/20.1/software/bringup_test_bsp/\libhal_bsp.a(alt_read.o)
 .debug_abbrev  0x00000000000093a5      0x11d c:/GitHub/FAccel-CNN/hardware/intel_fpga/development_kits/terasic_de0_nano/quartus_projects/inference_test/20.1/software/bringup_test_bsp/\libhal_bsp.a(alt_sbrk.o)
 .debug_abbrev  0x00000000000094c2      0x149 c:/GitHub/FAccel-CNN/hardware/intel_fpga/development_kits/terasic_de0_nano/quartus_projects/inference_test/20.1/software/bringup_test_bsp/\libhal_bsp.a(alt_write.o)

.debug_line     0x0000000000000000    0x114e6
 *(.debug_line)
 .debug_line    0x0000000000000000       0x66 c:/GitHub/FAccel-CNN/hardware/intel_fpga/development_kits/terasic_de0_nano/quartus_projects/inference_test/20.1/software/bringup_test_bsp//obj/HAL/src/crt0.o
 .debug_line    0x0000000000000066      0x918 obj/default/bringup_test.o
 .debug_line    0x000000000000097e      0xcc0 obj/default/printf.o
 .debug_line    0x000000000000163e      0x1f4 c:/intelfpga_lite/20.1/nios2eds/bin/gnu/h-x86_64-mingw32/bin/../lib/gcc/nios2-elf/10.1.1/../../../../../H-x86_64-mingw32/nios2-elf/lib/mno-hw-mul\libm.a(lib_a-wf_exp.o)
 .debug_line    0x0000000000001832      0x1e7 c:/intelfpga_lite/20.1/nios2eds/bin/gnu/h-x86_64-mingw32/bin/../lib/gcc/nios2-elf/10.1.1/../../../../../H-x86_64-mingw32/nios2-elf/lib/mno-hw-mul\libm.a(lib_a-wf_log.o)
 .debug_line    0x0000000000001a19      0x35d c:/intelfpga_lite/20.1/nios2eds/bin/gnu/h-x86_64-mingw32/bin/../lib/gcc/nios2-elf/10.1.1/../../../../../H-x86_64-mingw32/nios2-elf/lib/mno-hw-mul\libm.a(lib_a-ef_exp.o)
 .debug_line    0x0000000000001d76      0x3fb c:/intelfpga_lite/20.1/nios2eds/bin/gnu/h-x86_64-mingw32/bin/../lib/gcc/nios2-elf/10.1.1/../../../../../H-x86_64-mingw32/nios2-elf/lib/mno-hw-mul\libm.a(lib_a-ef_log.o)
 .debug_line    0x0000000000002171       0xcf c:/intelfpga_lite/20.1/nios2eds/bin/gnu/h-x86_64-mingw32/bin/../lib/gcc/nios2-elf/10.1.1/../../../../../H-x86_64-mingw32/nios2-elf/lib/mno-hw-mul\libm.a(lib_a-s_lib_ver.o)
 .debug_line    0x0000000000002240       0x98 c:/intelfpga_lite/20.1/nios2eds/bin/gnu/h-x86_64-mingw32/bin/../lib/gcc/nios2-elf/10.1.1/mno-hw-mul\libgcc.a(_fixunsdfsi.o)
 .debug_line    0x00000000000022d8      0x365 c:/intelfpga_lite/20.1/nios2eds/bin/gnu/h-x86_64-mingw32/bin/../lib/gcc/nios2-elf/10.1.1/mno-hw-mul\libgcc.a(_udivdi3.o)
 .debug_line    0x000000000000263d      0x395 c:/intelfpga_lite/20.1/nios2eds/bin/gnu/h-x86_64-mingw32/bin/../lib/gcc/nios2-elf/10.1.1/mno-hw-mul\libgcc.a(_umoddi3.o)
 .debug_line    0x00000000000029d2      0x306 c:/intelfpga_lite/20.1/nios2eds/bin/gnu/h-x86_64-mingw32/bin/../lib/gcc/nios2-elf/10.1.1/mno-hw-mul\libgcc.a(lib2-divmod.o)
 .debug_line    0x0000000000002cd8       0xb7 c:/intelfpga_lite/20.1/nios2eds/bin/gnu/h-x86_64-mingw32/bin/../lib/gcc/nios2-elf/10.1.1/mno-hw-mul\libgcc.a(lib2-mul.o)
 .debug_line    0x0000000000002d8f      0x623 c:/intelfpga_lite/20.1/nios2eds/bin/gnu/h-x86_64-mingw32/bin/../lib/gcc/nios2-elf/10.1.1/mno-hw-mul\libgcc.a(addsf3.o)
 .debug_line    0x00000000000033b2      0x528 c:/intelfpga_lite/20.1/nios2eds/bin/gnu/h-x86_64-mingw32/bin/../lib/gcc/nios2-elf/10.1.1/mno-hw-mul\libgcc.a(divsf3.o)
 .debug_line    0x00000000000038da      0x10d c:/intelfpga_lite/20.1/nios2eds/bin/gnu/h-x86_64-mingw32/bin/../lib/gcc/nios2-elf/10.1.1/mno-hw-mul\libgcc.a(eqsf2.o)
 .debug_line    0x00000000000039e7      0x146 c:/intelfpga_lite/20.1/nios2eds/bin/gnu/h-x86_64-mingw32/bin/../lib/gcc/nios2-elf/10.1.1/mno-hw-mul\libgcc.a(gesf2.o)
 .debug_line    0x0000000000003b2d      0x146 c:/intelfpga_lite/20.1/nios2eds/bin/gnu/h-x86_64-mingw32/bin/../lib/gcc/nios2-elf/10.1.1/mno-hw-mul\libgcc.a(lesf2.o)
 .debug_line    0x0000000000003c73      0x546 c:/intelfpga_lite/20.1/nios2eds/bin/gnu/h-x86_64-mingw32/bin/../lib/gcc/nios2-elf/10.1.1/mno-hw-mul\libgcc.a(mulsf3.o)
 .debug_line    0x00000000000041b9      0x687 c:/intelfpga_lite/20.1/nios2eds/bin/gnu/h-x86_64-mingw32/bin/../lib/gcc/nios2-elf/10.1.1/mno-hw-mul\libgcc.a(subsf3.o)
 .debug_line    0x0000000000004840       0xd3 c:/intelfpga_lite/20.1/nios2eds/bin/gnu/h-x86_64-mingw32/bin/../lib/gcc/nios2-elf/10.1.1/mno-hw-mul\libgcc.a(unordsf2.o)
 .debug_line    0x0000000000004913      0x11d c:/intelfpga_lite/20.1/nios2eds/bin/gnu/h-x86_64-mingw32/bin/../lib/gcc/nios2-elf/10.1.1/mno-hw-mul\libgcc.a(fixsfsi.o)
 .debug_line    0x0000000000004a30      0x218 c:/intelfpga_lite/20.1/nios2eds/bin/gnu/h-x86_64-mingw32/bin/../lib/gcc/nios2-elf/10.1.1/mno-hw-mul\libgcc.a(floatsisf.o)
 .debug_line    0x0000000000004c48      0x206 c:/intelfpga_lite/20.1/nios2eds/bin/gnu/h-x86_64-mingw32/bin/../lib/gcc/nios2-elf/10.1.1/mno-hw-mul\libgcc.a(floatunsisf.o)
 .debug_line    0x0000000000004e4e      0xd53 c:/intelfpga_lite/20.1/nios2eds/bin/gnu/h-x86_64-mingw32/bin/../lib/gcc/nios2-elf/10.1.1/mno-hw-mul\libgcc.a(adddf3.o)
 .debug_line    0x0000000000005ba1      0xb4f c:/intelfpga_lite/20.1/nios2eds/bin/gnu/h-x86_64-mingw32/bin/../lib/gcc/nios2-elf/10.1.1/mno-hw-mul\libgcc.a(divdf3.o)
 .debug_line    0x00000000000066f0      0x10f c:/intelfpga_lite/20.1/nios2eds/bin/gnu/h-x86_64-mingw32/bin/../lib/gcc/nios2-elf/10.1.1/mno-hw-mul\libgcc.a(eqdf2.o)
 .debug_line    0x00000000000067ff      0x16a c:/intelfpga_lite/20.1/nios2eds/bin/gnu/h-x86_64-mingw32/bin/../lib/gcc/nios2-elf/10.1.1/mno-hw-mul\libgcc.a(gedf2.o)
 .debug_line    0x0000000000006969      0x16a c:/intelfpga_lite/20.1/nios2eds/bin/gnu/h-x86_64-mingw32/bin/../lib/gcc/nios2-elf/10.1.1/mno-hw-mul\libgcc.a(ledf2.o)
 .debug_line    0x0000000000006ad3      0x9d4 c:/intelfpga_lite/20.1/nios2eds/bin/gnu/h-x86_64-mingw32/bin/../lib/gcc/nios2-elf/10.1.1/mno-hw-mul\libgcc.a(muldf3.o)
 .debug_line    0x00000000000074a7      0xd1c c:/intelfpga_lite/20.1/nios2eds/bin/gnu/h-x86_64-mingw32/bin/../lib/gcc/nios2-elf/10.1.1/mno-hw-mul\libgcc.a(subdf3.o)
 .debug_line    0x00000000000081c3      0x131 c:/intelfpga_lite/20.1/nios2eds/bin/gnu/h-x86_64-mingw32/bin/../lib/gcc/nios2-elf/10.1.1/mno-hw-mul\libgcc.a(fixdfsi.o)
 .debug_line    0x00000000000082f4      0x1e6 c:/intelfpga_lite/20.1/nios2eds/bin/gnu/h-x86_64-mingw32/bin/../lib/gcc/nios2-elf/10.1.1/mno-hw-mul\libgcc.a(floatsidf.o)
 .debug_line    0x00000000000084da      0x1d1 c:/intelfpga_lite/20.1/nios2eds/bin/gnu/h-x86_64-mingw32/bin/../lib/gcc/nios2-elf/10.1.1/mno-hw-mul\libgcc.a(floatunsidf.o)
 .debug_line    0x00000000000086ab      0x280 c:/intelfpga_lite/20.1/nios2eds/bin/gnu/h-x86_64-mingw32/bin/../lib/gcc/nios2-elf/10.1.1/mno-hw-mul\libgcc.a(extendsfdf2.o)
 .debug_line    0x000000000000892b       0x59 c:/intelfpga_lite/20.1/nios2eds/bin/gnu/h-x86_64-mingw32/bin/../lib/gcc/nios2-elf/10.1.1/mno-hw-mul\libgcc.a(_clz.o)
 .debug_line    0x0000000000008984       0xaa c:/intelfpga_lite/20.1/nios2eds/bin/gnu/h-x86_64-mingw32/bin/../lib/gcc/nios2-elf/10.1.1/mno-hw-mul\libgcc.a(_clzsi2.o)
 .debug_line    0x0000000000008a2e      0x189 c:/intelfpga_lite/20.1/nios2eds/bin/gnu/h-x86_64-mingw32/bin/../lib/gcc/nios2-elf/10.1.1/../../../../../H-x86_64-mingw32/nios2-elf/lib/mno-hw-mul\libc.a(lib_a-errno.o)
 .debug_line    0x0000000000008bb7      0x167 c:/intelfpga_lite/20.1/nios2eds/bin/gnu/h-x86_64-mingw32/bin/../lib/gcc/nios2-elf/10.1.1/../../../../../H-x86_64-mingw32/nios2-elf/lib/mno-hw-mul\libc.a(lib_a-impure.o)
 .debug_line    0x0000000000008d1e      0x238 c:/intelfpga_lite/20.1/nios2eds/bin/gnu/h-x86_64-mingw32/bin/../lib/gcc/nios2-elf/10.1.1/../../../../../H-x86_64-mingw32/nios2-elf/lib/mno-hw-mul\libc.a(lib_a-memcpy.o)
 .debug_line    0x0000000000008f56       0xa6 c:/GitHub/FAccel-CNN/hardware/intel_fpga/development_kits/terasic_de0_nano/quartus_projects/inference_test/20.1/software/bringup_test_bsp/\libhal_bsp.a(alt_load.o)
 .debug_line    0x0000000000008ffc       0x85 c:/GitHub/FAccel-CNN/hardware/intel_fpga/development_kits/terasic_de0_nano/quartus_projects/inference_test/20.1/software/bringup_test_bsp/\libhal_bsp.a(alt_main.o)
 .debug_line    0x0000000000009081      0x152 c:/GitHub/FAccel-CNN/hardware/intel_fpga/development_kits/terasic_de0_nano/quartus_projects/inference_test/20.1/software/bringup_test_bsp/\libhal_bsp.a(alt_printf.o)
 .debug_line    0x00000000000091d3       0x50 c:/GitHub/FAccel-CNN/hardware/intel_fpga/development_kits/terasic_de0_nano/quartus_projects/inference_test/20.1/software/bringup_test_bsp/\libhal_bsp.a(alt_putchar.o)
 .debug_line    0x0000000000009223      0x145 c:/GitHub/FAccel-CNN/hardware/intel_fpga/development_kits/terasic_de0_nano/quartus_projects/inference_test/20.1/software/bringup_test_bsp/\libhal_bsp.a(alt_sys_init.o)
 .debug_line    0x0000000000009368      0x149 c:/GitHub/FAccel-CNN/hardware/intel_fpga/development_kits/terasic_de0_nano/quartus_projects/inference_test/20.1/software/bringup_test_bsp/\libhal_bsp.a(altera_avalon_jtag_uart_fd.o)
 .debug_line    0x00000000000094b1      0x25b c:/GitHub/FAccel-CNN/hardware/intel_fpga/development_kits/terasic_de0_nano/quartus_projects/inference_test/20.1/software/bringup_test_bsp/\libhal_bsp.a(altera_avalon_jtag_uart_init.o)
 .debug_line    0x000000000000970c      0x154 c:/GitHub/FAccel-CNN/hardware/intel_fpga/development_kits/terasic_de0_nano/quartus_projects/inference_test/20.1/software/bringup_test_bsp/\libhal_bsp.a(altera_avalon_jtag_uart_ioctl.o)
 .debug_line    0x0000000000009860      0x1d1 c:/GitHub/FAccel-CNN/hardware/intel_fpga/development_kits/terasic_de0_nano/quartus_projects/inference_test/20.1/software/bringup_test_bsp/\libhal_bsp.a(altera_avalon_jtag_uart_read.o)
 .debug_line    0x0000000000009a31      0x1d6 c:/GitHub/FAccel-CNN/hardware/intel_fpga/development_kits/terasic_de0_nano/quartus_projects/inference_test/20.1/software/bringup_test_bsp/\libhal_bsp.a(altera_avalon_jtag_uart_write.o)
 .debug_line    0x0000000000009c07      0x138 c:/GitHub/FAccel-CNN/hardware/intel_fpga/development_kits/terasic_de0_nano/quartus_projects/inference_test/20.1/software/bringup_test_bsp/\libhal_bsp.a(alt_alarm_start.o)
 .debug_line    0x0000000000009d3f      0x1ad c:/GitHub/FAccel-CNN/hardware/intel_fpga/development_kits/terasic_de0_nano/quartus_projects/inference_test/20.1/software/bringup_test_bsp/\libhal_bsp.a(alt_close.o)
 .debug_line    0x0000000000009eec       0x53 c:/GitHub/FAccel-CNN/hardware/intel_fpga/development_kits/terasic_de0_nano/quartus_projects/inference_test/20.1/software/bringup_test_bsp/\libhal_bsp.a(alt_dcache_flush_all.o)
 .debug_line    0x0000000000009f3f      0x19f c:/GitHub/FAccel-CNN/hardware/intel_fpga/development_kits/terasic_de0_nano/quartus_projects/inference_test/20.1/software/bringup_test_bsp/\libhal_bsp.a(alt_dev.o)
 .debug_line    0x000000000000a0de      0x106 c:/GitHub/FAccel-CNN/hardware/intel_fpga/development_kits/terasic_de0_nano/quartus_projects/inference_test/20.1/software/bringup_test_bsp/\libhal_bsp.a(alt_dev_llist_insert.o)
 .debug_line    0x000000000000a1e4       0x66 c:/GitHub/FAccel-CNN/hardware/intel_fpga/development_kits/terasic_de0_nano/quartus_projects/inference_test/20.1/software/bringup_test_bsp/\libhal_bsp.a(alt_do_ctors.o)
 .debug_line    0x000000000000a24a       0x66 c:/GitHub/FAccel-CNN/hardware/intel_fpga/development_kits/terasic_de0_nano/quartus_projects/inference_test/20.1/software/bringup_test_bsp/\libhal_bsp.a(alt_do_dtors.o)
 .debug_line    0x000000000000a2b0       0x51 c:/GitHub/FAccel-CNN/hardware/intel_fpga/development_kits/terasic_de0_nano/quartus_projects/inference_test/20.1/software/bringup_test_bsp/\libhal_bsp.a(alt_errno.o)
 .debug_line    0x000000000000a301       0x51 c:/GitHub/FAccel-CNN/hardware/intel_fpga/development_kits/terasic_de0_nano/quartus_projects/inference_test/20.1/software/bringup_test_bsp/\libhal_bsp.a(alt_icache_flush_all.o)
 .debug_line    0x000000000000a352      0x123 c:/GitHub/FAccel-CNN/hardware/intel_fpga/development_kits/terasic_de0_nano/quartus_projects/inference_test/20.1/software/bringup_test_bsp/\libhal_bsp.a(alt_iic.o)
 .debug_line    0x000000000000a475       0xfc c:/GitHub/FAccel-CNN/hardware/intel_fpga/development_kits/terasic_de0_nano/quartus_projects/inference_test/20.1/software/bringup_test_bsp/\libhal_bsp.a(alt_iic_isr_register.o)
 .debug_line    0x000000000000a571      0x1d2 c:/GitHub/FAccel-CNN/hardware/intel_fpga/development_kits/terasic_de0_nano/quartus_projects/inference_test/20.1/software/bringup_test_bsp/\libhal_bsp.a(alt_io_redirect.o)
 .debug_line    0x000000000000a743       0x6b c:/GitHub/FAccel-CNN/hardware/intel_fpga/development_kits/terasic_de0_nano/quartus_projects/inference_test/20.1/software/bringup_test_bsp/\libhal_bsp.a(alt_irq_entry.o)
 .debug_line    0x000000000000a7ae       0xd4 c:/GitHub/FAccel-CNN/hardware/intel_fpga/development_kits/terasic_de0_nano/quartus_projects/inference_test/20.1/software/bringup_test_bsp/\libhal_bsp.a(alt_irq_handler.o)
 .debug_line    0x000000000000a882       0x50 c:/GitHub/FAccel-CNN/hardware/intel_fpga/development_kits/terasic_de0_nano/quartus_projects/inference_test/20.1/software/bringup_test_bsp/\libhal_bsp.a(alt_irq_vars.o)
 .debug_line    0x000000000000a8d2      0x1a1 c:/GitHub/FAccel-CNN/hardware/intel_fpga/development_kits/terasic_de0_nano/quartus_projects/inference_test/20.1/software/bringup_test_bsp/\libhal_bsp.a(alt_open.o)
 .debug_line    0x000000000000aa73       0xb6 c:/GitHub/FAccel-CNN/hardware/intel_fpga/development_kits/terasic_de0_nano/quartus_projects/inference_test/20.1/software/bringup_test_bsp/\libhal_bsp.a(alt_release_fd.o)
 .debug_line    0x000000000000ab29      0x160 c:/GitHub/FAccel-CNN/hardware/intel_fpga/development_kits/terasic_de0_nano/quartus_projects/inference_test/20.1/software/bringup_test_bsp/\libhal_bsp.a(alt_tick.o)
 .debug_line    0x000000000000ac89       0x57 c:/GitHub/FAccel-CNN/hardware/intel_fpga/development_kits/terasic_de0_nano/quartus_projects/inference_test/20.1/software/bringup_test_bsp/\libhal_bsp.a(altera_nios2_gen2_irq.o)
 .debug_line    0x000000000000ace0       0xb3 c:/GitHub/FAccel-CNN/hardware/intel_fpga/development_kits/terasic_de0_nano/quartus_projects/inference_test/20.1/software/bringup_test_bsp/\libhal_bsp.a(alt_exception_entry.o)
 .debug_line    0x000000000000ad93       0xb8 c:/GitHub/FAccel-CNN/hardware/intel_fpga/development_kits/terasic_de0_nano/quartus_projects/inference_test/20.1/software/bringup_test_bsp/\libhal_bsp.a(alt_find_dev.o)
 .debug_line    0x000000000000ae4b      0x103 c:/GitHub/FAccel-CNN/hardware/intel_fpga/development_kits/terasic_de0_nano/quartus_projects/inference_test/20.1/software/bringup_test_bsp/\libhal_bsp.a(alt_find_file.o)
 .debug_line    0x000000000000af4e       0xfb c:/GitHub/FAccel-CNN/hardware/intel_fpga/development_kits/terasic_de0_nano/quartus_projects/inference_test/20.1/software/bringup_test_bsp/\libhal_bsp.a(alt_get_fd.o)
 .debug_line    0x000000000000b049       0xd3 c:/GitHub/FAccel-CNN/hardware/intel_fpga/development_kits/terasic_de0_nano/quartus_projects/inference_test/20.1/software/bringup_test_bsp/\libhal_bsp.a(alt_instruction_exception_entry.o)
 .debug_line    0x000000000000b11c       0xf7 c:/intelfpga_lite/20.1/nios2eds/bin/gnu/h-x86_64-mingw32/bin/../lib/gcc/nios2-elf/10.1.1/../../../../../H-x86_64-mingw32/nios2-elf/lib/mno-hw-mul\libc.a(lib_a-atexit.o)
 .debug_line    0x000000000000b213      0x22a c:/intelfpga_lite/20.1/nios2eds/bin/gnu/h-x86_64-mingw32/bin/../lib/gcc/nios2-elf/10.1.1/../../../../../H-x86_64-mingw32/nios2-elf/lib/mno-hw-mul\libc.a(lib_a-exit.o)
 .debug_line    0x000000000000b43d       0x61 c:/intelfpga_lite/20.1/nios2eds/bin/gnu/h-x86_64-mingw32/bin/../lib/gcc/nios2-elf/10.1.1/../../../../../H-x86_64-mingw32/nios2-elf/lib/mno-hw-mul\libc.a(lib_a-int_errno.o)
 .debug_line    0x000000000000b49e      0x1e6 c:/intelfpga_lite/20.1/nios2eds/bin/gnu/h-x86_64-mingw32/bin/../lib/gcc/nios2-elf/10.1.1/../../../../../H-x86_64-mingw32/nios2-elf/lib/mno-hw-mul\libc.a(lib_a-memcmp.o)
 .debug_line    0x000000000000b684      0x220 c:/intelfpga_lite/20.1/nios2eds/bin/gnu/h-x86_64-mingw32/bin/../lib/gcc/nios2-elf/10.1.1/../../../../../H-x86_64-mingw32/nios2-elf/lib/mno-hw-mul\libc.a(lib_a-putchar.o)
 .debug_line    0x000000000000b8a4      0x1db c:/intelfpga_lite/20.1/nios2eds/bin/gnu/h-x86_64-mingw32/bin/../lib/gcc/nios2-elf/10.1.1/../../../../../H-x86_64-mingw32/nios2-elf/lib/mno-hw-mul\libc.a(lib_a-strlen.o)
 .debug_line    0x000000000000ba7f      0x21b c:/intelfpga_lite/20.1/nios2eds/bin/gnu/h-x86_64-mingw32/bin/../lib/gcc/nios2-elf/10.1.1/../../../../../H-x86_64-mingw32/nios2-elf/lib/mno-hw-mul\libc.a(lib_a-__atexit.o)
 .debug_line    0x000000000000bc9a      0x2a3 c:/intelfpga_lite/20.1/nios2eds/bin/gnu/h-x86_64-mingw32/bin/../lib/gcc/nios2-elf/10.1.1/../../../../../H-x86_64-mingw32/nios2-elf/lib/mno-hw-mul\libc.a(lib_a-__call_atexit.o)
 .debug_line    0x000000000000bf3d      0x3a7 c:/intelfpga_lite/20.1/nios2eds/bin/gnu/h-x86_64-mingw32/bin/../lib/gcc/nios2-elf/10.1.1/../../../../../H-x86_64-mingw32/nios2-elf/lib/mno-hw-mul\libc.a(lib_a-putc.o)
 .debug_line    0x000000000000c2e4      0x385 c:/intelfpga_lite/20.1/nios2eds/bin/gnu/h-x86_64-mingw32/bin/../lib/gcc/nios2-elf/10.1.1/../../../../../H-x86_64-mingw32/nios2-elf/lib/mno-hw-mul\libc.a(lib_a-wbuf.o)
 .debug_line    0x000000000000c669      0x3c1 c:/intelfpga_lite/20.1/nios2eds/bin/gnu/h-x86_64-mingw32/bin/../lib/gcc/nios2-elf/10.1.1/../../../../../H-x86_64-mingw32/nios2-elf/lib/mno-hw-mul\libc.a(lib_a-wsetup.o)
 .debug_line    0x000000000000ca2a      0x567 c:/intelfpga_lite/20.1/nios2eds/bin/gnu/h-x86_64-mingw32/bin/../lib/gcc/nios2-elf/10.1.1/../../../../../H-x86_64-mingw32/nios2-elf/lib/mno-hw-mul\libc.a(lib_a-fflush.o)
 .debug_line    0x000000000000cf91      0x6a1 c:/intelfpga_lite/20.1/nios2eds/bin/gnu/h-x86_64-mingw32/bin/../lib/gcc/nios2-elf/10.1.1/../../../../../H-x86_64-mingw32/nios2-elf/lib/mno-hw-mul\libc.a(lib_a-findfp.o)
 .debug_line    0x000000000000d632      0x5cb c:/intelfpga_lite/20.1/nios2eds/bin/gnu/h-x86_64-mingw32/bin/../lib/gcc/nios2-elf/10.1.1/../../../../../H-x86_64-mingw32/nios2-elf/lib/mno-hw-mul\libc.a(lib_a-freer.o)
 .debug_line    0x000000000000dbfd      0x369 c:/intelfpga_lite/20.1/nios2eds/bin/gnu/h-x86_64-mingw32/bin/../lib/gcc/nios2-elf/10.1.1/../../../../../H-x86_64-mingw32/nios2-elf/lib/mno-hw-mul\libc.a(lib_a-fwalk.o)
 .debug_line    0x000000000000df66      0x4e7 c:/intelfpga_lite/20.1/nios2eds/bin/gnu/h-x86_64-mingw32/bin/../lib/gcc/nios2-elf/10.1.1/../../../../../H-x86_64-mingw32/nios2-elf/lib/mno-hw-mul\libc.a(lib_a-makebuf.o)
 .debug_line    0x000000000000e44d      0x97b c:/intelfpga_lite/20.1/nios2eds/bin/gnu/h-x86_64-mingw32/bin/../lib/gcc/nios2-elf/10.1.1/../../../../../H-x86_64-mingw32/nios2-elf/lib/mno-hw-mul\libc.a(lib_a-mallocr.o)
 .debug_line    0x000000000000edc8      0x259 c:/intelfpga_lite/20.1/nios2eds/bin/gnu/h-x86_64-mingw32/bin/../lib/gcc/nios2-elf/10.1.1/../../../../../H-x86_64-mingw32/nios2-elf/lib/mno-hw-mul\libc.a(lib_a-memset.o)
 .debug_line    0x000000000000f021      0x22b c:/intelfpga_lite/20.1/nios2eds/bin/gnu/h-x86_64-mingw32/bin/../lib/gcc/nios2-elf/10.1.1/../../../../../H-x86_64-mingw32/nios2-elf/lib/mno-hw-mul\libc.a(lib_a-sbrkr.o)
 .debug_line    0x000000000000f24c      0x339 c:/intelfpga_lite/20.1/nios2eds/bin/gnu/h-x86_64-mingw32/bin/../lib/gcc/nios2-elf/10.1.1/../../../../../H-x86_64-mingw32/nios2-elf/lib/mno-hw-mul\libc.a(lib_a-stdio.o)
 .debug_line    0x000000000000f585      0x238 c:/intelfpga_lite/20.1/nios2eds/bin/gnu/h-x86_64-mingw32/bin/../lib/gcc/nios2-elf/10.1.1/../../../../../H-x86_64-mingw32/nios2-elf/lib/mno-hw-mul\libc.a(lib_a-writer.o)
 .debug_line    0x000000000000f7bd      0x237 c:/intelfpga_lite/20.1/nios2eds/bin/gnu/h-x86_64-mingw32/bin/../lib/gcc/nios2-elf/10.1.1/../../../../../H-x86_64-mingw32/nios2-elf/lib/mno-hw-mul\libc.a(closer.o)
 .debug_line    0x000000000000f9f4      0x390 c:/intelfpga_lite/20.1/nios2eds/bin/gnu/h-x86_64-mingw32/bin/../lib/gcc/nios2-elf/10.1.1/../../../../../H-x86_64-mingw32/nios2-elf/lib/mno-hw-mul\libc.a(lib_a-fclose.o)
 .debug_line    0x000000000000fd84      0x2dd c:/intelfpga_lite/20.1/nios2eds/bin/gnu/h-x86_64-mingw32/bin/../lib/gcc/nios2-elf/10.1.1/../../../../../H-x86_64-mingw32/nios2-elf/lib/mno-hw-mul\libc.a(lib_a-fstatr.o)
 .debug_line    0x0000000000010061      0x238 c:/intelfpga_lite/20.1/nios2eds/bin/gnu/h-x86_64-mingw32/bin/../lib/gcc/nios2-elf/10.1.1/../../../../../H-x86_64-mingw32/nios2-elf/lib/mno-hw-mul\libc.a(lib_a-isattyr.o)
 .debug_line    0x0000000000010299      0x238 c:/intelfpga_lite/20.1/nios2eds/bin/gnu/h-x86_64-mingw32/bin/../lib/gcc/nios2-elf/10.1.1/../../../../../H-x86_64-mingw32/nios2-elf/lib/mno-hw-mul\libc.a(lib_a-lseekr.o)
 .debug_line    0x00000000000104d1      0x237 c:/intelfpga_lite/20.1/nios2eds/bin/gnu/h-x86_64-mingw32/bin/../lib/gcc/nios2-elf/10.1.1/../../../../../H-x86_64-mingw32/nios2-elf/lib/mno-hw-mul\libc.a(lib_a-readr.o)
 .debug_line    0x0000000000010708       0x85 c:/GitHub/FAccel-CNN/hardware/intel_fpga/development_kits/terasic_de0_nano/quartus_projects/inference_test/20.1/software/bringup_test_bsp/\libhal_bsp.a(alt_exit.o)
 .debug_line    0x000000000001078d      0x215 c:/GitHub/FAccel-CNN/hardware/intel_fpga/development_kits/terasic_de0_nano/quartus_projects/inference_test/20.1/software/bringup_test_bsp/\libhal_bsp.a(alt_fstat.o)
 .debug_line    0x00000000000109a2      0x217 c:/GitHub/FAccel-CNN/hardware/intel_fpga/development_kits/terasic_de0_nano/quartus_projects/inference_test/20.1/software/bringup_test_bsp/\libhal_bsp.a(alt_isatty.o)
 .debug_line    0x0000000000010bb9      0x19e c:/GitHub/FAccel-CNN/hardware/intel_fpga/development_kits/terasic_de0_nano/quartus_projects/inference_test/20.1/software/bringup_test_bsp/\libhal_bsp.a(alt_lseek.o)
 .debug_line    0x0000000000010d57      0x125 c:/GitHub/FAccel-CNN/hardware/intel_fpga/development_kits/terasic_de0_nano/quartus_projects/inference_test/20.1/software/bringup_test_bsp/\libhal_bsp.a(alt_malloc_lock.o)
 .debug_line    0x0000000000010e7c      0x2ac c:/GitHub/FAccel-CNN/hardware/intel_fpga/development_kits/terasic_de0_nano/quartus_projects/inference_test/20.1/software/bringup_test_bsp/\libhal_bsp.a(alt_read.o)
 .debug_line    0x0000000000011128      0x10f c:/GitHub/FAccel-CNN/hardware/intel_fpga/development_kits/terasic_de0_nano/quartus_projects/inference_test/20.1/software/bringup_test_bsp/\libhal_bsp.a(alt_sbrk.o)
 .debug_line    0x0000000000011237      0x2af c:/GitHub/FAccel-CNN/hardware/intel_fpga/development_kits/terasic_de0_nano/quartus_projects/inference_test/20.1/software/bringup_test_bsp/\libhal_bsp.a(alt_write.o)

.debug_frame    0x0000000000000000     0x234c
 *(.debug_frame)
 .debug_frame   0x0000000000000000      0x420 obj/default/bringup_test.o
 .debug_frame   0x0000000000000420      0x368 obj/default/printf.o
 .debug_frame   0x0000000000000788       0x3c c:/intelfpga_lite/20.1/nios2eds/bin/gnu/h-x86_64-mingw32/bin/../lib/gcc/nios2-elf/10.1.1/../../../../../H-x86_64-mingw32/nios2-elf/lib/mno-hw-mul\libm.a(lib_a-wf_exp.o)
 .debug_frame   0x00000000000007c4       0x38 c:/intelfpga_lite/20.1/nios2eds/bin/gnu/h-x86_64-mingw32/bin/../lib/gcc/nios2-elf/10.1.1/../../../../../H-x86_64-mingw32/nios2-elf/lib/mno-hw-mul\libm.a(lib_a-wf_log.o)
 .debug_frame   0x00000000000007fc       0x4c c:/intelfpga_lite/20.1/nios2eds/bin/gnu/h-x86_64-mingw32/bin/../lib/gcc/nios2-elf/10.1.1/../../../../../H-x86_64-mingw32/nios2-elf/lib/mno-hw-mul\libm.a(lib_a-ef_exp.o)
 .debug_frame   0x0000000000000848       0x50 c:/intelfpga_lite/20.1/nios2eds/bin/gnu/h-x86_64-mingw32/bin/../lib/gcc/nios2-elf/10.1.1/../../../../../H-x86_64-mingw32/nios2-elf/lib/mno-hw-mul\libm.a(lib_a-ef_log.o)
 .debug_frame   0x0000000000000898       0x38 c:/intelfpga_lite/20.1/nios2eds/bin/gnu/h-x86_64-mingw32/bin/../lib/gcc/nios2-elf/10.1.1/mno-hw-mul\libgcc.a(_fixunsdfsi.o)
 .debug_frame   0x00000000000008d0       0x54 c:/intelfpga_lite/20.1/nios2eds/bin/gnu/h-x86_64-mingw32/bin/../lib/gcc/nios2-elf/10.1.1/mno-hw-mul\libgcc.a(_udivdi3.o)
 .debug_frame   0x0000000000000924       0x54 c:/intelfpga_lite/20.1/nios2eds/bin/gnu/h-x86_64-mingw32/bin/../lib/gcc/nios2-elf/10.1.1/mno-hw-mul\libgcc.a(_umoddi3.o)
 .debug_frame   0x0000000000000978       0x50 c:/intelfpga_lite/20.1/nios2eds/bin/gnu/h-x86_64-mingw32/bin/../lib/gcc/nios2-elf/10.1.1/mno-hw-mul\libgcc.a(lib2-divmod.o)
 .debug_frame   0x00000000000009c8       0x20 c:/intelfpga_lite/20.1/nios2eds/bin/gnu/h-x86_64-mingw32/bin/../lib/gcc/nios2-elf/10.1.1/mno-hw-mul\libgcc.a(lib2-mul.o)
 .debug_frame   0x00000000000009e8       0x3c c:/intelfpga_lite/20.1/nios2eds/bin/gnu/h-x86_64-mingw32/bin/../lib/gcc/nios2-elf/10.1.1/mno-hw-mul\libgcc.a(addsf3.o)
 .debug_frame   0x0000000000000a24       0x54 c:/intelfpga_lite/20.1/nios2eds/bin/gnu/h-x86_64-mingw32/bin/../lib/gcc/nios2-elf/10.1.1/mno-hw-mul\libgcc.a(divsf3.o)
 .debug_frame   0x0000000000000a78       0x20 c:/intelfpga_lite/20.1/nios2eds/bin/gnu/h-x86_64-mingw32/bin/../lib/gcc/nios2-elf/10.1.1/mno-hw-mul\libgcc.a(eqsf2.o)
 .debug_frame   0x0000000000000a98       0x20 c:/intelfpga_lite/20.1/nios2eds/bin/gnu/h-x86_64-mingw32/bin/../lib/gcc/nios2-elf/10.1.1/mno-hw-mul\libgcc.a(gesf2.o)
 .debug_frame   0x0000000000000ab8       0x20 c:/intelfpga_lite/20.1/nios2eds/bin/gnu/h-x86_64-mingw32/bin/../lib/gcc/nios2-elf/10.1.1/mno-hw-mul\libgcc.a(lesf2.o)
 .debug_frame   0x0000000000000ad8       0x58 c:/intelfpga_lite/20.1/nios2eds/bin/gnu/h-x86_64-mingw32/bin/../lib/gcc/nios2-elf/10.1.1/mno-hw-mul\libgcc.a(mulsf3.o)
 .debug_frame   0x0000000000000b30       0x3c c:/intelfpga_lite/20.1/nios2eds/bin/gnu/h-x86_64-mingw32/bin/../lib/gcc/nios2-elf/10.1.1/mno-hw-mul\libgcc.a(subsf3.o)
 .debug_frame   0x0000000000000b6c       0x20 c:/intelfpga_lite/20.1/nios2eds/bin/gnu/h-x86_64-mingw32/bin/../lib/gcc/nios2-elf/10.1.1/mno-hw-mul\libgcc.a(unordsf2.o)
 .debug_frame   0x0000000000000b8c       0x20 c:/intelfpga_lite/20.1/nios2eds/bin/gnu/h-x86_64-mingw32/bin/../lib/gcc/nios2-elf/10.1.1/mno-hw-mul\libgcc.a(fixsfsi.o)
 .debug_frame   0x0000000000000bac       0x38 c:/intelfpga_lite/20.1/nios2eds/bin/gnu/h-x86_64-mingw32/bin/../lib/gcc/nios2-elf/10.1.1/mno-hw-mul\libgcc.a(floatsisf.o)
 .debug_frame   0x0000000000000be4       0x34 c:/intelfpga_lite/20.1/nios2eds/bin/gnu/h-x86_64-mingw32/bin/../lib/gcc/nios2-elf/10.1.1/mno-hw-mul\libgcc.a(floatunsisf.o)
 .debug_frame   0x0000000000000c18       0x44 c:/intelfpga_lite/20.1/nios2eds/bin/gnu/h-x86_64-mingw32/bin/../lib/gcc/nios2-elf/10.1.1/mno-hw-mul\libgcc.a(adddf3.o)
 .debug_frame   0x0000000000000c5c       0x58 c:/intelfpga_lite/20.1/nios2eds/bin/gnu/h-x86_64-mingw32/bin/../lib/gcc/nios2-elf/10.1.1/mno-hw-mul\libgcc.a(divdf3.o)
 .debug_frame   0x0000000000000cb4       0x20 c:/intelfpga_lite/20.1/nios2eds/bin/gnu/h-x86_64-mingw32/bin/../lib/gcc/nios2-elf/10.1.1/mno-hw-mul\libgcc.a(eqdf2.o)
 .debug_frame   0x0000000000000cd4       0x20 c:/intelfpga_lite/20.1/nios2eds/bin/gnu/h-x86_64-mingw32/bin/../lib/gcc/nios2-elf/10.1.1/mno-hw-mul\libgcc.a(gedf2.o)
 .debug_frame   0x0000000000000cf4       0x20 c:/intelfpga_lite/20.1/nios2eds/bin/gnu/h-x86_64-mingw32/bin/../lib/gcc/nios2-elf/10.1.1/mno-hw-mul\libgcc.a(ledf2.o)
 .debug_frame   0x0000000000000d14       0x54 c:/intelfpga_lite/20.1/nios2eds/bin/gnu/h-x86_64-mingw32/bin/../lib/gcc/nios2-elf/10.1.1/mno-hw-mul\libgcc.a(muldf3.o)
 .debug_frame   0x0000000000000d68       0x44 c:/intelfpga_lite/20.1/nios2eds/bin/gnu/h-x86_64-mingw32/bin/../lib/gcc/nios2-elf/10.1.1/mno-hw-mul\libgcc.a(subdf3.o)
 .debug_frame   0x0000000000000dac       0x20 c:/intelfpga_lite/20.1/nios2eds/bin/gnu/h-x86_64-mingw32/bin/../lib/gcc/nios2-elf/10.1.1/mno-hw-mul\libgcc.a(fixdfsi.o)
 .debug_frame   0x0000000000000dcc       0x38 c:/intelfpga_lite/20.1/nios2eds/bin/gnu/h-x86_64-mingw32/bin/../lib/gcc/nios2-elf/10.1.1/mno-hw-mul\libgcc.a(floatsidf.o)
 .debug_frame   0x0000000000000e04       0x34 c:/intelfpga_lite/20.1/nios2eds/bin/gnu/h-x86_64-mingw32/bin/../lib/gcc/nios2-elf/10.1.1/mno-hw-mul\libgcc.a(floatunsidf.o)
 .debug_frame   0x0000000000000e38       0x38 c:/intelfpga_lite/20.1/nios2eds/bin/gnu/h-x86_64-mingw32/bin/../lib/gcc/nios2-elf/10.1.1/mno-hw-mul\libgcc.a(extendsfdf2.o)
 .debug_frame   0x0000000000000e70       0x20 c:/intelfpga_lite/20.1/nios2eds/bin/gnu/h-x86_64-mingw32/bin/../lib/gcc/nios2-elf/10.1.1/mno-hw-mul\libgcc.a(_clzsi2.o)
 .debug_frame   0x0000000000000e90       0x20 c:/intelfpga_lite/20.1/nios2eds/bin/gnu/h-x86_64-mingw32/bin/../lib/gcc/nios2-elf/10.1.1/../../../../../H-x86_64-mingw32/nios2-elf/lib/mno-hw-mul\libc.a(lib_a-errno.o)
 .debug_frame   0x0000000000000eb0       0x20 c:/intelfpga_lite/20.1/nios2eds/bin/gnu/h-x86_64-mingw32/bin/../lib/gcc/nios2-elf/10.1.1/../../../../../H-x86_64-mingw32/nios2-elf/lib/mno-hw-mul\libc.a(lib_a-memcpy.o)
 .debug_frame   0x0000000000000ed0       0x5c c:/GitHub/FAccel-CNN/hardware/intel_fpga/development_kits/terasic_de0_nano/quartus_projects/inference_test/20.1/software/bringup_test_bsp/\libhal_bsp.a(alt_load.o)
 .debug_frame   0x0000000000000f2c       0x2c c:/GitHub/FAccel-CNN/hardware/intel_fpga/development_kits/terasic_de0_nano/quartus_projects/inference_test/20.1/software/bringup_test_bsp/\libhal_bsp.a(alt_main.o)
 .debug_frame   0x0000000000000f58       0x38 c:/GitHub/FAccel-CNN/hardware/intel_fpga/development_kits/terasic_de0_nano/quartus_projects/inference_test/20.1/software/bringup_test_bsp/\libhal_bsp.a(alt_printf.o)
 .debug_frame   0x0000000000000f90       0x38 c:/GitHub/FAccel-CNN/hardware/intel_fpga/development_kits/terasic_de0_nano/quartus_projects/inference_test/20.1/software/bringup_test_bsp/\libhal_bsp.a(alt_putchar.o)
 .debug_frame   0x0000000000000fc8       0x88 c:/GitHub/FAccel-CNN/hardware/intel_fpga/development_kits/terasic_de0_nano/quartus_projects/inference_test/20.1/software/bringup_test_bsp/\libhal_bsp.a(alt_sys_init.o)
 .debug_frame   0x0000000000001050       0xb0 c:/GitHub/FAccel-CNN/hardware/intel_fpga/development_kits/terasic_de0_nano/quartus_projects/inference_test/20.1/software/bringup_test_bsp/\libhal_bsp.a(altera_avalon_jtag_uart_fd.o)
 .debug_frame   0x0000000000001100       0xa4 c:/GitHub/FAccel-CNN/hardware/intel_fpga/development_kits/terasic_de0_nano/quartus_projects/inference_test/20.1/software/bringup_test_bsp/\libhal_bsp.a(altera_avalon_jtag_uart_init.o)
 .debug_frame   0x00000000000011a4       0x34 c:/GitHub/FAccel-CNN/hardware/intel_fpga/development_kits/terasic_de0_nano/quartus_projects/inference_test/20.1/software/bringup_test_bsp/\libhal_bsp.a(altera_avalon_jtag_uart_ioctl.o)
 .debug_frame   0x00000000000011d8       0x38 c:/GitHub/FAccel-CNN/hardware/intel_fpga/development_kits/terasic_de0_nano/quartus_projects/inference_test/20.1/software/bringup_test_bsp/\libhal_bsp.a(altera_avalon_jtag_uart_read.o)
 .debug_frame   0x0000000000001210       0x38 c:/GitHub/FAccel-CNN/hardware/intel_fpga/development_kits/terasic_de0_nano/quartus_projects/inference_test/20.1/software/bringup_test_bsp/\libhal_bsp.a(altera_avalon_jtag_uart_write.o)
 .debug_frame   0x0000000000001248       0x34 c:/GitHub/FAccel-CNN/hardware/intel_fpga/development_kits/terasic_de0_nano/quartus_projects/inference_test/20.1/software/bringup_test_bsp/\libhal_bsp.a(alt_alarm_start.o)
 .debug_frame   0x000000000000127c       0x60 c:/GitHub/FAccel-CNN/hardware/intel_fpga/development_kits/terasic_de0_nano/quartus_projects/inference_test/20.1/software/bringup_test_bsp/\libhal_bsp.a(alt_close.o)
 .debug_frame   0x00000000000012dc       0x34 c:/GitHub/FAccel-CNN/hardware/intel_fpga/development_kits/terasic_de0_nano/quartus_projects/inference_test/20.1/software/bringup_test_bsp/\libhal_bsp.a(alt_dcache_flush_all.o)
 .debug_frame   0x0000000000001310       0x34 c:/GitHub/FAccel-CNN/hardware/intel_fpga/development_kits/terasic_de0_nano/quartus_projects/inference_test/20.1/software/bringup_test_bsp/\libhal_bsp.a(alt_dev.o)
 .debug_frame   0x0000000000001344       0x60 c:/GitHub/FAccel-CNN/hardware/intel_fpga/development_kits/terasic_de0_nano/quartus_projects/inference_test/20.1/software/bringup_test_bsp/\libhal_bsp.a(alt_dev_llist_insert.o)
 .debug_frame   0x00000000000013a4       0x38 c:/GitHub/FAccel-CNN/hardware/intel_fpga/development_kits/terasic_de0_nano/quartus_projects/inference_test/20.1/software/bringup_test_bsp/\libhal_bsp.a(alt_do_ctors.o)
 .debug_frame   0x00000000000013dc       0x38 c:/GitHub/FAccel-CNN/hardware/intel_fpga/development_kits/terasic_de0_nano/quartus_projects/inference_test/20.1/software/bringup_test_bsp/\libhal_bsp.a(alt_do_dtors.o)
 .debug_frame   0x0000000000001414       0x34 c:/GitHub/FAccel-CNN/hardware/intel_fpga/development_kits/terasic_de0_nano/quartus_projects/inference_test/20.1/software/bringup_test_bsp/\libhal_bsp.a(alt_icache_flush_all.o)
 .debug_frame   0x0000000000001448       0xa4 c:/GitHub/FAccel-CNN/hardware/intel_fpga/development_kits/terasic_de0_nano/quartus_projects/inference_test/20.1/software/bringup_test_bsp/\libhal_bsp.a(alt_iic.o)
 .debug_frame   0x00000000000014ec       0x38 c:/GitHub/FAccel-CNN/hardware/intel_fpga/development_kits/terasic_de0_nano/quartus_projects/inference_test/20.1/software/bringup_test_bsp/\libhal_bsp.a(alt_iic_isr_register.o)
 .debug_frame   0x0000000000001524       0x60 c:/GitHub/FAccel-CNN/hardware/intel_fpga/development_kits/terasic_de0_nano/quartus_projects/inference_test/20.1/software/bringup_test_bsp/\libhal_bsp.a(alt_io_redirect.o)
 .debug_frame   0x0000000000001584       0x38 c:/GitHub/FAccel-CNN/hardware/intel_fpga/development_kits/terasic_de0_nano/quartus_projects/inference_test/20.1/software/bringup_test_bsp/\libhal_bsp.a(alt_irq_handler.o)
 .debug_frame   0x00000000000015bc       0x84 c:/GitHub/FAccel-CNN/hardware/intel_fpga/development_kits/terasic_de0_nano/quartus_projects/inference_test/20.1/software/bringup_test_bsp/\libhal_bsp.a(alt_open.o)
 .debug_frame   0x0000000000001640       0x34 c:/GitHub/FAccel-CNN/hardware/intel_fpga/development_kits/terasic_de0_nano/quartus_projects/inference_test/20.1/software/bringup_test_bsp/\libhal_bsp.a(alt_release_fd.o)
 .debug_frame   0x0000000000001674       0x5c c:/GitHub/FAccel-CNN/hardware/intel_fpga/development_kits/terasic_de0_nano/quartus_projects/inference_test/20.1/software/bringup_test_bsp/\libhal_bsp.a(alt_tick.o)
 .debug_frame   0x00000000000016d0       0x34 c:/GitHub/FAccel-CNN/hardware/intel_fpga/development_kits/terasic_de0_nano/quartus_projects/inference_test/20.1/software/bringup_test_bsp/\libhal_bsp.a(altera_nios2_gen2_irq.o)
 .debug_frame   0x0000000000001704       0x38 c:/GitHub/FAccel-CNN/hardware/intel_fpga/development_kits/terasic_de0_nano/quartus_projects/inference_test/20.1/software/bringup_test_bsp/\libhal_bsp.a(alt_find_dev.o)
 .debug_frame   0x000000000000173c       0x38 c:/GitHub/FAccel-CNN/hardware/intel_fpga/development_kits/terasic_de0_nano/quartus_projects/inference_test/20.1/software/bringup_test_bsp/\libhal_bsp.a(alt_find_file.o)
 .debug_frame   0x0000000000001774       0x34 c:/GitHub/FAccel-CNN/hardware/intel_fpga/development_kits/terasic_de0_nano/quartus_projects/inference_test/20.1/software/bringup_test_bsp/\libhal_bsp.a(alt_get_fd.o)
 .debug_frame   0x00000000000017a8       0x5c c:/GitHub/FAccel-CNN/hardware/intel_fpga/development_kits/terasic_de0_nano/quartus_projects/inference_test/20.1/software/bringup_test_bsp/\libhal_bsp.a(alt_instruction_exception_entry.o)
 .debug_frame   0x0000000000001804       0x20 c:/intelfpga_lite/20.1/nios2eds/bin/gnu/h-x86_64-mingw32/bin/../lib/gcc/nios2-elf/10.1.1/../../../../../H-x86_64-mingw32/nios2-elf/lib/mno-hw-mul\libc.a(lib_a-atexit.o)
 .debug_frame   0x0000000000001824       0x28 c:/intelfpga_lite/20.1/nios2eds/bin/gnu/h-x86_64-mingw32/bin/../lib/gcc/nios2-elf/10.1.1/../../../../../H-x86_64-mingw32/nios2-elf/lib/mno-hw-mul\libc.a(lib_a-exit.o)
 .debug_frame   0x000000000000184c       0x20 c:/intelfpga_lite/20.1/nios2eds/bin/gnu/h-x86_64-mingw32/bin/../lib/gcc/nios2-elf/10.1.1/../../../../../H-x86_64-mingw32/nios2-elf/lib/mno-hw-mul\libc.a(lib_a-memcmp.o)
 .debug_frame   0x000000000000186c       0x30 c:/intelfpga_lite/20.1/nios2eds/bin/gnu/h-x86_64-mingw32/bin/../lib/gcc/nios2-elf/10.1.1/../../../../../H-x86_64-mingw32/nios2-elf/lib/mno-hw-mul\libc.a(lib_a-putchar.o)
 .debug_frame   0x000000000000189c       0x20 c:/intelfpga_lite/20.1/nios2eds/bin/gnu/h-x86_64-mingw32/bin/../lib/gcc/nios2-elf/10.1.1/../../../../../H-x86_64-mingw32/nios2-elf/lib/mno-hw-mul\libc.a(lib_a-strlen.o)
 .debug_frame   0x00000000000018bc       0x20 c:/intelfpga_lite/20.1/nios2eds/bin/gnu/h-x86_64-mingw32/bin/../lib/gcc/nios2-elf/10.1.1/../../../../../H-x86_64-mingw32/nios2-elf/lib/mno-hw-mul\libc.a(lib_a-__atexit.o)
 .debug_frame   0x00000000000018dc       0x54 c:/intelfpga_lite/20.1/nios2eds/bin/gnu/h-x86_64-mingw32/bin/../lib/gcc/nios2-elf/10.1.1/../../../../../H-x86_64-mingw32/nios2-elf/lib/mno-hw-mul\libc.a(lib_a-__call_atexit.o)
 .debug_frame   0x0000000000001930       0x78 c:/intelfpga_lite/20.1/nios2eds/bin/gnu/h-x86_64-mingw32/bin/../lib/gcc/nios2-elf/10.1.1/../../../../../H-x86_64-mingw32/nios2-elf/lib/mno-hw-mul\libc.a(lib_a-putc.o)
 .debug_frame   0x00000000000019a8       0x50 c:/intelfpga_lite/20.1/nios2eds/bin/gnu/h-x86_64-mingw32/bin/../lib/gcc/nios2-elf/10.1.1/../../../../../H-x86_64-mingw32/nios2-elf/lib/mno-hw-mul\libc.a(lib_a-wbuf.o)
 .debug_frame   0x00000000000019f8       0x38 c:/intelfpga_lite/20.1/nios2eds/bin/gnu/h-x86_64-mingw32/bin/../lib/gcc/nios2-elf/10.1.1/../../../../../H-x86_64-mingw32/nios2-elf/lib/mno-hw-mul\libc.a(lib_a-wsetup.o)
 .debug_frame   0x0000000000001a30       0x94 c:/intelfpga_lite/20.1/nios2eds/bin/gnu/h-x86_64-mingw32/bin/../lib/gcc/nios2-elf/10.1.1/../../../../../H-x86_64-mingw32/nios2-elf/lib/mno-hw-mul\libc.a(lib_a-fflush.o)
 .debug_frame   0x0000000000001ac4      0x12c c:/intelfpga_lite/20.1/nios2eds/bin/gnu/h-x86_64-mingw32/bin/../lib/gcc/nios2-elf/10.1.1/../../../../../H-x86_64-mingw32/nios2-elf/lib/mno-hw-mul\libc.a(lib_a-findfp.o)
 .debug_frame   0x0000000000001bf0       0x78 c:/intelfpga_lite/20.1/nios2eds/bin/gnu/h-x86_64-mingw32/bin/../lib/gcc/nios2-elf/10.1.1/../../../../../H-x86_64-mingw32/nios2-elf/lib/mno-hw-mul\libc.a(lib_a-freer.o)
 .debug_frame   0x0000000000001c68       0x74 c:/intelfpga_lite/20.1/nios2eds/bin/gnu/h-x86_64-mingw32/bin/../lib/gcc/nios2-elf/10.1.1/../../../../../H-x86_64-mingw32/nios2-elf/lib/mno-hw-mul\libc.a(lib_a-fwalk.o)
 .debug_frame   0x0000000000001cdc       0x70 c:/intelfpga_lite/20.1/nios2eds/bin/gnu/h-x86_64-mingw32/bin/../lib/gcc/nios2-elf/10.1.1/../../../../../H-x86_64-mingw32/nios2-elf/lib/mno-hw-mul\libc.a(lib_a-makebuf.o)
 .debug_frame   0x0000000000001d4c       0x58 c:/intelfpga_lite/20.1/nios2eds/bin/gnu/h-x86_64-mingw32/bin/../lib/gcc/nios2-elf/10.1.1/../../../../../H-x86_64-mingw32/nios2-elf/lib/mno-hw-mul\libc.a(lib_a-mallocr.o)
 .debug_frame   0x0000000000001da4       0x20 c:/intelfpga_lite/20.1/nios2eds/bin/gnu/h-x86_64-mingw32/bin/../lib/gcc/nios2-elf/10.1.1/../../../../../H-x86_64-mingw32/nios2-elf/lib/mno-hw-mul\libc.a(lib_a-memset.o)
 .debug_frame   0x0000000000001dc4       0x3c c:/intelfpga_lite/20.1/nios2eds/bin/gnu/h-x86_64-mingw32/bin/../lib/gcc/nios2-elf/10.1.1/../../../../../H-x86_64-mingw32/nios2-elf/lib/mno-hw-mul\libc.a(lib_a-sbrkr.o)
 .debug_frame   0x0000000000001e00       0xb8 c:/intelfpga_lite/20.1/nios2eds/bin/gnu/h-x86_64-mingw32/bin/../lib/gcc/nios2-elf/10.1.1/../../../../../H-x86_64-mingw32/nios2-elf/lib/mno-hw-mul\libc.a(lib_a-stdio.o)
 .debug_frame   0x0000000000001eb8       0x3c c:/intelfpga_lite/20.1/nios2eds/bin/gnu/h-x86_64-mingw32/bin/../lib/gcc/nios2-elf/10.1.1/../../../../../H-x86_64-mingw32/nios2-elf/lib/mno-hw-mul\libc.a(lib_a-writer.o)
 .debug_frame   0x0000000000001ef4       0x3c c:/intelfpga_lite/20.1/nios2eds/bin/gnu/h-x86_64-mingw32/bin/../lib/gcc/nios2-elf/10.1.1/../../../../../H-x86_64-mingw32/nios2-elf/lib/mno-hw-mul\libc.a(closer.o)
 .debug_frame   0x0000000000001f30       0x94 c:/intelfpga_lite/20.1/nios2eds/bin/gnu/h-x86_64-mingw32/bin/../lib/gcc/nios2-elf/10.1.1/../../../../../H-x86_64-mingw32/nios2-elf/lib/mno-hw-mul\libc.a(lib_a-fclose.o)
 .debug_frame   0x0000000000001fc4       0x3c c:/intelfpga_lite/20.1/nios2eds/bin/gnu/h-x86_64-mingw32/bin/../lib/gcc/nios2-elf/10.1.1/../../../../../H-x86_64-mingw32/nios2-elf/lib/mno-hw-mul\libc.a(lib_a-fstatr.o)
 .debug_frame   0x0000000000002000       0x3c c:/intelfpga_lite/20.1/nios2eds/bin/gnu/h-x86_64-mingw32/bin/../lib/gcc/nios2-elf/10.1.1/../../../../../H-x86_64-mingw32/nios2-elf/lib/mno-hw-mul\libc.a(lib_a-isattyr.o)
 .debug_frame   0x000000000000203c       0x3c c:/intelfpga_lite/20.1/nios2eds/bin/gnu/h-x86_64-mingw32/bin/../lib/gcc/nios2-elf/10.1.1/../../../../../H-x86_64-mingw32/nios2-elf/lib/mno-hw-mul\libc.a(lib_a-lseekr.o)
 .debug_frame   0x0000000000002078       0x3c c:/intelfpga_lite/20.1/nios2eds/bin/gnu/h-x86_64-mingw32/bin/../lib/gcc/nios2-elf/10.1.1/../../../../../H-x86_64-mingw32/nios2-elf/lib/mno-hw-mul\libc.a(lib_a-readr.o)
 .debug_frame   0x00000000000020b4       0x2c c:/GitHub/FAccel-CNN/hardware/intel_fpga/development_kits/terasic_de0_nano/quartus_projects/inference_test/20.1/software/bringup_test_bsp/\libhal_bsp.a(alt_exit.o)
 .debug_frame   0x00000000000020e0       0x60 c:/GitHub/FAccel-CNN/hardware/intel_fpga/development_kits/terasic_de0_nano/quartus_projects/inference_test/20.1/software/bringup_test_bsp/\libhal_bsp.a(alt_fstat.o)
 .debug_frame   0x0000000000002140       0x60 c:/GitHub/FAccel-CNN/hardware/intel_fpga/development_kits/terasic_de0_nano/quartus_projects/inference_test/20.1/software/bringup_test_bsp/\libhal_bsp.a(alt_isatty.o)
 .debug_frame   0x00000000000021a0       0x60 c:/GitHub/FAccel-CNN/hardware/intel_fpga/development_kits/terasic_de0_nano/quartus_projects/inference_test/20.1/software/bringup_test_bsp/\libhal_bsp.a(alt_lseek.o)
 .debug_frame   0x0000000000002200       0x58 c:/GitHub/FAccel-CNN/hardware/intel_fpga/development_kits/terasic_de0_nano/quartus_projects/inference_test/20.1/software/bringup_test_bsp/\libhal_bsp.a(alt_malloc_lock.o)
 .debug_frame   0x0000000000002258       0x60 c:/GitHub/FAccel-CNN/hardware/intel_fpga/development_kits/terasic_de0_nano/quartus_projects/inference_test/20.1/software/bringup_test_bsp/\libhal_bsp.a(alt_read.o)
 .debug_frame   0x00000000000022b8       0x34 c:/GitHub/FAccel-CNN/hardware/intel_fpga/development_kits/terasic_de0_nano/quartus_projects/inference_test/20.1/software/bringup_test_bsp/\libhal_bsp.a(alt_sbrk.o)
 .debug_frame   0x00000000000022ec       0x60 c:/GitHub/FAccel-CNN/hardware/intel_fpga/development_kits/terasic_de0_nano/quartus_projects/inference_test/20.1/software/bringup_test_bsp/\libhal_bsp.a(alt_write.o)

.debug_str      0x0000000000000000     0x3c61
 *(.debug_str)
 .debug_str     0x0000000000000000       0xa8 c:/GitHub/FAccel-CNN/hardware/intel_fpga/development_kits/terasic_de0_nano/quartus_projects/inference_test/20.1/software/bringup_test_bsp//obj/HAL/src/crt0.o
 .debug_str     0x00000000000000a8      0x32e obj/default/bringup_test.o
                                        0x3b6 (size before relaxing)
 .debug_str     0x00000000000003d6      0x17d obj/default/printf.o
                                        0x378 (size before relaxing)
 .debug_str     0x0000000000000553      0x1bc c:/intelfpga_lite/20.1/nios2eds/bin/gnu/h-x86_64-mingw32/bin/../lib/gcc/nios2-elf/10.1.1/../../../../../H-x86_64-mingw32/nios2-elf/lib/mno-hw-mul\libm.a(lib_a-wf_exp.o)
                                        0x263 (size before relaxing)
 .debug_str     0x000000000000070f       0x54 c:/intelfpga_lite/20.1/nios2eds/bin/gnu/h-x86_64-mingw32/bin/../lib/gcc/nios2-elf/10.1.1/../../../../../H-x86_64-mingw32/nios2-elf/lib/mno-hw-mul\libm.a(lib_a-wf_log.o)
                                        0x24b (size before relaxing)
 .debug_str     0x0000000000000763       0xd6 c:/intelfpga_lite/20.1/nios2eds/bin/gnu/h-x86_64-mingw32/bin/../lib/gcc/nios2-elf/10.1.1/../../../../../H-x86_64-mingw32/nios2-elf/lib/mno-hw-mul\libm.a(lib_a-ef_exp.o)
                                        0x28c (size before relaxing)
 .debug_str     0x0000000000000839       0x5b c:/intelfpga_lite/20.1/nios2eds/bin/gnu/h-x86_64-mingw32/bin/../lib/gcc/nios2-elf/10.1.1/../../../../../H-x86_64-mingw32/nios2-elf/lib/mno-hw-mul\libm.a(lib_a-ef_log.o)
                                        0x27b (size before relaxing)
 .debug_str     0x0000000000000894      0x155 c:/intelfpga_lite/20.1/nios2eds/bin/gnu/h-x86_64-mingw32/bin/../lib/gcc/nios2-elf/10.1.1/../../../../../H-x86_64-mingw32/nios2-elf/lib/mno-hw-mul\libm.a(lib_a-s_lib_ver.o)
                                        0x235 (size before relaxing)
 .debug_str     0x00000000000009e9      0x18b c:/intelfpga_lite/20.1/nios2eds/bin/gnu/h-x86_64-mingw32/bin/../lib/gcc/nios2-elf/10.1.1/mno-hw-mul\libgcc.a(_fixunsdfsi.o)
                                        0x219 (size before relaxing)
 .debug_str     0x0000000000000b74      0x15c c:/intelfpga_lite/20.1/nios2eds/bin/gnu/h-x86_64-mingw32/bin/../lib/gcc/nios2-elf/10.1.1/mno-hw-mul\libgcc.a(_udivdi3.o)
                                        0x2c3 (size before relaxing)
 .debug_str     0x0000000000000cd0        0xa c:/intelfpga_lite/20.1/nios2eds/bin/gnu/h-x86_64-mingw32/bin/../lib/gcc/nios2-elf/10.1.1/mno-hw-mul\libgcc.a(_umoddi3.o)
                                        0x2c3 (size before relaxing)
 .debug_str     0x0000000000000cda       0x6e c:/intelfpga_lite/20.1/nios2eds/bin/gnu/h-x86_64-mingw32/bin/../lib/gcc/nios2-elf/10.1.1/mno-hw-mul\libgcc.a(lib2-divmod.o)
                                        0x1e0 (size before relaxing)
 .debug_str     0x0000000000000d48       0x3a c:/intelfpga_lite/20.1/nios2eds/bin/gnu/h-x86_64-mingw32/bin/../lib/gcc/nios2-elf/10.1.1/mno-hw-mul\libgcc.a(lib2-mul.o)
                                        0x1a1 (size before relaxing)
 .debug_str     0x0000000000000d82      0x150 c:/intelfpga_lite/20.1/nios2eds/bin/gnu/h-x86_64-mingw32/bin/../lib/gcc/nios2-elf/10.1.1/mno-hw-mul\libgcc.a(addsf3.o)
                                        0x2ee (size before relaxing)
 .debug_str     0x0000000000000ed2      0x127 c:/intelfpga_lite/20.1/nios2eds/bin/gnu/h-x86_64-mingw32/bin/../lib/gcc/nios2-elf/10.1.1/mno-hw-mul\libgcc.a(divsf3.o)
                                        0x313 (size before relaxing)
 .debug_str     0x0000000000000ff9       0x4b c:/intelfpga_lite/20.1/nios2eds/bin/gnu/h-x86_64-mingw32/bin/../lib/gcc/nios2-elf/10.1.1/mno-hw-mul\libgcc.a(eqsf2.o)
                                        0x212 (size before relaxing)
 .debug_str     0x0000000000001044       0x5e c:/intelfpga_lite/20.1/nios2eds/bin/gnu/h-x86_64-mingw32/bin/../lib/gcc/nios2-elf/10.1.1/mno-hw-mul\libgcc.a(gesf2.o)
                                        0x236 (size before relaxing)
 .debug_str     0x00000000000010a2       0x3a c:/intelfpga_lite/20.1/nios2eds/bin/gnu/h-x86_64-mingw32/bin/../lib/gcc/nios2-elf/10.1.1/mno-hw-mul\libgcc.a(lesf2.o)
                                        0x236 (size before relaxing)
 .debug_str     0x00000000000010dc       0x6d c:/intelfpga_lite/20.1/nios2eds/bin/gnu/h-x86_64-mingw32/bin/../lib/gcc/nios2-elf/10.1.1/mno-hw-mul\libgcc.a(mulsf3.o)
                                        0x31c (size before relaxing)
 .debug_str     0x0000000000001149       0x33 c:/intelfpga_lite/20.1/nios2eds/bin/gnu/h-x86_64-mingw32/bin/../lib/gcc/nios2-elf/10.1.1/mno-hw-mul\libgcc.a(subsf3.o)
                                        0x2ee (size before relaxing)
 .debug_str     0x000000000000117c       0x35 c:/intelfpga_lite/20.1/nios2eds/bin/gnu/h-x86_64-mingw32/bin/../lib/gcc/nios2-elf/10.1.1/mno-hw-mul\libgcc.a(unordsf2.o)
                                        0x218 (size before relaxing)
 .debug_str     0x00000000000011b1       0x47 c:/intelfpga_lite/20.1/nios2eds/bin/gnu/h-x86_64-mingw32/bin/../lib/gcc/nios2-elf/10.1.1/mno-hw-mul\libgcc.a(fixsfsi.o)
                                        0x227 (size before relaxing)
 .debug_str     0x00000000000011f8       0x63 c:/intelfpga_lite/20.1/nios2eds/bin/gnu/h-x86_64-mingw32/bin/../lib/gcc/nios2-elf/10.1.1/mno-hw-mul\libgcc.a(floatsisf.o)
                                        0x2b9 (size before relaxing)
 .debug_str     0x000000000000125b       0x46 c:/intelfpga_lite/20.1/nios2eds/bin/gnu/h-x86_64-mingw32/bin/../lib/gcc/nios2-elf/10.1.1/mno-hw-mul\libgcc.a(floatunsisf.o)
                                        0x2b6 (size before relaxing)
 .debug_str     0x00000000000012a1       0xc6 c:/intelfpga_lite/20.1/nios2eds/bin/gnu/h-x86_64-mingw32/bin/../lib/gcc/nios2-elf/10.1.1/mno-hw-mul\libgcc.a(adddf3.o)
                                        0x32b (size before relaxing)
 .debug_str     0x0000000000001367      0x11b c:/intelfpga_lite/20.1/nios2eds/bin/gnu/h-x86_64-mingw32/bin/../lib/gcc/nios2-elf/10.1.1/mno-hw-mul\libgcc.a(divdf3.o)
                                        0x40a (size before relaxing)
 .debug_str     0x0000000000001482       0x3a c:/intelfpga_lite/20.1/nios2eds/bin/gnu/h-x86_64-mingw32/bin/../lib/gcc/nios2-elf/10.1.1/mno-hw-mul\libgcc.a(eqdf2.o)
                                        0x22e (size before relaxing)
 .debug_str     0x00000000000014bc       0x32 c:/intelfpga_lite/20.1/nios2eds/bin/gnu/h-x86_64-mingw32/bin/../lib/gcc/nios2-elf/10.1.1/mno-hw-mul\libgcc.a(gedf2.o)
                                        0x252 (size before relaxing)
 .debug_str     0x00000000000014ee       0x3a c:/intelfpga_lite/20.1/nios2eds/bin/gnu/h-x86_64-mingw32/bin/../lib/gcc/nios2-elf/10.1.1/mno-hw-mul\libgcc.a(ledf2.o)
                                        0x252 (size before relaxing)
 .debug_str     0x0000000000001528      0x161 c:/intelfpga_lite/20.1/nios2eds/bin/gnu/h-x86_64-mingw32/bin/../lib/gcc/nios2-elf/10.1.1/mno-hw-mul\libgcc.a(muldf3.o)
                                        0x44e (size before relaxing)
 .debug_str     0x0000000000001689       0x33 c:/intelfpga_lite/20.1/nios2eds/bin/gnu/h-x86_64-mingw32/bin/../lib/gcc/nios2-elf/10.1.1/mno-hw-mul\libgcc.a(subdf3.o)
                                        0x32b (size before relaxing)
 .debug_str     0x00000000000016bc       0x34 c:/intelfpga_lite/20.1/nios2eds/bin/gnu/h-x86_64-mingw32/bin/../lib/gcc/nios2-elf/10.1.1/mno-hw-mul\libgcc.a(fixdfsi.o)
                                        0x239 (size before relaxing)
 .debug_str     0x00000000000016f0       0x42 c:/intelfpga_lite/20.1/nios2eds/bin/gnu/h-x86_64-mingw32/bin/../lib/gcc/nios2-elf/10.1.1/mno-hw-mul\libgcc.a(floatsidf.o)
                                        0x2dd (size before relaxing)
 .debug_str     0x0000000000001732       0x46 c:/intelfpga_lite/20.1/nios2eds/bin/gnu/h-x86_64-mingw32/bin/../lib/gcc/nios2-elf/10.1.1/mno-hw-mul\libgcc.a(floatunsidf.o)
                                        0x2da (size before relaxing)
 .debug_str     0x0000000000001778       0x53 c:/intelfpga_lite/20.1/nios2eds/bin/gnu/h-x86_64-mingw32/bin/../lib/gcc/nios2-elf/10.1.1/mno-hw-mul\libgcc.a(extendsfdf2.o)
                                        0x266 (size before relaxing)
 .debug_str     0x00000000000017cb      0x1ed c:/intelfpga_lite/20.1/nios2eds/bin/gnu/h-x86_64-mingw32/bin/../lib/gcc/nios2-elf/10.1.1/mno-hw-mul\libgcc.a(_clz.o)
 .debug_str     0x00000000000017cb      0x20a c:/intelfpga_lite/20.1/nios2eds/bin/gnu/h-x86_64-mingw32/bin/../lib/gcc/nios2-elf/10.1.1/mno-hw-mul\libgcc.a(_clzsi2.o)
 .debug_str     0x00000000000017cb      0x414 c:/intelfpga_lite/20.1/nios2eds/bin/gnu/h-x86_64-mingw32/bin/../lib/gcc/nios2-elf/10.1.1/../../../../../H-x86_64-mingw32/nios2-elf/lib/mno-hw-mul\libc.a(lib_a-errno.o)
                                        0x59e (size before relaxing)
 .debug_str     0x0000000000001bdf       0xec c:/intelfpga_lite/20.1/nios2eds/bin/gnu/h-x86_64-mingw32/bin/../lib/gcc/nios2-elf/10.1.1/../../../../../H-x86_64-mingw32/nios2-elf/lib/mno-hw-mul\libc.a(lib_a-impure.o)
                                        0x5b6 (size before relaxing)
 .debug_str     0x0000000000001ccb       0xfd c:/intelfpga_lite/20.1/nios2eds/bin/gnu/h-x86_64-mingw32/bin/../lib/gcc/nios2-elf/10.1.1/../../../../../H-x86_64-mingw32/nios2-elf/lib/mno-hw-mul\libc.a(lib_a-memcpy.o)
                                        0x202 (size before relaxing)
 .debug_str     0x0000000000001dc8       0xe9 c:/GitHub/FAccel-CNN/hardware/intel_fpga/development_kits/terasic_de0_nano/quartus_projects/inference_test/20.1/software/bringup_test_bsp/\libhal_bsp.a(alt_load.o)
                                        0x263 (size before relaxing)
 .debug_str     0x0000000000001eb1       0x44 c:/GitHub/FAccel-CNN/hardware/intel_fpga/development_kits/terasic_de0_nano/quartus_projects/inference_test/20.1/software/bringup_test_bsp/\libhal_bsp.a(alt_main.o)
                                        0x1bd (size before relaxing)
 .debug_str     0x0000000000001ef5       0x2c c:/GitHub/FAccel-CNN/hardware/intel_fpga/development_kits/terasic_de0_nano/quartus_projects/inference_test/20.1/software/bringup_test_bsp/\libhal_bsp.a(alt_printf.o)
                                        0x154 (size before relaxing)
 .debug_str     0x0000000000001f21       0x22 c:/GitHub/FAccel-CNN/hardware/intel_fpga/development_kits/terasic_de0_nano/quartus_projects/inference_test/20.1/software/bringup_test_bsp/\libhal_bsp.a(alt_putchar.o)
                                        0x194 (size before relaxing)
 .debug_str     0x0000000000001f43      0x1af c:/GitHub/FAccel-CNN/hardware/intel_fpga/development_kits/terasic_de0_nano/quartus_projects/inference_test/20.1/software/bringup_test_bsp/\libhal_bsp.a(alt_sys_init.o)
                                        0x38c (size before relaxing)
 .debug_str     0x00000000000020f2       0xb2 c:/GitHub/FAccel-CNN/hardware/intel_fpga/development_kits/terasic_de0_nano/quartus_projects/inference_test/20.1/software/bringup_test_bsp/\libhal_bsp.a(altera_avalon_jtag_uart_fd.o)
                                        0x3cd (size before relaxing)
 .debug_str     0x00000000000021a4       0xe0 c:/GitHub/FAccel-CNN/hardware/intel_fpga/development_kits/terasic_de0_nano/quartus_projects/inference_test/20.1/software/bringup_test_bsp/\libhal_bsp.a(altera_avalon_jtag_uart_init.o)
                                        0x370 (size before relaxing)
 .debug_str     0x0000000000002284       0x4a c:/GitHub/FAccel-CNN/hardware/intel_fpga/development_kits/terasic_de0_nano/quartus_projects/inference_test/20.1/software/bringup_test_bsp/\libhal_bsp.a(altera_avalon_jtag_uart_ioctl.o)
                                        0x2bc (size before relaxing)
 .debug_str     0x00000000000022ce       0x7f c:/GitHub/FAccel-CNN/hardware/intel_fpga/development_kits/terasic_de0_nano/quartus_projects/inference_test/20.1/software/bringup_test_bsp/\libhal_bsp.a(altera_avalon_jtag_uart_read.o)
                                        0x311 (size before relaxing)
 .debug_str     0x000000000000234d       0x4a c:/GitHub/FAccel-CNN/hardware/intel_fpga/development_kits/terasic_de0_nano/quartus_projects/inference_test/20.1/software/bringup_test_bsp/\libhal_bsp.a(altera_avalon_jtag_uart_write.o)
                                        0x312 (size before relaxing)
 .debug_str     0x0000000000002397       0x65 c:/GitHub/FAccel-CNN/hardware/intel_fpga/development_kits/terasic_de0_nano/quartus_projects/inference_test/20.1/software/bringup_test_bsp/\libhal_bsp.a(alt_alarm_start.o)
                                        0x2cf (size before relaxing)
 .debug_str     0x00000000000023fc       0x44 c:/GitHub/FAccel-CNN/hardware/intel_fpga/development_kits/terasic_de0_nano/quartus_projects/inference_test/20.1/software/bringup_test_bsp/\libhal_bsp.a(alt_close.o)
                                        0x24f (size before relaxing)
 .debug_str     0x0000000000002440       0x34 c:/GitHub/FAccel-CNN/hardware/intel_fpga/development_kits/terasic_de0_nano/quartus_projects/inference_test/20.1/software/bringup_test_bsp/\libhal_bsp.a(alt_dcache_flush_all.o)
                                        0x1a6 (size before relaxing)
 .debug_str     0x0000000000002474      0x13e c:/GitHub/FAccel-CNN/hardware/intel_fpga/development_kits/terasic_de0_nano/quartus_projects/inference_test/20.1/software/bringup_test_bsp/\libhal_bsp.a(alt_dev.o)
                                        0x3b5 (size before relaxing)
 .debug_str     0x00000000000025b2       0x34 c:/GitHub/FAccel-CNN/hardware/intel_fpga/development_kits/terasic_de0_nano/quartus_projects/inference_test/20.1/software/bringup_test_bsp/\libhal_bsp.a(alt_dev_llist_insert.o)
                                        0x21d (size before relaxing)
 .debug_str     0x00000000000025e6       0x48 c:/GitHub/FAccel-CNN/hardware/intel_fpga/development_kits/terasic_de0_nano/quartus_projects/inference_test/20.1/software/bringup_test_bsp/\libhal_bsp.a(alt_do_ctors.o)
                                        0x12a (size before relaxing)
 .debug_str     0x000000000000262e       0x4c c:/GitHub/FAccel-CNN/hardware/intel_fpga/development_kits/terasic_de0_nano/quartus_projects/inference_test/20.1/software/bringup_test_bsp/\libhal_bsp.a(alt_do_dtors.o)
                                        0x129 (size before relaxing)
 .debug_str     0x000000000000267a       0x14 c:/GitHub/FAccel-CNN/hardware/intel_fpga/development_kits/terasic_de0_nano/quartus_projects/inference_test/20.1/software/bringup_test_bsp/\libhal_bsp.a(alt_errno.o)
                                        0x190 (size before relaxing)
 .debug_str     0x000000000000268e       0x34 c:/GitHub/FAccel-CNN/hardware/intel_fpga/development_kits/terasic_de0_nano/quartus_projects/inference_test/20.1/software/bringup_test_bsp/\libhal_bsp.a(alt_icache_flush_all.o)
                                        0x1a6 (size before relaxing)
 .debug_str     0x00000000000026c2       0xb2 c:/GitHub/FAccel-CNN/hardware/intel_fpga/development_kits/terasic_de0_nano/quartus_projects/inference_test/20.1/software/bringup_test_bsp/\libhal_bsp.a(alt_iic.o)
                                        0x27d (size before relaxing)
 .debug_str     0x0000000000002774       0x4c c:/GitHub/FAccel-CNN/hardware/intel_fpga/development_kits/terasic_de0_nano/quartus_projects/inference_test/20.1/software/bringup_test_bsp/\libhal_bsp.a(alt_iic_isr_register.o)
                                        0x239 (size before relaxing)
 .debug_str     0x00000000000027c0       0x56 c:/GitHub/FAccel-CNN/hardware/intel_fpga/development_kits/terasic_de0_nano/quartus_projects/inference_test/20.1/software/bringup_test_bsp/\libhal_bsp.a(alt_io_redirect.o)
                                        0x3b9 (size before relaxing)
 .debug_str     0x0000000000002816       0x18 c:/GitHub/FAccel-CNN/hardware/intel_fpga/development_kits/terasic_de0_nano/quartus_projects/inference_test/20.1/software/bringup_test_bsp/\libhal_bsp.a(alt_irq_entry.o)
                                         0xb1 (size before relaxing)
 .debug_str     0x000000000000282e       0x3a c:/GitHub/FAccel-CNN/hardware/intel_fpga/development_kits/terasic_de0_nano/quartus_projects/inference_test/20.1/software/bringup_test_bsp/\libhal_bsp.a(alt_irq_handler.o)
                                        0x1e8 (size before relaxing)
 .debug_str     0x0000000000002868       0x29 c:/GitHub/FAccel-CNN/hardware/intel_fpga/development_kits/terasic_de0_nano/quartus_projects/inference_test/20.1/software/bringup_test_bsp/\libhal_bsp.a(alt_irq_vars.o)
                                        0x194 (size before relaxing)
 .debug_str     0x0000000000002891       0x29 c:/GitHub/FAccel-CNN/hardware/intel_fpga/development_kits/terasic_de0_nano/quartus_projects/inference_test/20.1/software/bringup_test_bsp/\libhal_bsp.a(alt_open.o)
                                        0x29c (size before relaxing)
 .debug_str     0x00000000000028ba       0x28 c:/GitHub/FAccel-CNN/hardware/intel_fpga/development_kits/terasic_de0_nano/quartus_projects/inference_test/20.1/software/bringup_test_bsp/\libhal_bsp.a(alt_release_fd.o)
                                        0x220 (size before relaxing)
 .debug_str     0x00000000000028e2       0x4a c:/GitHub/FAccel-CNN/hardware/intel_fpga/development_kits/terasic_de0_nano/quartus_projects/inference_test/20.1/software/bringup_test_bsp/\libhal_bsp.a(alt_tick.o)
                                        0x2a3 (size before relaxing)
 .debug_str     0x000000000000292c       0x3b c:/GitHub/FAccel-CNN/hardware/intel_fpga/development_kits/terasic_de0_nano/quartus_projects/inference_test/20.1/software/bringup_test_bsp/\libhal_bsp.a(altera_nios2_gen2_irq.o)
                                        0x1ad (size before relaxing)
 .debug_str     0x0000000000002967       0x1e c:/GitHub/FAccel-CNN/hardware/intel_fpga/development_kits/terasic_de0_nano/quartus_projects/inference_test/20.1/software/bringup_test_bsp/\libhal_bsp.a(alt_exception_entry.o)
                                         0xb7 (size before relaxing)
 .debug_str     0x0000000000002985       0x24 c:/GitHub/FAccel-CNN/hardware/intel_fpga/development_kits/terasic_de0_nano/quartus_projects/inference_test/20.1/software/bringup_test_bsp/\libhal_bsp.a(alt_find_dev.o)
                                        0x230 (size before relaxing)
 .debug_str     0x00000000000029a9       0x26 c:/GitHub/FAccel-CNN/hardware/intel_fpga/development_kits/terasic_de0_nano/quartus_projects/inference_test/20.1/software/bringup_test_bsp/\libhal_bsp.a(alt_find_file.o)
                                        0x23e (size before relaxing)
 .debug_str     0x00000000000029cf       0x30 c:/GitHub/FAccel-CNN/hardware/intel_fpga/development_kits/terasic_de0_nano/quartus_projects/inference_test/20.1/software/bringup_test_bsp/\libhal_bsp.a(alt_get_fd.o)
                                        0x260 (size before relaxing)
 .debug_str     0x00000000000029ff      0x48b c:/GitHub/FAccel-CNN/hardware/intel_fpga/development_kits/terasic_de0_nano/quartus_projects/inference_test/20.1/software/bringup_test_bsp/\libhal_bsp.a(alt_instruction_exception_entry.o)
                                        0x5fa (size before relaxing)
 .debug_str     0x0000000000002e8a      0x113 c:/intelfpga_lite/20.1/nios2eds/bin/gnu/h-x86_64-mingw32/bin/../lib/gcc/nios2-elf/10.1.1/../../../../../H-x86_64-mingw32/nios2-elf/lib/mno-hw-mul\libc.a(lib_a-atexit.o)
                                        0x218 (size before relaxing)
 .debug_str     0x0000000000002f9d       0x4e c:/intelfpga_lite/20.1/nios2eds/bin/gnu/h-x86_64-mingw32/bin/../lib/gcc/nios2-elf/10.1.1/../../../../../H-x86_64-mingw32/nios2-elf/lib/mno-hw-mul\libc.a(lib_a-exit.o)
                                        0x5bf (size before relaxing)
 .debug_str     0x0000000000002feb       0x41 c:/intelfpga_lite/20.1/nios2eds/bin/gnu/h-x86_64-mingw32/bin/../lib/gcc/nios2-elf/10.1.1/../../../../../H-x86_64-mingw32/nios2-elf/lib/mno-hw-mul\libc.a(lib_a-int_errno.o)
                                        0x1d4 (size before relaxing)
 .debug_str     0x000000000000302c       0x46 c:/intelfpga_lite/20.1/nios2eds/bin/gnu/h-x86_64-mingw32/bin/../lib/gcc/nios2-elf/10.1.1/../../../../../H-x86_64-mingw32/nios2-elf/lib/mno-hw-mul\libc.a(lib_a-memcmp.o)
                                        0x1db (size before relaxing)
 .debug_str     0x0000000000003072       0xe1 c:/intelfpga_lite/20.1/nios2eds/bin/gnu/h-x86_64-mingw32/bin/../lib/gcc/nios2-elf/10.1.1/../../../../../H-x86_64-mingw32/nios2-elf/lib/mno-hw-mul\libc.a(lib_a-putchar.o)
                                        0x5b9 (size before relaxing)
 .debug_str     0x0000000000003153       0x53 c:/intelfpga_lite/20.1/nios2eds/bin/gnu/h-x86_64-mingw32/bin/../lib/gcc/nios2-elf/10.1.1/../../../../../H-x86_64-mingw32/nios2-elf/lib/mno-hw-mul\libc.a(lib_a-strlen.o)
                                        0x1ee (size before relaxing)
 .debug_str     0x00000000000031a6       0x41 c:/intelfpga_lite/20.1/nios2eds/bin/gnu/h-x86_64-mingw32/bin/../lib/gcc/nios2-elf/10.1.1/../../../../../H-x86_64-mingw32/nios2-elf/lib/mno-hw-mul\libc.a(lib_a-__atexit.o)
                                        0x5f0 (size before relaxing)
 .debug_str     0x00000000000031e7       0x6d c:/intelfpga_lite/20.1/nios2eds/bin/gnu/h-x86_64-mingw32/bin/../lib/gcc/nios2-elf/10.1.1/../../../../../H-x86_64-mingw32/nios2-elf/lib/mno-hw-mul\libc.a(lib_a-__call_atexit.o)
                                        0x5e9 (size before relaxing)
 .debug_str     0x0000000000003254       0x63 c:/intelfpga_lite/20.1/nios2eds/bin/gnu/h-x86_64-mingw32/bin/../lib/gcc/nios2-elf/10.1.1/../../../../../H-x86_64-mingw32/nios2-elf/lib/mno-hw-mul\libc.a(lib_a-putc.o)
                                        0x5d6 (size before relaxing)
 .debug_str     0x00000000000032b7       0x5a c:/intelfpga_lite/20.1/nios2eds/bin/gnu/h-x86_64-mingw32/bin/../lib/gcc/nios2-elf/10.1.1/../../../../../H-x86_64-mingw32/nios2-elf/lib/mno-hw-mul\libc.a(lib_a-wbuf.o)
                                        0x5da (size before relaxing)
 .debug_str     0x0000000000003311       0x53 c:/intelfpga_lite/20.1/nios2eds/bin/gnu/h-x86_64-mingw32/bin/../lib/gcc/nios2-elf/10.1.1/../../../../../H-x86_64-mingw32/nios2-elf/lib/mno-hw-mul\libc.a(lib_a-wsetup.o)
                                        0x5d5 (size before relaxing)
 .debug_str     0x0000000000003364       0x6e c:/intelfpga_lite/20.1/nios2eds/bin/gnu/h-x86_64-mingw32/bin/../lib/gcc/nios2-elf/10.1.1/../../../../../H-x86_64-mingw32/nios2-elf/lib/mno-hw-mul\libc.a(lib_a-fflush.o)
                                        0x616 (size before relaxing)
 .debug_str     0x00000000000033d2      0x175 c:/intelfpga_lite/20.1/nios2eds/bin/gnu/h-x86_64-mingw32/bin/../lib/gcc/nios2-elf/10.1.1/../../../../../H-x86_64-mingw32/nios2-elf/lib/mno-hw-mul\libc.a(lib_a-findfp.o)
                                        0x724 (size before relaxing)
 .debug_str     0x0000000000003547      0x17d c:/intelfpga_lite/20.1/nios2eds/bin/gnu/h-x86_64-mingw32/bin/../lib/gcc/nios2-elf/10.1.1/../../../../../H-x86_64-mingw32/nios2-elf/lib/mno-hw-mul\libc.a(lib_a-freer.o)
                                        0x705 (size before relaxing)
 .debug_str     0x00000000000036c4       0x4c c:/intelfpga_lite/20.1/nios2eds/bin/gnu/h-x86_64-mingw32/bin/../lib/gcc/nios2-elf/10.1.1/../../../../../H-x86_64-mingw32/nios2-elf/lib/mno-hw-mul\libc.a(lib_a-fwalk.o)
                                        0x5bb (size before relaxing)
 .debug_str     0x0000000000003710       0x77 c:/intelfpga_lite/20.1/nios2eds/bin/gnu/h-x86_64-mingw32/bin/../lib/gcc/nios2-elf/10.1.1/../../../../../H-x86_64-mingw32/nios2-elf/lib/mno-hw-mul\libc.a(lib_a-makebuf.o)
                                        0x737 (size before relaxing)
 .debug_str     0x0000000000003787       0xe5 c:/intelfpga_lite/20.1/nios2eds/bin/gnu/h-x86_64-mingw32/bin/../lib/gcc/nios2-elf/10.1.1/../../../../../H-x86_64-mingw32/nios2-elf/lib/mno-hw-mul\libc.a(lib_a-mallocr.o)
                                        0x7bb (size before relaxing)
 .debug_str     0x000000000000386c       0x3f c:/intelfpga_lite/20.1/nios2eds/bin/gnu/h-x86_64-mingw32/bin/../lib/gcc/nios2-elf/10.1.1/../../../../../H-x86_64-mingw32/nios2-elf/lib/mno-hw-mul\libc.a(lib_a-memset.o)
                                        0x1ef (size before relaxing)
 .debug_str     0x00000000000038ab       0x51 c:/intelfpga_lite/20.1/nios2eds/bin/gnu/h-x86_64-mingw32/bin/../lib/gcc/nios2-elf/10.1.1/../../../../../H-x86_64-mingw32/nios2-elf/lib/mno-hw-mul\libc.a(lib_a-sbrkr.o)
                                        0x5ac (size before relaxing)
 .debug_str     0x00000000000038fc       0x9d c:/intelfpga_lite/20.1/nios2eds/bin/gnu/h-x86_64-mingw32/bin/../lib/gcc/nios2-elf/10.1.1/../../../../../H-x86_64-mingw32/nios2-elf/lib/mno-hw-mul\libc.a(lib_a-stdio.o)
                                        0x60a (size before relaxing)
 .debug_str     0x0000000000003999       0x3e c:/intelfpga_lite/20.1/nios2eds/bin/gnu/h-x86_64-mingw32/bin/../lib/gcc/nios2-elf/10.1.1/../../../../../H-x86_64-mingw32/nios2-elf/lib/mno-hw-mul\libc.a(lib_a-writer.o)
                                        0x5b0 (size before relaxing)
 .debug_str     0x00000000000039d7       0x3e c:/intelfpga_lite/20.1/nios2eds/bin/gnu/h-x86_64-mingw32/bin/../lib/gcc/nios2-elf/10.1.1/../../../../../H-x86_64-mingw32/nios2-elf/lib/mno-hw-mul\libc.a(closer.o)
                                        0x5a0 (size before relaxing)
 .debug_str     0x0000000000003a15       0x54 c:/intelfpga_lite/20.1/nios2eds/bin/gnu/h-x86_64-mingw32/bin/../lib/gcc/nios2-elf/10.1.1/../../../../../H-x86_64-mingw32/nios2-elf/lib/mno-hw-mul\libc.a(lib_a-fclose.o)
                                        0x603 (size before relaxing)
 .debug_str     0x0000000000003a69       0x44 c:/intelfpga_lite/20.1/nios2eds/bin/gnu/h-x86_64-mingw32/bin/../lib/gcc/nios2-elf/10.1.1/../../../../../H-x86_64-mingw32/nios2-elf/lib/mno-hw-mul\libc.a(lib_a-fstatr.o)
                                        0x6eb (size before relaxing)
 .debug_str     0x0000000000003aad       0x46 c:/intelfpga_lite/20.1/nios2eds/bin/gnu/h-x86_64-mingw32/bin/../lib/gcc/nios2-elf/10.1.1/../../../../../H-x86_64-mingw32/nios2-elf/lib/mno-hw-mul\libc.a(lib_a-isattyr.o)
                                        0x5a3 (size before relaxing)
 .debug_str     0x0000000000003af3       0x3e c:/intelfpga_lite/20.1/nios2eds/bin/gnu/h-x86_64-mingw32/bin/../lib/gcc/nios2-elf/10.1.1/../../../../../H-x86_64-mingw32/nios2-elf/lib/mno-hw-mul\libc.a(lib_a-lseekr.o)
                                        0x5a7 (size before relaxing)
 .debug_str     0x0000000000003b31       0x3d c:/intelfpga_lite/20.1/nios2eds/bin/gnu/h-x86_64-mingw32/bin/../lib/gcc/nios2-elf/10.1.1/../../../../../H-x86_64-mingw32/nios2-elf/lib/mno-hw-mul\libc.a(lib_a-readr.o)
                                        0x5ad (size before relaxing)
 .debug_str     0x0000000000003b6e       0x2a c:/GitHub/FAccel-CNN/hardware/intel_fpga/development_kits/terasic_de0_nano/quartus_projects/inference_test/20.1/software/bringup_test_bsp/\libhal_bsp.a(alt_exit.o)
                                        0x1a2 (size before relaxing)
 .debug_str     0x0000000000003b98       0x14 c:/GitHub/FAccel-CNN/hardware/intel_fpga/development_kits/terasic_de0_nano/quartus_projects/inference_test/20.1/software/bringup_test_bsp/\libhal_bsp.a(alt_fstat.o)
                                        0x38f (size before relaxing)
 .debug_str     0x0000000000003bac       0x15 c:/GitHub/FAccel-CNN/hardware/intel_fpga/development_kits/terasic_de0_nano/quartus_projects/inference_test/20.1/software/bringup_test_bsp/\libhal_bsp.a(alt_isatty.o)
                                        0x397 (size before relaxing)
 .debug_str     0x0000000000003bc1       0x14 c:/GitHub/FAccel-CNN/hardware/intel_fpga/development_kits/terasic_de0_nano/quartus_projects/inference_test/20.1/software/bringup_test_bsp/\libhal_bsp.a(alt_lseek.o)
                                        0x25d (size before relaxing)
 .debug_str     0x0000000000003bd5       0x1a c:/GitHub/FAccel-CNN/hardware/intel_fpga/development_kits/terasic_de0_nano/quartus_projects/inference_test/20.1/software/bringup_test_bsp/\libhal_bsp.a(alt_malloc_lock.o)
                                        0x56a (size before relaxing)
 .debug_str     0x0000000000003bef       0x13 c:/GitHub/FAccel-CNN/hardware/intel_fpga/development_kits/terasic_de0_nano/quartus_projects/inference_test/20.1/software/bringup_test_bsp/\libhal_bsp.a(alt_read.o)
                                        0x39a (size before relaxing)
 .debug_str     0x0000000000003c02       0x4b c:/GitHub/FAccel-CNN/hardware/intel_fpga/development_kits/terasic_de0_nano/quartus_projects/inference_test/20.1/software/bringup_test_bsp/\libhal_bsp.a(alt_sbrk.o)
                                        0x20f (size before relaxing)
 .debug_str     0x0000000000003c4d       0x14 c:/GitHub/FAccel-CNN/hardware/intel_fpga/development_kits/terasic_de0_nano/quartus_projects/inference_test/20.1/software/bringup_test_bsp/\libhal_bsp.a(alt_write.o)
                                        0x39b (size before relaxing)

.debug_loc      0x0000000000000000    0x131a5
 *(.debug_loc)
 .debug_loc     0x0000000000000000       0x56 c:/intelfpga_lite/20.1/nios2eds/bin/gnu/h-x86_64-mingw32/bin/../lib/gcc/nios2-elf/10.1.1/../../../../../H-x86_64-mingw32/nios2-elf/lib/mno-hw-mul\libm.a(lib_a-wf_exp.o)
 .debug_loc     0x0000000000000056       0x49 c:/intelfpga_lite/20.1/nios2eds/bin/gnu/h-x86_64-mingw32/bin/../lib/gcc/nios2-elf/10.1.1/../../../../../H-x86_64-mingw32/nios2-elf/lib/mno-hw-mul\libm.a(lib_a-wf_log.o)
 .debug_loc     0x000000000000009f      0x52f c:/intelfpga_lite/20.1/nios2eds/bin/gnu/h-x86_64-mingw32/bin/../lib/gcc/nios2-elf/10.1.1/../../../../../H-x86_64-mingw32/nios2-elf/lib/mno-hw-mul\libm.a(lib_a-ef_exp.o)
 .debug_loc     0x00000000000005ce      0x5a5 c:/intelfpga_lite/20.1/nios2eds/bin/gnu/h-x86_64-mingw32/bin/../lib/gcc/nios2-elf/10.1.1/../../../../../H-x86_64-mingw32/nios2-elf/lib/mno-hw-mul\libm.a(lib_a-ef_log.o)
 .debug_loc     0x0000000000000b73       0x2c c:/intelfpga_lite/20.1/nios2eds/bin/gnu/h-x86_64-mingw32/bin/../lib/gcc/nios2-elf/10.1.1/mno-hw-mul\libgcc.a(_fixunsdfsi.o)
 .debug_loc     0x0000000000000b9f     0x153c c:/intelfpga_lite/20.1/nios2eds/bin/gnu/h-x86_64-mingw32/bin/../lib/gcc/nios2-elf/10.1.1/mno-hw-mul\libgcc.a(_udivdi3.o)
 .debug_loc     0x00000000000020db     0x1192 c:/intelfpga_lite/20.1/nios2eds/bin/gnu/h-x86_64-mingw32/bin/../lib/gcc/nios2-elf/10.1.1/mno-hw-mul\libgcc.a(_umoddi3.o)
 .debug_loc     0x000000000000326d      0x5d0 c:/intelfpga_lite/20.1/nios2eds/bin/gnu/h-x86_64-mingw32/bin/../lib/gcc/nios2-elf/10.1.1/mno-hw-mul\libgcc.a(lib2-divmod.o)
 .debug_loc     0x000000000000383d       0xa7 c:/intelfpga_lite/20.1/nios2eds/bin/gnu/h-x86_64-mingw32/bin/../lib/gcc/nios2-elf/10.1.1/mno-hw-mul\libgcc.a(lib2-mul.o)
 .debug_loc     0x00000000000038e4      0xfb5 c:/intelfpga_lite/20.1/nios2eds/bin/gnu/h-x86_64-mingw32/bin/../lib/gcc/nios2-elf/10.1.1/mno-hw-mul\libgcc.a(addsf3.o)
 .debug_loc     0x0000000000004899      0x7b1 c:/intelfpga_lite/20.1/nios2eds/bin/gnu/h-x86_64-mingw32/bin/../lib/gcc/nios2-elf/10.1.1/mno-hw-mul\libgcc.a(divsf3.o)
 .debug_loc     0x000000000000504a      0x16a c:/intelfpga_lite/20.1/nios2eds/bin/gnu/h-x86_64-mingw32/bin/../lib/gcc/nios2-elf/10.1.1/mno-hw-mul\libgcc.a(eqsf2.o)
 .debug_loc     0x00000000000051b4      0x17e c:/intelfpga_lite/20.1/nios2eds/bin/gnu/h-x86_64-mingw32/bin/../lib/gcc/nios2-elf/10.1.1/mno-hw-mul\libgcc.a(gesf2.o)
 .debug_loc     0x0000000000005332      0x17e c:/intelfpga_lite/20.1/nios2eds/bin/gnu/h-x86_64-mingw32/bin/../lib/gcc/nios2-elf/10.1.1/mno-hw-mul\libgcc.a(lesf2.o)
 .debug_loc     0x00000000000054b0      0x96f c:/intelfpga_lite/20.1/nios2eds/bin/gnu/h-x86_64-mingw32/bin/../lib/gcc/nios2-elf/10.1.1/mno-hw-mul\libgcc.a(mulsf3.o)
 .debug_loc     0x0000000000005e1f      0xa77 c:/intelfpga_lite/20.1/nios2eds/bin/gnu/h-x86_64-mingw32/bin/../lib/gcc/nios2-elf/10.1.1/mno-hw-mul\libgcc.a(subsf3.o)
 .debug_loc     0x0000000000006896      0x122 c:/intelfpga_lite/20.1/nios2eds/bin/gnu/h-x86_64-mingw32/bin/../lib/gcc/nios2-elf/10.1.1/mno-hw-mul\libgcc.a(unordsf2.o)
 .debug_loc     0x00000000000069b8      0x136 c:/intelfpga_lite/20.1/nios2eds/bin/gnu/h-x86_64-mingw32/bin/../lib/gcc/nios2-elf/10.1.1/mno-hw-mul\libgcc.a(fixsfsi.o)
 .debug_loc     0x0000000000006aee      0x250 c:/intelfpga_lite/20.1/nios2eds/bin/gnu/h-x86_64-mingw32/bin/../lib/gcc/nios2-elf/10.1.1/mno-hw-mul\libgcc.a(floatsisf.o)
 .debug_loc     0x0000000000006d3e      0x2ab c:/intelfpga_lite/20.1/nios2eds/bin/gnu/h-x86_64-mingw32/bin/../lib/gcc/nios2-elf/10.1.1/mno-hw-mul\libgcc.a(floatunsisf.o)
 .debug_loc     0x0000000000006fe9     0x1f4b c:/intelfpga_lite/20.1/nios2eds/bin/gnu/h-x86_64-mingw32/bin/../lib/gcc/nios2-elf/10.1.1/mno-hw-mul\libgcc.a(adddf3.o)
 .debug_loc     0x0000000000008f34     0x2228 c:/intelfpga_lite/20.1/nios2eds/bin/gnu/h-x86_64-mingw32/bin/../lib/gcc/nios2-elf/10.1.1/mno-hw-mul\libgcc.a(divdf3.o)
 .debug_loc     0x000000000000b15c      0x113 c:/intelfpga_lite/20.1/nios2eds/bin/gnu/h-x86_64-mingw32/bin/../lib/gcc/nios2-elf/10.1.1/mno-hw-mul\libgcc.a(eqdf2.o)
 .debug_loc     0x000000000000b26f      0x185 c:/intelfpga_lite/20.1/nios2eds/bin/gnu/h-x86_64-mingw32/bin/../lib/gcc/nios2-elf/10.1.1/mno-hw-mul\libgcc.a(gedf2.o)
 .debug_loc     0x000000000000b3f4      0x177 c:/intelfpga_lite/20.1/nios2eds/bin/gnu/h-x86_64-mingw32/bin/../lib/gcc/nios2-elf/10.1.1/mno-hw-mul\libgcc.a(ledf2.o)
 .debug_loc     0x000000000000b56b     0x1596 c:/intelfpga_lite/20.1/nios2eds/bin/gnu/h-x86_64-mingw32/bin/../lib/gcc/nios2-elf/10.1.1/mno-hw-mul\libgcc.a(muldf3.o)
 .debug_loc     0x000000000000cb01     0x1e52 c:/intelfpga_lite/20.1/nios2eds/bin/gnu/h-x86_64-mingw32/bin/../lib/gcc/nios2-elf/10.1.1/mno-hw-mul\libgcc.a(subdf3.o)
 .debug_loc     0x000000000000e953      0x1bf c:/intelfpga_lite/20.1/nios2eds/bin/gnu/h-x86_64-mingw32/bin/../lib/gcc/nios2-elf/10.1.1/mno-hw-mul\libgcc.a(fixdfsi.o)
 .debug_loc     0x000000000000eb12      0x239 c:/intelfpga_lite/20.1/nios2eds/bin/gnu/h-x86_64-mingw32/bin/../lib/gcc/nios2-elf/10.1.1/mno-hw-mul\libgcc.a(floatsidf.o)
 .debug_loc     0x000000000000ed4b      0x24d c:/intelfpga_lite/20.1/nios2eds/bin/gnu/h-x86_64-mingw32/bin/../lib/gcc/nios2-elf/10.1.1/mno-hw-mul\libgcc.a(floatunsidf.o)
 .debug_loc     0x000000000000ef98      0x336 c:/intelfpga_lite/20.1/nios2eds/bin/gnu/h-x86_64-mingw32/bin/../lib/gcc/nios2-elf/10.1.1/mno-hw-mul\libgcc.a(extendsfdf2.o)
 .debug_loc     0x000000000000f2ce       0xbe c:/intelfpga_lite/20.1/nios2eds/bin/gnu/h-x86_64-mingw32/bin/../lib/gcc/nios2-elf/10.1.1/mno-hw-mul\libgcc.a(_clzsi2.o)
 .debug_loc     0x000000000000f38c      0x347 c:/intelfpga_lite/20.1/nios2eds/bin/gnu/h-x86_64-mingw32/bin/../lib/gcc/nios2-elf/10.1.1/../../../../../H-x86_64-mingw32/nios2-elf/lib/mno-hw-mul\libc.a(lib_a-memcpy.o)
 .debug_loc     0x000000000000f6d3       0x32 c:/intelfpga_lite/20.1/nios2eds/bin/gnu/h-x86_64-mingw32/bin/../lib/gcc/nios2-elf/10.1.1/../../../../../H-x86_64-mingw32/nios2-elf/lib/mno-hw-mul\libc.a(lib_a-atexit.o)
 .debug_loc     0x000000000000f705       0x22 c:/intelfpga_lite/20.1/nios2eds/bin/gnu/h-x86_64-mingw32/bin/../lib/gcc/nios2-elf/10.1.1/../../../../../H-x86_64-mingw32/nios2-elf/lib/mno-hw-mul\libc.a(lib_a-exit.o)
 .debug_loc     0x000000000000f727      0x158 c:/intelfpga_lite/20.1/nios2eds/bin/gnu/h-x86_64-mingw32/bin/../lib/gcc/nios2-elf/10.1.1/../../../../../H-x86_64-mingw32/nios2-elf/lib/mno-hw-mul\libc.a(lib_a-memcmp.o)
 .debug_loc     0x000000000000f87f       0x91 c:/intelfpga_lite/20.1/nios2eds/bin/gnu/h-x86_64-mingw32/bin/../lib/gcc/nios2-elf/10.1.1/../../../../../H-x86_64-mingw32/nios2-elf/lib/mno-hw-mul\libc.a(lib_a-putchar.o)
 .debug_loc     0x000000000000f910       0x73 c:/intelfpga_lite/20.1/nios2eds/bin/gnu/h-x86_64-mingw32/bin/../lib/gcc/nios2-elf/10.1.1/../../../../../H-x86_64-mingw32/nios2-elf/lib/mno-hw-mul\libc.a(lib_a-strlen.o)
 .debug_loc     0x000000000000f983       0xf7 c:/intelfpga_lite/20.1/nios2eds/bin/gnu/h-x86_64-mingw32/bin/../lib/gcc/nios2-elf/10.1.1/../../../../../H-x86_64-mingw32/nios2-elf/lib/mno-hw-mul\libc.a(lib_a-__atexit.o)
 .debug_loc     0x000000000000fa7a      0x1ca c:/intelfpga_lite/20.1/nios2eds/bin/gnu/h-x86_64-mingw32/bin/../lib/gcc/nios2-elf/10.1.1/../../../../../H-x86_64-mingw32/nios2-elf/lib/mno-hw-mul\libc.a(lib_a-__call_atexit.o)
 .debug_loc     0x000000000000fc44      0x307 c:/intelfpga_lite/20.1/nios2eds/bin/gnu/h-x86_64-mingw32/bin/../lib/gcc/nios2-elf/10.1.1/../../../../../H-x86_64-mingw32/nios2-elf/lib/mno-hw-mul\libc.a(lib_a-putc.o)
 .debug_loc     0x000000000000ff4b      0x201 c:/intelfpga_lite/20.1/nios2eds/bin/gnu/h-x86_64-mingw32/bin/../lib/gcc/nios2-elf/10.1.1/../../../../../H-x86_64-mingw32/nios2-elf/lib/mno-hw-mul\libc.a(lib_a-wbuf.o)
 .debug_loc     0x000000000001014c       0xd4 c:/intelfpga_lite/20.1/nios2eds/bin/gnu/h-x86_64-mingw32/bin/../lib/gcc/nios2-elf/10.1.1/../../../../../H-x86_64-mingw32/nios2-elf/lib/mno-hw-mul\libc.a(lib_a-wsetup.o)
 .debug_loc     0x0000000000010220      0x4c6 c:/intelfpga_lite/20.1/nios2eds/bin/gnu/h-x86_64-mingw32/bin/../lib/gcc/nios2-elf/10.1.1/../../../../../H-x86_64-mingw32/nios2-elf/lib/mno-hw-mul\libc.a(lib_a-fflush.o)
 .debug_loc     0x00000000000106e6      0x339 c:/intelfpga_lite/20.1/nios2eds/bin/gnu/h-x86_64-mingw32/bin/../lib/gcc/nios2-elf/10.1.1/../../../../../H-x86_64-mingw32/nios2-elf/lib/mno-hw-mul\libc.a(lib_a-findfp.o)
 .debug_loc     0x0000000000010a1f      0x614 c:/intelfpga_lite/20.1/nios2eds/bin/gnu/h-x86_64-mingw32/bin/../lib/gcc/nios2-elf/10.1.1/../../../../../H-x86_64-mingw32/nios2-elf/lib/mno-hw-mul\libc.a(lib_a-freer.o)
 .debug_loc     0x0000000000011033      0x1eb c:/intelfpga_lite/20.1/nios2eds/bin/gnu/h-x86_64-mingw32/bin/../lib/gcc/nios2-elf/10.1.1/../../../../../H-x86_64-mingw32/nios2-elf/lib/mno-hw-mul\libc.a(lib_a-fwalk.o)
 .debug_loc     0x000000000001121e      0x449 c:/intelfpga_lite/20.1/nios2eds/bin/gnu/h-x86_64-mingw32/bin/../lib/gcc/nios2-elf/10.1.1/../../../../../H-x86_64-mingw32/nios2-elf/lib/mno-hw-mul\libc.a(lib_a-makebuf.o)
 .debug_loc     0x0000000000011667      0xd34 c:/intelfpga_lite/20.1/nios2eds/bin/gnu/h-x86_64-mingw32/bin/../lib/gcc/nios2-elf/10.1.1/../../../../../H-x86_64-mingw32/nios2-elf/lib/mno-hw-mul\libc.a(lib_a-mallocr.o)
 .debug_loc     0x000000000001239b      0x1b5 c:/intelfpga_lite/20.1/nios2eds/bin/gnu/h-x86_64-mingw32/bin/../lib/gcc/nios2-elf/10.1.1/../../../../../H-x86_64-mingw32/nios2-elf/lib/mno-hw-mul\libc.a(lib_a-memset.o)
 .debug_loc     0x0000000000012550       0x89 c:/intelfpga_lite/20.1/nios2eds/bin/gnu/h-x86_64-mingw32/bin/../lib/gcc/nios2-elf/10.1.1/../../../../../H-x86_64-mingw32/nios2-elf/lib/mno-hw-mul\libc.a(lib_a-sbrkr.o)
 .debug_loc     0x00000000000125d9      0x43c c:/intelfpga_lite/20.1/nios2eds/bin/gnu/h-x86_64-mingw32/bin/../lib/gcc/nios2-elf/10.1.1/../../../../../H-x86_64-mingw32/nios2-elf/lib/mno-hw-mul\libc.a(lib_a-stdio.o)
 .debug_loc     0x0000000000012a15       0xed c:/intelfpga_lite/20.1/nios2eds/bin/gnu/h-x86_64-mingw32/bin/../lib/gcc/nios2-elf/10.1.1/../../../../../H-x86_64-mingw32/nios2-elf/lib/mno-hw-mul\libc.a(lib_a-writer.o)
 .debug_loc     0x0000000000012b02       0x89 c:/intelfpga_lite/20.1/nios2eds/bin/gnu/h-x86_64-mingw32/bin/../lib/gcc/nios2-elf/10.1.1/../../../../../H-x86_64-mingw32/nios2-elf/lib/mno-hw-mul\libc.a(closer.o)
 .debug_loc     0x0000000000012b8b      0x2fc c:/intelfpga_lite/20.1/nios2eds/bin/gnu/h-x86_64-mingw32/bin/../lib/gcc/nios2-elf/10.1.1/../../../../../H-x86_64-mingw32/nios2-elf/lib/mno-hw-mul\libc.a(lib_a-fclose.o)
 .debug_loc     0x0000000000012e87       0xbb c:/intelfpga_lite/20.1/nios2eds/bin/gnu/h-x86_64-mingw32/bin/../lib/gcc/nios2-elf/10.1.1/../../../../../H-x86_64-mingw32/nios2-elf/lib/mno-hw-mul\libc.a(lib_a-fstatr.o)
 .debug_loc     0x0000000000012f42       0x89 c:/intelfpga_lite/20.1/nios2eds/bin/gnu/h-x86_64-mingw32/bin/../lib/gcc/nios2-elf/10.1.1/../../../../../H-x86_64-mingw32/nios2-elf/lib/mno-hw-mul\libc.a(lib_a-isattyr.o)
 .debug_loc     0x0000000000012fcb       0xed c:/intelfpga_lite/20.1/nios2eds/bin/gnu/h-x86_64-mingw32/bin/../lib/gcc/nios2-elf/10.1.1/../../../../../H-x86_64-mingw32/nios2-elf/lib/mno-hw-mul\libc.a(lib_a-lseekr.o)
 .debug_loc     0x00000000000130b8       0xed c:/intelfpga_lite/20.1/nios2eds/bin/gnu/h-x86_64-mingw32/bin/../lib/gcc/nios2-elf/10.1.1/../../../../../H-x86_64-mingw32/nios2-elf/lib/mno-hw-mul\libc.a(lib_a-readr.o)

.debug_macinfo
 *(.debug_macinfo)

.debug_weaknames
 *(.debug_weaknames)

.debug_funcnames
 *(.debug_funcnames)

.debug_typenames
 *(.debug_typenames)

.debug_varnames
 *(.debug_varnames)

.debug_alt_sim_info
                0x0000000000000000       0x10
 *(.debug_alt_sim_info)
 .debug_alt_sim_info
                0x0000000000000000       0x10 c:/GitHub/FAccel-CNN/hardware/intel_fpga/development_kits/terasic_de0_nano/quartus_projects/inference_test/20.1/software/bringup_test_bsp//obj/HAL/src/crt0.o
                0x0000000002000000                __alt_data_end = 0x2000000
                0x0000000002000000                PROVIDE (__alt_stack_pointer = __alt_data_end)
                [!provide]                        PROVIDE (__alt_stack_limit = __alt_stack_base)
                0x0000000000015f7c                PROVIDE (__alt_heap_start = end)
                0x0000000002000000                PROVIDE (__alt_heap_limit = 0x2000000)
OUTPUT(bringup_test.elf elf32-littlenios2)
LOAD linker stubs

.debug_ranges   0x0000000000000000     0x2410
 .debug_ranges  0x0000000000000000       0x20 c:/GitHub/FAccel-CNN/hardware/intel_fpga/development_kits/terasic_de0_nano/quartus_projects/inference_test/20.1/software/bringup_test_bsp//obj/HAL/src/crt0.o
 .debug_ranges  0x0000000000000020       0x10 c:/intelfpga_lite/20.1/nios2eds/bin/gnu/h-x86_64-mingw32/bin/../lib/gcc/nios2-elf/10.1.1/../../../../../H-x86_64-mingw32/nios2-elf/lib/mno-hw-mul\libm.a(lib_a-wf_exp.o)
 .debug_ranges  0x0000000000000030       0x10 c:/intelfpga_lite/20.1/nios2eds/bin/gnu/h-x86_64-mingw32/bin/../lib/gcc/nios2-elf/10.1.1/../../../../../H-x86_64-mingw32/nios2-elf/lib/mno-hw-mul\libm.a(lib_a-wf_log.o)
 .debug_ranges  0x0000000000000040       0x58 c:/intelfpga_lite/20.1/nios2eds/bin/gnu/h-x86_64-mingw32/bin/../lib/gcc/nios2-elf/10.1.1/../../../../../H-x86_64-mingw32/nios2-elf/lib/mno-hw-mul\libm.a(lib_a-ef_exp.o)
 .debug_ranges  0x0000000000000098       0x58 c:/intelfpga_lite/20.1/nios2eds/bin/gnu/h-x86_64-mingw32/bin/../lib/gcc/nios2-elf/10.1.1/../../../../../H-x86_64-mingw32/nios2-elf/lib/mno-hw-mul\libm.a(lib_a-ef_log.o)
 .debug_ranges  0x00000000000000f0      0x1d8 c:/intelfpga_lite/20.1/nios2eds/bin/gnu/h-x86_64-mingw32/bin/../lib/gcc/nios2-elf/10.1.1/mno-hw-mul\libgcc.a(_udivdi3.o)
 .debug_ranges  0x00000000000002c8      0x180 c:/intelfpga_lite/20.1/nios2eds/bin/gnu/h-x86_64-mingw32/bin/../lib/gcc/nios2-elf/10.1.1/mno-hw-mul\libgcc.a(_umoddi3.o)
 .debug_ranges  0x0000000000000448       0x70 c:/intelfpga_lite/20.1/nios2eds/bin/gnu/h-x86_64-mingw32/bin/../lib/gcc/nios2-elf/10.1.1/mno-hw-mul\libgcc.a(lib2-divmod.o)
 .debug_ranges  0x00000000000004b8      0x208 c:/intelfpga_lite/20.1/nios2eds/bin/gnu/h-x86_64-mingw32/bin/../lib/gcc/nios2-elf/10.1.1/mno-hw-mul\libgcc.a(addsf3.o)
 .debug_ranges  0x00000000000006c0       0xf8 c:/intelfpga_lite/20.1/nios2eds/bin/gnu/h-x86_64-mingw32/bin/../lib/gcc/nios2-elf/10.1.1/mno-hw-mul\libgcc.a(divsf3.o)
 .debug_ranges  0x00000000000007b8       0x48 c:/intelfpga_lite/20.1/nios2eds/bin/gnu/h-x86_64-mingw32/bin/../lib/gcc/nios2-elf/10.1.1/mno-hw-mul\libgcc.a(eqsf2.o)
 .debug_ranges  0x0000000000000800       0x68 c:/intelfpga_lite/20.1/nios2eds/bin/gnu/h-x86_64-mingw32/bin/../lib/gcc/nios2-elf/10.1.1/mno-hw-mul\libgcc.a(gesf2.o)
 .debug_ranges  0x0000000000000868       0x70 c:/intelfpga_lite/20.1/nios2eds/bin/gnu/h-x86_64-mingw32/bin/../lib/gcc/nios2-elf/10.1.1/mno-hw-mul\libgcc.a(lesf2.o)
 .debug_ranges  0x00000000000008d8      0x108 c:/intelfpga_lite/20.1/nios2eds/bin/gnu/h-x86_64-mingw32/bin/../lib/gcc/nios2-elf/10.1.1/mno-hw-mul\libgcc.a(mulsf3.o)
 .debug_ranges  0x00000000000009e0      0x278 c:/intelfpga_lite/20.1/nios2eds/bin/gnu/h-x86_64-mingw32/bin/../lib/gcc/nios2-elf/10.1.1/mno-hw-mul\libgcc.a(subsf3.o)
 .debug_ranges  0x0000000000000c58       0x20 c:/intelfpga_lite/20.1/nios2eds/bin/gnu/h-x86_64-mingw32/bin/../lib/gcc/nios2-elf/10.1.1/mno-hw-mul\libgcc.a(unordsf2.o)
 .debug_ranges  0x0000000000000c78       0x18 c:/intelfpga_lite/20.1/nios2eds/bin/gnu/h-x86_64-mingw32/bin/../lib/gcc/nios2-elf/10.1.1/mno-hw-mul\libgcc.a(fixsfsi.o)
 .debug_ranges  0x0000000000000c90       0xa0 c:/intelfpga_lite/20.1/nios2eds/bin/gnu/h-x86_64-mingw32/bin/../lib/gcc/nios2-elf/10.1.1/mno-hw-mul\libgcc.a(floatsisf.o)
 .debug_ranges  0x0000000000000d30       0x88 c:/intelfpga_lite/20.1/nios2eds/bin/gnu/h-x86_64-mingw32/bin/../lib/gcc/nios2-elf/10.1.1/mno-hw-mul\libgcc.a(floatunsisf.o)
 .debug_ranges  0x0000000000000db8      0x300 c:/intelfpga_lite/20.1/nios2eds/bin/gnu/h-x86_64-mingw32/bin/../lib/gcc/nios2-elf/10.1.1/mno-hw-mul\libgcc.a(adddf3.o)
 .debug_ranges  0x00000000000010b8      0x280 c:/intelfpga_lite/20.1/nios2eds/bin/gnu/h-x86_64-mingw32/bin/../lib/gcc/nios2-elf/10.1.1/mno-hw-mul\libgcc.a(divdf3.o)
 .debug_ranges  0x0000000000001338       0x48 c:/intelfpga_lite/20.1/nios2eds/bin/gnu/h-x86_64-mingw32/bin/../lib/gcc/nios2-elf/10.1.1/mno-hw-mul\libgcc.a(eqdf2.o)
 .debug_ranges  0x0000000000001380       0x70 c:/intelfpga_lite/20.1/nios2eds/bin/gnu/h-x86_64-mingw32/bin/../lib/gcc/nios2-elf/10.1.1/mno-hw-mul\libgcc.a(gedf2.o)
 .debug_ranges  0x00000000000013f0       0x70 c:/intelfpga_lite/20.1/nios2eds/bin/gnu/h-x86_64-mingw32/bin/../lib/gcc/nios2-elf/10.1.1/mno-hw-mul\libgcc.a(ledf2.o)
 .debug_ranges  0x0000000000001460      0x2a8 c:/intelfpga_lite/20.1/nios2eds/bin/gnu/h-x86_64-mingw32/bin/../lib/gcc/nios2-elf/10.1.1/mno-hw-mul\libgcc.a(muldf3.o)
 .debug_ranges  0x0000000000001708      0x398 c:/intelfpga_lite/20.1/nios2eds/bin/gnu/h-x86_64-mingw32/bin/../lib/gcc/nios2-elf/10.1.1/mno-hw-mul\libgcc.a(subdf3.o)
 .debug_ranges  0x0000000000001aa0       0x18 c:/intelfpga_lite/20.1/nios2eds/bin/gnu/h-x86_64-mingw32/bin/../lib/gcc/nios2-elf/10.1.1/mno-hw-mul\libgcc.a(fixdfsi.o)
 .debug_ranges  0x0000000000001ab8       0xd8 c:/intelfpga_lite/20.1/nios2eds/bin/gnu/h-x86_64-mingw32/bin/../lib/gcc/nios2-elf/10.1.1/mno-hw-mul\libgcc.a(floatsidf.o)
 .debug_ranges  0x0000000000001b90       0xd8 c:/intelfpga_lite/20.1/nios2eds/bin/gnu/h-x86_64-mingw32/bin/../lib/gcc/nios2-elf/10.1.1/mno-hw-mul\libgcc.a(floatunsidf.o)
 .debug_ranges  0x0000000000001c68       0x98 c:/intelfpga_lite/20.1/nios2eds/bin/gnu/h-x86_64-mingw32/bin/../lib/gcc/nios2-elf/10.1.1/mno-hw-mul\libgcc.a(extendsfdf2.o)
 .debug_ranges  0x0000000000001d00       0x20 c:/intelfpga_lite/20.1/nios2eds/bin/gnu/h-x86_64-mingw32/bin/../lib/gcc/nios2-elf/10.1.1/mno-hw-mul\libgcc.a(_clzsi2.o)
 .debug_ranges  0x0000000000001d20       0x10 c:/intelfpga_lite/20.1/nios2eds/bin/gnu/h-x86_64-mingw32/bin/../lib/gcc/nios2-elf/10.1.1/../../../../../H-x86_64-mingw32/nios2-elf/lib/mno-hw-mul\libc.a(lib_a-errno.o)
 .debug_ranges  0x0000000000001d30       0x10 c:/intelfpga_lite/20.1/nios2eds/bin/gnu/h-x86_64-mingw32/bin/../lib/gcc/nios2-elf/10.1.1/../../../../../H-x86_64-mingw32/nios2-elf/lib/mno-hw-mul\libc.a(lib_a-memcpy.o)
 .debug_ranges  0x0000000000001d40       0x30 c:/GitHub/FAccel-CNN/hardware/intel_fpga/development_kits/terasic_de0_nano/quartus_projects/inference_test/20.1/software/bringup_test_bsp/\libhal_bsp.a(altera_avalon_jtag_uart_init.o)
 .debug_ranges  0x0000000000001d70       0x18 c:/GitHub/FAccel-CNN/hardware/intel_fpga/development_kits/terasic_de0_nano/quartus_projects/inference_test/20.1/software/bringup_test_bsp/\libhal_bsp.a(altera_avalon_jtag_uart_read.o)
 .debug_ranges  0x0000000000001d88       0x28 c:/GitHub/FAccel-CNN/hardware/intel_fpga/development_kits/terasic_de0_nano/quartus_projects/inference_test/20.1/software/bringup_test_bsp/\libhal_bsp.a(alt_irq_entry.o)
 .debug_ranges  0x0000000000001db0       0x10 c:/GitHub/FAccel-CNN/hardware/intel_fpga/development_kits/terasic_de0_nano/quartus_projects/inference_test/20.1/software/bringup_test_bsp/\libhal_bsp.a(alt_irq_handler.o)
 .debug_ranges  0x0000000000001dc0       0x30 c:/GitHub/FAccel-CNN/hardware/intel_fpga/development_kits/terasic_de0_nano/quartus_projects/inference_test/20.1/software/bringup_test_bsp/\libhal_bsp.a(alt_exception_entry.o)
 .debug_ranges  0x0000000000001df0       0x18 c:/GitHub/FAccel-CNN/hardware/intel_fpga/development_kits/terasic_de0_nano/quartus_projects/inference_test/20.1/software/bringup_test_bsp/\libhal_bsp.a(alt_instruction_exception_entry.o)
 .debug_ranges  0x0000000000001e08       0x10 c:/intelfpga_lite/20.1/nios2eds/bin/gnu/h-x86_64-mingw32/bin/../lib/gcc/nios2-elf/10.1.1/../../../../../H-x86_64-mingw32/nios2-elf/lib/mno-hw-mul\libc.a(lib_a-atexit.o)
 .debug_ranges  0x0000000000001e18       0x10 c:/intelfpga_lite/20.1/nios2eds/bin/gnu/h-x86_64-mingw32/bin/../lib/gcc/nios2-elf/10.1.1/../../../../../H-x86_64-mingw32/nios2-elf/lib/mno-hw-mul\libc.a(lib_a-exit.o)
 .debug_ranges  0x0000000000001e28       0x10 c:/intelfpga_lite/20.1/nios2eds/bin/gnu/h-x86_64-mingw32/bin/../lib/gcc/nios2-elf/10.1.1/../../../../../H-x86_64-mingw32/nios2-elf/lib/mno-hw-mul\libc.a(lib_a-memcmp.o)
 .debug_ranges  0x0000000000001e38       0x18 c:/intelfpga_lite/20.1/nios2eds/bin/gnu/h-x86_64-mingw32/bin/../lib/gcc/nios2-elf/10.1.1/../../../../../H-x86_64-mingw32/nios2-elf/lib/mno-hw-mul\libc.a(lib_a-putchar.o)
 .debug_ranges  0x0000000000001e50       0x10 c:/intelfpga_lite/20.1/nios2eds/bin/gnu/h-x86_64-mingw32/bin/../lib/gcc/nios2-elf/10.1.1/../../../../../H-x86_64-mingw32/nios2-elf/lib/mno-hw-mul\libc.a(lib_a-strlen.o)
 .debug_ranges  0x0000000000001e60       0x10 c:/intelfpga_lite/20.1/nios2eds/bin/gnu/h-x86_64-mingw32/bin/../lib/gcc/nios2-elf/10.1.1/../../../../../H-x86_64-mingw32/nios2-elf/lib/mno-hw-mul\libc.a(lib_a-__atexit.o)
 .debug_ranges  0x0000000000001e70       0x38 c:/intelfpga_lite/20.1/nios2eds/bin/gnu/h-x86_64-mingw32/bin/../lib/gcc/nios2-elf/10.1.1/../../../../../H-x86_64-mingw32/nios2-elf/lib/mno-hw-mul\libc.a(lib_a-__call_atexit.o)
 .debug_ranges  0x0000000000001ea8       0x58 c:/intelfpga_lite/20.1/nios2eds/bin/gnu/h-x86_64-mingw32/bin/../lib/gcc/nios2-elf/10.1.1/../../../../../H-x86_64-mingw32/nios2-elf/lib/mno-hw-mul\libc.a(lib_a-putc.o)
 .debug_ranges  0x0000000000001f00       0x40 c:/intelfpga_lite/20.1/nios2eds/bin/gnu/h-x86_64-mingw32/bin/../lib/gcc/nios2-elf/10.1.1/../../../../../H-x86_64-mingw32/nios2-elf/lib/mno-hw-mul\libc.a(lib_a-wbuf.o)
 .debug_ranges  0x0000000000001f40       0x30 c:/intelfpga_lite/20.1/nios2eds/bin/gnu/h-x86_64-mingw32/bin/../lib/gcc/nios2-elf/10.1.1/../../../../../H-x86_64-mingw32/nios2-elf/lib/mno-hw-mul\libc.a(lib_a-wsetup.o)
 .debug_ranges  0x0000000000001f70       0xc8 c:/intelfpga_lite/20.1/nios2eds/bin/gnu/h-x86_64-mingw32/bin/../lib/gcc/nios2-elf/10.1.1/../../../../../H-x86_64-mingw32/nios2-elf/lib/mno-hw-mul\libc.a(lib_a-fflush.o)
 .debug_ranges  0x0000000000002038      0x148 c:/intelfpga_lite/20.1/nios2eds/bin/gnu/h-x86_64-mingw32/bin/../lib/gcc/nios2-elf/10.1.1/../../../../../H-x86_64-mingw32/nios2-elf/lib/mno-hw-mul\libc.a(lib_a-findfp.o)
 .debug_ranges  0x0000000000002180       0x18 c:/intelfpga_lite/20.1/nios2eds/bin/gnu/h-x86_64-mingw32/bin/../lib/gcc/nios2-elf/10.1.1/../../../../../H-x86_64-mingw32/nios2-elf/lib/mno-hw-mul\libc.a(lib_a-freer.o)
 .debug_ranges  0x0000000000002198       0x18 c:/intelfpga_lite/20.1/nios2eds/bin/gnu/h-x86_64-mingw32/bin/../lib/gcc/nios2-elf/10.1.1/../../../../../H-x86_64-mingw32/nios2-elf/lib/mno-hw-mul\libc.a(lib_a-fwalk.o)
 .debug_ranges  0x00000000000021b0       0xc0 c:/intelfpga_lite/20.1/nios2eds/bin/gnu/h-x86_64-mingw32/bin/../lib/gcc/nios2-elf/10.1.1/../../../../../H-x86_64-mingw32/nios2-elf/lib/mno-hw-mul\libc.a(lib_a-makebuf.o)
 .debug_ranges  0x0000000000002270       0x60 c:/intelfpga_lite/20.1/nios2eds/bin/gnu/h-x86_64-mingw32/bin/../lib/gcc/nios2-elf/10.1.1/../../../../../H-x86_64-mingw32/nios2-elf/lib/mno-hw-mul\libc.a(lib_a-mallocr.o)
 .debug_ranges  0x00000000000022d0       0x10 c:/intelfpga_lite/20.1/nios2eds/bin/gnu/h-x86_64-mingw32/bin/../lib/gcc/nios2-elf/10.1.1/../../../../../H-x86_64-mingw32/nios2-elf/lib/mno-hw-mul\libc.a(lib_a-memset.o)
 .debug_ranges  0x00000000000022e0       0x10 c:/intelfpga_lite/20.1/nios2eds/bin/gnu/h-x86_64-mingw32/bin/../lib/gcc/nios2-elf/10.1.1/../../../../../H-x86_64-mingw32/nios2-elf/lib/mno-hw-mul\libc.a(lib_a-sbrkr.o)
 .debug_ranges  0x00000000000022f0       0x30 c:/intelfpga_lite/20.1/nios2eds/bin/gnu/h-x86_64-mingw32/bin/../lib/gcc/nios2-elf/10.1.1/../../../../../H-x86_64-mingw32/nios2-elf/lib/mno-hw-mul\libc.a(lib_a-stdio.o)
 .debug_ranges  0x0000000000002320       0x10 c:/intelfpga_lite/20.1/nios2eds/bin/gnu/h-x86_64-mingw32/bin/../lib/gcc/nios2-elf/10.1.1/../../../../../H-x86_64-mingw32/nios2-elf/lib/mno-hw-mul\libc.a(lib_a-writer.o)
 .debug_ranges  0x0000000000002330       0x10 c:/intelfpga_lite/20.1/nios2eds/bin/gnu/h-x86_64-mingw32/bin/../lib/gcc/nios2-elf/10.1.1/../../../../../H-x86_64-mingw32/nios2-elf/lib/mno-hw-mul\libc.a(closer.o)
 .debug_ranges  0x0000000000002340       0x90 c:/intelfpga_lite/20.1/nios2eds/bin/gnu/h-x86_64-mingw32/bin/../lib/gcc/nios2-elf/10.1.1/../../../../../H-x86_64-mingw32/nios2-elf/lib/mno-hw-mul\libc.a(lib_a-fclose.o)
 .debug_ranges  0x00000000000023d0       0x10 c:/intelfpga_lite/20.1/nios2eds/bin/gnu/h-x86_64-mingw32/bin/../lib/gcc/nios2-elf/10.1.1/../../../../../H-x86_64-mingw32/nios2-elf/lib/mno-hw-mul\libc.a(lib_a-fstatr.o)
 .debug_ranges  0x00000000000023e0       0x10 c:/intelfpga_lite/20.1/nios2eds/bin/gnu/h-x86_64-mingw32/bin/../lib/gcc/nios2-elf/10.1.1/../../../../../H-x86_64-mingw32/nios2-elf/lib/mno-hw-mul\libc.a(lib_a-isattyr.o)
 .debug_ranges  0x00000000000023f0       0x10 c:/intelfpga_lite/20.1/nios2eds/bin/gnu/h-x86_64-mingw32/bin/../lib/gcc/nios2-elf/10.1.1/../../../../../H-x86_64-mingw32/nios2-elf/lib/mno-hw-mul\libc.a(lib_a-lseekr.o)
 .debug_ranges  0x0000000000002400       0x10 c:/intelfpga_lite/20.1/nios2eds/bin/gnu/h-x86_64-mingw32/bin/../lib/gcc/nios2-elf/10.1.1/../../../../../H-x86_64-mingw32/nios2-elf/lib/mno-hw-mul\libc.a(lib_a-readr.o)
