
bringup_test.elf:     file format elf32-littlenios2
bringup_test.elf
architecture: nios2:r1, flags 0x00000112:
EXEC_P, HAS_SYMS, D_PAGED
start address 0x00000000

Program Header:
    LOAD off    0x00001000 vaddr 0x00000000 paddr 0x00000000 align 2**12
         filesz 0x00009370 memsz 0x00009370 flags r-x
    LOAD off    0x0000a370 vaddr 0x00009370 paddr 0x0000b478 align 2**12
         filesz 0x00002108 memsz 0x00002108 flags rw-
    LOAD off    0x0000c580 vaddr 0x0000d580 paddr 0x0000d580 align 2**12
         filesz 0x00000000 memsz 0x0000000c flags rw-
    LOAD off    0x0000d000 vaddr 0x02002000 paddr 0x02002000 align 2**12
         filesz 0x00000020 memsz 0x00000020 flags r-x

Sections:
Idx Name          Size      VMA       LMA       File off  Algn
  0 .entry        00000020  02002000  02002000  0000d000  2**5
                  CONTENTS, ALLOC, LOAD, READONLY, CODE
  1 .exceptions   00000000  02002020  02002020  0000d020  2**0
                  CONTENTS
  2 .text         000091c8  00000000  00000000  00001000  2**2
                  CONTENTS, ALLOC, LOAD, READONLY, CODE
  3 .rodata       000001a8  000091c8  000091c8  0000a1c8  2**2
                  CONTENTS, ALLOC, LOAD, READONLY, DATA
  4 .rwdata       00002108  00009370  0000b478  0000a370  2**2
                  CONTENTS, ALLOC, LOAD, DATA, SMALL_DATA
  5 .bss          0000000c  0000d580  0000d580  0000c580  2**2
                  ALLOC, SMALL_DATA
  6 .sdram        00000000  0000d58c  0000d58c  0000d020  2**0
                  CONTENTS
  7 .onchip_ram   00000000  02002020  02002020  0000d020  2**0
                  CONTENTS
  8 .comment      00000023  00000000  00000000  0000d020  2**0
                  CONTENTS, READONLY
  9 .debug_aranges 00000678  00000000  00000000  0000d048  2**3
                  CONTENTS, READONLY, DEBUGGING
 10 .debug_info   00009b56  00000000  00000000  0000d6c0  2**0
                  CONTENTS, READONLY, DEBUGGING
 11 .debug_abbrev 00003636  00000000  00000000  00017216  2**0
                  CONTENTS, READONLY, DEBUGGING
 12 .debug_line   00004438  00000000  00000000  0001a84c  2**0
                  CONTENTS, READONLY, DEBUGGING
 13 .debug_frame  00001020  00000000  00000000  0001ec84  2**2
                  CONTENTS, READONLY, DEBUGGING
 14 .debug_str    00001fb1  00000000  00000000  0001fca4  2**0
                  CONTENTS, READONLY, DEBUGGING
 15 .debug_loc    0000fe1a  00000000  00000000  00021c55  2**0
                  CONTENTS, READONLY, DEBUGGING
 16 .debug_alt_sim_info 00000010  00000000  00000000  00031a70  2**2
                  CONTENTS, READONLY, DEBUGGING
 17 .debug_ranges 00001638  00000000  00000000  00031a80  2**3
                  CONTENTS, READONLY, DEBUGGING
 18 .thread_model 00000003  00000000  00000000  00034c0e  2**0
                  CONTENTS, READONLY
 19 .cpu          00000006  00000000  00000000  00034c11  2**0
                  CONTENTS, READONLY
 20 .qsys         00000001  00000000  00000000  00034c17  2**0
                  CONTENTS, READONLY
 21 .simulation_enabled 00000001  00000000  00000000  00034c18  2**0
                  CONTENTS, READONLY
 22 .stderr_dev   00000009  00000000  00000000  00034c19  2**0
                  CONTENTS, READONLY
 23 .stdin_dev    00000009  00000000  00000000  00034c22  2**0
                  CONTENTS, READONLY
 24 .stdout_dev   00000009  00000000  00000000  00034c2b  2**0
                  CONTENTS, READONLY
 25 .sopc_system_name 0000000a  00000000  00000000  00034c34  2**0
                  CONTENTS, READONLY
 26 .quartus_project_dir 0000006f  00000000  00000000  00034c3e  2**0
                  CONTENTS, READONLY
 27 .jdi          00004b97  00000000  00000000  00034cad  2**0
                  CONTENTS, READONLY
 28 .sopcinfo     000394a7  00000000  00000000  00039844  2**0
                  CONTENTS, READONLY
SYMBOL TABLE:
02002000 l    d  .entry	00000000 .entry
02002020 l    d  .exceptions	00000000 .exceptions
00000000 l    d  .text	00000000 .text
000091c8 l    d  .rodata	00000000 .rodata
00009370 l    d  .rwdata	00000000 .rwdata
0000d580 l    d  .bss	00000000 .bss
0000d58c l    d  .sdram	00000000 .sdram
02002020 l    d  .onchip_ram	00000000 .onchip_ram
00000000 l    d  .comment	00000000 .comment
00000000 l    d  .debug_aranges	00000000 .debug_aranges
00000000 l    d  .debug_info	00000000 .debug_info
00000000 l    d  .debug_abbrev	00000000 .debug_abbrev
00000000 l    d  .debug_line	00000000 .debug_line
00000000 l    d  .debug_frame	00000000 .debug_frame
00000000 l    d  .debug_str	00000000 .debug_str
00000000 l    d  .debug_loc	00000000 .debug_loc
00000000 l    d  .debug_alt_sim_info	00000000 .debug_alt_sim_info
00000000 l    d  .debug_ranges	00000000 .debug_ranges
00000000 l    df *ABS*	00000000 ../bringup_test_bsp//obj/HAL/src/crt0.o
00000038 l       .text	00000000 alt_after_alt_main
00000000 l    df *ABS*	00000000 bringup_test.c
00000000 l    df *ABS*	00000000 printf.c
00001908 l     F .text	00000010 _out_buffer
00001918 l     F .text	00000004 _out_null
0000191c l     F .text	00000114 _out_rev
00001a30 l     F .text	0000019c _ntoa_format
00001bcc l     F .text	00000174 _ntoa_long
00001d40 l     F .text	000001a0 _ntoa_long_long
00001ee0 l     F .text	00000018 _out_char
00001ef8 l     F .text	00000020 _out_fct
00001f18 l     F .text	00000534 _ftoa
0000244c l     F .text	00000608 _etoa
00009210 l     O .rodata	00000050 pow10.1806
00002a54 l     F .text	000008fc _vsnprintf
00000000 l    df *ABS*	00000000 wf_exp.c
00000000 l    df *ABS*	00000000 wf_log.c
00000000 l    df *ABS*	00000000 ef_exp.c
0000b458 l     O .rwdata	00000008 ln2HI
0000b450 l     O .rwdata	00000008 ln2LO
0000b460 l     O .rwdata	00000008 halF
00000000 l    df *ABS*	00000000 ef_log.c
00000000 l    df *ABS*	00000000 s_lib_ver.c
00000000 l    df *ABS*	00000000 s_matherr.c
00000000 l    df *ABS*	00000000 s_nan.c
00000000 l    df *ABS*	00000000 sf_finite.c
00000000 l    df *ABS*	00000000 sf_fpclassify.c
00000000 l    df *ABS*	00000000 libgcc2.c
00000000 l    df *ABS*	00000000 libgcc2.c
00000000 l    df *ABS*	00000000 libgcc2.c
00000000 l    df *ABS*	00000000 lib2-divmod.c
00000000 l    df *ABS*	00000000 lib2-mul.c
00000000 l    df *ABS*	00000000 addsf3.c
00000000 l    df *ABS*	00000000 divsf3.c
00000000 l    df *ABS*	00000000 eqsf2.c
00000000 l    df *ABS*	00000000 gesf2.c
00000000 l    df *ABS*	00000000 lesf2.c
00000000 l    df *ABS*	00000000 mulsf3.c
00000000 l    df *ABS*	00000000 subsf3.c
00000000 l    df *ABS*	00000000 fixsfsi.c
00000000 l    df *ABS*	00000000 floatsisf.c
00000000 l    df *ABS*	00000000 floatunsisf.c
00000000 l    df *ABS*	00000000 adddf3.c
00000000 l    df *ABS*	00000000 divdf3.c
00000000 l    df *ABS*	00000000 eqdf2.c
00000000 l    df *ABS*	00000000 gedf2.c
00000000 l    df *ABS*	00000000 ledf2.c
00000000 l    df *ABS*	00000000 muldf3.c
00000000 l    df *ABS*	00000000 subdf3.c
00000000 l    df *ABS*	00000000 fixdfsi.c
00000000 l    df *ABS*	00000000 floatsidf.c
00000000 l    df *ABS*	00000000 floatunsidf.c
00000000 l    df *ABS*	00000000 extendsfdf2.c
00000000 l    df *ABS*	00000000 truncdfsf2.c
00000000 l    df *ABS*	00000000 libgcc2.c
00000000 l    df *ABS*	00000000 libgcc2.c
00000000 l    df *ABS*	00000000 errno.c
00000000 l    df *ABS*	00000000 impure.c
0000b370 l     O .rwdata	000000e0 impure_data
00000000 l    df *ABS*	00000000 memset.c
00000000 l    df *ABS*	00000000 alt_load.c
00000000 l    df *ABS*	00000000 alt_main.c
00000000 l    df *ABS*	00000000 alt_putchar.c
00000000 l    df *ABS*	00000000 alt_sys_init.c
00000000 l    df *ABS*	00000000 altera_avalon_jtag_uart_write.c
00000000 l    df *ABS*	00000000 alt_dcache_flush_all.c
00000000 l    df *ABS*	00000000 alt_icache_flush_all.c
00000000 l    df *ABS*	00000000 altera_nios2_gen2_irq.c
000090ec g     F .text	0000002c alt_main
00000054 g     F .text	00000008 f2bf
0000003c g     F .text	00000010 _putchar
0000b478 g       *ABS*	00000000 __flash_rwdata_start
000076fc g     F .text	00000088 .hidden __eqdf2
0000124c g     F .text	00000428 grey_to_text
000052ac g     F .text	00000440 .hidden __divsf3
000000b8 g     F .text	00000040 bf_gt
00003404 g     F .text	00000030 vprintf_
000001dc g     F .text	0000009c show_featuremap
000061fc g     F .text	00000070 .hidden __fixsfsi
00007784 g     F .text	000000dc .hidden __gtdf2
0000b474 g     O .rwdata	00000004 jtag_uart
000091c0 g     F .text	00000008 altera_nios2_gen2_irq_init
00008fdc g     F .text	00000010 __errno
02002000 g     F .entry	0000000c __reset
00000684 g     F .text	00000184 maxpool
00000c80 g     F .text	00000090 grey_to_feature
00003610 g     F .text	00000178 logf
00000000 g       *ABS*	00000000 __flash_exceptions_start
0000d584 g     O .bss	00000004 alt_argv
00013450 g       *ABS*	00000000 _gp
00005d18 g     F .text	000004e4 .hidden __subsf3
00008b3c g     F .text	000000dc .hidden __floatsidf
00007860 g     F .text	000000f4 .hidden __ltdf2
00000808 g     F .text	00000090 global_average_pooling
00003ab8 g     F .text	00000498 __ieee754_logf
00004d00 g     F .text	00000064 .hidden __udivsi3
00003390 g     F .text	0000003c sprintf_
00005820 g     F .text	000000c8 .hidden __lesf2
00003fd4 g     F .text	00000074 .hidden __fixunsdfsi
00003f7c g     F .text	00000058 __fpclassifyf
00003f64 g     F .text	00000018 finitef
00000df8 g     F .text	00000454 rgb565_to_text
00008cc0 g     F .text	00000110 .hidden __extendsfdf2
00006480 g     F .text	000008ac .hidden __adddf3
000056ec g     F .text	00000078 .hidden __nesf2
00004644 g     F .text	000005c4 .hidden __umoddi3
0000b468 g     O .rwdata	00000004 __fdlib_version
0000b46c g     O .rwdata	00000004 _global_impure_ptr
0000d58c g       *ABS*	00000000 __bss_end
00009370 g     O .rwdata	00002000 image64by64
00004048 g     F .text	000005fc .hidden __udivdi3
00008c18 g     F .text	000000a8 .hidden __floatunsidf
00003434 g     F .text	00000030 vsnprintf_
00003788 g     F .text	00000330 __ieee754_expf
000091b8 g     F .text	00000004 alt_dcache_flush_all
00008abc g     F .text	00000080 .hidden __fixdfsi
0000b478 g       *ABS*	00000000 __ram_rwdata_end
00003464 g     F .text	00000040 fctprintf
00005764 g     F .text	000000bc .hidden __gtsf2
000000ac g     F .text	0000000c bf_neg
00009370 g       *ABS*	00000000 __ram_rodata_end
00007860 g     F .text	000000f4 .hidden __ledf2
00004d64 g     F .text	00000058 .hidden __umodsi3
0000d58c g       *ABS*	00000000 end
000002cc g     F .text	000001a4 padding
02000000 g       *ABS*	00000000 __alt_stack_pointer
00008f78 g     F .text	00000064 .hidden __clzsi2
00009184 g     F .text	00000034 altera_avalon_jtag_uart_write
00000084 g     F .text	00000028 bf_add
00000000 g     F .text	0000003c _start
00009180 g     F .text	00000004 alt_sys_init
0000626c g     F .text	00000124 .hidden __floatsisf
00004dbc g     F .text	00000028 .hidden __mulsi3
00009370 g       *ABS*	00000000 __ram_rwdata_start
000091c8 g       *ABS*	00000000 __ram_rodata_start
0000005c g     F .text	00000028 bf_mult
000056ec g     F .text	00000078 .hidden __eqsf2
00000138 g     F .text	00000058 put_pixel
0000d58c g       *ABS*	00000000 __alt_stack_base
00006d2c g     F .text	000009d0 .hidden __divdf3
00007954 g     F .text	0000086c .hidden __muldf3
00000470 g     F .text	00000214 convolution
0000d580 g       *ABS*	00000000 __bss_start
00008fec g     F .text	00000020 memset
00001674 g     F .text	00000294 main
0000d580 g     O .bss	00000004 alt_envp
00000b60 g     F .text	00000120 rgb565_to_feature
00005820 g     F .text	000000c8 .hidden __ltsf2
00003f50 g     F .text	00000008 matherr
00008dd0 g     F .text	000001a8 .hidden __truncdfsf2
00000278 g     F .text	00000054 relu
00000d10 g     F .text	000000e8 rgb_to_grey
00004c08 g     F .text	00000084 .hidden __divsi3
000058e8 g     F .text	00000430 .hidden __mulsf3
000091c8 g       *ABS*	00000000 __flash_rodata_start
000076fc g     F .text	00000088 .hidden __nedf2
00009160 g     F .text	00000020 alt_irq_init
00009270 g     O .rodata	00000100 .hidden __clz_tab
00005764 g     F .text	000000bc .hidden __gesf2
000033cc g     F .text	00000038 snprintf_
0000b470 g     O .rwdata	00000004 _impure_ptr
0000d588 g     O .bss	00000004 alt_argc
00000190 g     F .text	0000004c get_pixel
00003f58 g     F .text	0000000c nan
02002020 g       *ABS*	00000000 __ram_exceptions_start
00003350 g     F .text	00000040 printf_
00000898 g     F .text	0000012c softmax
0000b478 g       *ABS*	00000000 _edata
0000d58c g       *ABS*	00000000 _end
02002020 g       *ABS*	00000000 __ram_exceptions_end
0000004c g     F .text	00000008 bf2f
00006390 g     F .text	000000f0 .hidden __floatunsisf
000000f8 g     F .text	00000040 bf_lt
00004c8c g     F .text	00000074 .hidden __modsi3
02000000 g       *ABS*	00000000 __alt_data_end
00000000 g       *ABS*	00000000 __alt_mem_sdram
02002000 g       *ABS*	00000000 __alt_mem_onchip_ram
0200200c g       .entry	00000000 _exit
000034a4 g     F .text	0000016c expf
000009c4 g     F .text	0000019c scale
00007784 g     F .text	000000dc .hidden __gedf2
00009118 g     F .text	00000048 alt_putchar
000091bc g     F .text	00000004 alt_icache_flush_all
000081c0 g     F .text	000008fc .hidden __subdf3
00004de4 g     F .text	000004c8 .hidden __addsf3
0000900c g     F .text	000000e0 alt_load



Disassembly of section .entry:

02002000 <__reset>:
 * Jump to the _start entry point in the .text section if reset code
 * is allowed or if optimizing for RTL simulation.
 */
#if defined(ALT_ALLOW_CODE_AT_RESET) || defined(ALT_SIM_OPTIMIZE)
    /* Jump to the _start entry point in the .text section. */
    movhi r1, %hi(_start)
 2002000:	00400034 	movhi	at,0
    ori r1, r1, %lo(_start)
 2002004:	08400014 	ori	at,at,0
    jmp r1
 2002008:	0800683a 	jmp	at

0200200c <_exit>:
	...

Disassembly of section .text:

00000000 <_start>:

    /*
     * Now that the caches are initialized, set up the stack pointer and global pointer.
     * The values provided by the linker are assumed to be correctly aligned.
     */
    movhi sp, %hi(__alt_stack_pointer)
       0:	06c08034 	movhi	sp,512
    ori sp, sp, %lo(__alt_stack_pointer)
       4:	dec00014 	ori	sp,sp,0
    movhi gp, %hi(_gp)
       8:	06800074 	movhi	gp,1
    ori gp, gp, %lo(_gp)
       c:	d68d1414 	ori	gp,gp,13392
 */
#ifndef ALT_SIM_OPTIMIZE
    /* Log that the BSS is about to be cleared. */
    ALT_LOG_PUTS(alt_log_msg_bss)

    movhi r2, %hi(__bss_start)
      10:	00800034 	movhi	r2,0
    ori r2, r2, %lo(__bss_start)
      14:	10b56014 	ori	r2,r2,54656

    movhi r3, %hi(__bss_end)
      18:	00c00034 	movhi	r3,0
    ori r3, r3, %lo(__bss_end)
      1c:	18f56314 	ori	r3,r3,54668

    beq r2, r3, 1f
      20:	10c00326 	beq	r2,r3,30 <_start+0x30>

0:
    stw zero, (r2)
      24:	10000015 	stw	zero,0(r2)
    addi r2, r2, 4
      28:	10800104 	addi	r2,r2,4
    bltu r2, r3, 0b
      2c:	10fffd36 	bltu	r2,r3,24 <__ram_exceptions_end+0xfdffe004>
     * section aren't defined until alt_load() has been called).
     */
    mov   et, zero
#endif

    call alt_load
      30:	000900c0 	call	900c <alt_load>

    /* Log that alt_main is about to be called. */
    ALT_LOG_PUTS(alt_log_msg_alt_main)

    /* Call the C entry point. It should never return. */
    call alt_main
      34:	00090ec0 	call	90ec <alt_main>

00000038 <alt_after_alt_main>:

    /* Wait in infinite loop in case alt_main does return. */
alt_after_alt_main:
    br alt_after_alt_main
      38:	003fff06 	br	38 <__ram_exceptions_end+0xfdffe018>

0000003c <_putchar>:
typedef alt_u16 bfloat16;

//////////////////////////////////////////////////////////////////////////////
void _putchar(char character)
{
	alt_putchar((int)character);	// printf_ character output
      3c:	21003fcc 	andi	r4,r4,255
      40:	2100201c 	xori	r4,r4,128
      44:	213fe004 	addi	r4,r4,-128
      48:	00091181 	jmpi	9118 <alt_putchar>

0000004c <bf2f>:
//////////////////////////////////////////////////////////////////////////////
float bf2f(bfloat16 x) { // bfloat to float
     union IntFloat f;
     f.i = ((alt_u32)x << 16);
     return f.f;
}
      4c:	2004943a 	slli	r2,r4,16
      50:	f800283a 	ret

00000054 <f2bf>:
//////////////////////////////////////////////////////////////////////////////
bfloat16 f2bf(float x) { // float to bfloat
     union IntFloat f;
     f.f = x;
     return (bfloat16)(f.i >> 16);
}
      54:	2004d43a 	srli	r2,r4,16
      58:	f800283a 	ret

0000005c <bf_mult>:
}

//////////////////////////////////////////////////////////////////////////////
float bf2f(bfloat16 x) { // bfloat to float
     union IntFloat f;
     f.i = ((alt_u32)x << 16);
      5c:	2804943a 	slli	r2,r5,16

//////////////////////////////////////////////////////////////////////////////
bfloat16 f2bf(float x) { // float to bfloat
     union IntFloat f;
     f.f = x;
     return (bfloat16)(f.i >> 16);
      60:	200a943a 	slli	r5,r4,16
}

//////////////////////////////////////////////////////////////////////////////
bfloat16 bf_mult(bfloat16 a, bfloat16 b) {
      64:	deffff04 	addi	sp,sp,-4

//////////////////////////////////////////////////////////////////////////////
bfloat16 f2bf(float x) { // float to bfloat
     union IntFloat f;
     f.f = x;
     return (bfloat16)(f.i >> 16);
      68:	1009883a 	mov	r4,r2
}

//////////////////////////////////////////////////////////////////////////////
bfloat16 bf_mult(bfloat16 a, bfloat16 b) {
      6c:	dfc00015 	stw	ra,0(sp)

//////////////////////////////////////////////////////////////////////////////
bfloat16 f2bf(float x) { // float to bfloat
     union IntFloat f;
     f.f = x;
     return (bfloat16)(f.i >> 16);
      70:	00058e80 	call	58e8 <__mulsf3>
}

//////////////////////////////////////////////////////////////////////////////
bfloat16 bf_mult(bfloat16 a, bfloat16 b) {
     return f2bf(bf2f(a) * bf2f(b));
}
      74:	1004d43a 	srli	r2,r2,16
      78:	dfc00017 	ldw	ra,0(sp)
      7c:	dec00104 	addi	sp,sp,4
      80:	f800283a 	ret

00000084 <bf_add>:
}

//////////////////////////////////////////////////////////////////////////////
float bf2f(bfloat16 x) { // bfloat to float
     union IntFloat f;
     f.i = ((alt_u32)x << 16);
      84:	2804943a 	slli	r2,r5,16

//////////////////////////////////////////////////////////////////////////////
bfloat16 f2bf(float x) { // float to bfloat
     union IntFloat f;
     f.f = x;
     return (bfloat16)(f.i >> 16);
      88:	200a943a 	slli	r5,r4,16
bfloat16 bf_mult(bfloat16 a, bfloat16 b) {
     return f2bf(bf2f(a) * bf2f(b));
}

//////////////////////////////////////////////////////////////////////////////
bfloat16 bf_add(bfloat16 a, bfloat16 b) {
      8c:	deffff04 	addi	sp,sp,-4

//////////////////////////////////////////////////////////////////////////////
bfloat16 f2bf(float x) { // float to bfloat
     union IntFloat f;
     f.f = x;
     return (bfloat16)(f.i >> 16);
      90:	1009883a 	mov	r4,r2
bfloat16 bf_mult(bfloat16 a, bfloat16 b) {
     return f2bf(bf2f(a) * bf2f(b));
}

//////////////////////////////////////////////////////////////////////////////
bfloat16 bf_add(bfloat16 a, bfloat16 b) {
      94:	dfc00015 	stw	ra,0(sp)

//////////////////////////////////////////////////////////////////////////////
bfloat16 f2bf(float x) { // float to bfloat
     union IntFloat f;
     f.f = x;
     return (bfloat16)(f.i >> 16);
      98:	0004de40 	call	4de4 <__addsf3>
}

//////////////////////////////////////////////////////////////////////////////
bfloat16 bf_add(bfloat16 a, bfloat16 b) {
     return f2bf(bf2f(a) + bf2f(b));
}
      9c:	1004d43a 	srli	r2,r2,16
      a0:	dfc00017 	ldw	ra,0(sp)
      a4:	dec00104 	addi	sp,sp,4
      a8:	f800283a 	ret

000000ac <bf_neg>:

//////////////////////////////////////////////////////////////////////////////
bfloat16 f2bf(float x) { // float to bfloat
     union IntFloat f;
     f.f = x;
     return (bfloat16)(f.i >> 16);
      ac:	213fffcc 	andi	r4,r4,65535
     return f2bf(bf2f(a) + bf2f(b));
}

//////////////////////////////////////////////////////////////////////////////
bfloat16 bf_neg(bfloat16 a) {
     return f2bf(-bf2f(a));
      b0:	20a0001c 	xori	r2,r4,32768
}
      b4:	f800283a 	ret

000000b8 <bf_gt>:
}

//////////////////////////////////////////////////////////////////////////////
float bf2f(bfloat16 x) { // bfloat to float
     union IntFloat f;
     f.i = ((alt_u32)x << 16);
      b8:	2804943a 	slli	r2,r5,16
     return f2bf(-bf2f(a));
}

//////////////////////////////////////////////////////////////////////////////
bfloat16 bf_gt(bfloat16 a, bfloat16 b) {
     return bf2f(a) > bf2f(b);
      bc:	200a943a 	slli	r5,r4,16
bfloat16 bf_neg(bfloat16 a) {
     return f2bf(-bf2f(a));
}

//////////////////////////////////////////////////////////////////////////////
bfloat16 bf_gt(bfloat16 a, bfloat16 b) {
      c0:	defffe04 	addi	sp,sp,-8
     return bf2f(a) > bf2f(b);
      c4:	1009883a 	mov	r4,r2
bfloat16 bf_neg(bfloat16 a) {
     return f2bf(-bf2f(a));
}

//////////////////////////////////////////////////////////////////////////////
bfloat16 bf_gt(bfloat16 a, bfloat16 b) {
      c8:	dfc00115 	stw	ra,4(sp)
      cc:	dc000015 	stw	r16,0(sp)
     return bf2f(a) > bf2f(b);
      d0:	00058200 	call	5820 <__lesf2>
      d4:	10000216 	blt	r2,zero,e0 <bf_gt+0x28>
      d8:	0021883a 	mov	r16,zero
      dc:	00000106 	br	e4 <bf_gt+0x2c>
      e0:	04000044 	movi	r16,1
}
      e4:	8005883a 	mov	r2,r16
      e8:	dfc00117 	ldw	ra,4(sp)
      ec:	dc000017 	ldw	r16,0(sp)
      f0:	dec00204 	addi	sp,sp,8
      f4:	f800283a 	ret

000000f8 <bf_lt>:
}

//////////////////////////////////////////////////////////////////////////////
float bf2f(bfloat16 x) { // bfloat to float
     union IntFloat f;
     f.i = ((alt_u32)x << 16);
      f8:	2804943a 	slli	r2,r5,16
     return bf2f(a) > bf2f(b);
}

//////////////////////////////////////////////////////////////////////////////
bfloat16 bf_lt(bfloat16 a, bfloat16 b) {
     return bf2f(a) < bf2f(b);
      fc:	200a943a 	slli	r5,r4,16
bfloat16 bf_gt(bfloat16 a, bfloat16 b) {
     return bf2f(a) > bf2f(b);
}

//////////////////////////////////////////////////////////////////////////////
bfloat16 bf_lt(bfloat16 a, bfloat16 b) {
     100:	defffe04 	addi	sp,sp,-8
     return bf2f(a) < bf2f(b);
     104:	1009883a 	mov	r4,r2
bfloat16 bf_gt(bfloat16 a, bfloat16 b) {
     return bf2f(a) > bf2f(b);
}

//////////////////////////////////////////////////////////////////////////////
bfloat16 bf_lt(bfloat16 a, bfloat16 b) {
     108:	dfc00115 	stw	ra,4(sp)
     10c:	dc000015 	stw	r16,0(sp)
     return bf2f(a) < bf2f(b);
     110:	00057640 	call	5764 <__gesf2>
     114:	00800216 	blt	zero,r2,120 <bf_lt+0x28>
     118:	0021883a 	mov	r16,zero
     11c:	00000106 	br	124 <bf_lt+0x2c>
     120:	04000044 	movi	r16,1
}
     124:	8005883a 	mov	r2,r16
     128:	dfc00117 	ldw	ra,4(sp)
     12c:	dc000017 	ldw	r16,0(sp)
     130:	dec00204 	addi	sp,sp,8
     134:	f800283a 	ret

00000138 <put_pixel>:

//////////////////////////////////////////////////////////////////////////////
void put_pixel(alt_u16* base, alt_u16 res, alt_u16 x, alt_u16 y, alt_u16 data) {
     138:	defffc04 	addi	sp,sp,-16
     13c:	dc800215 	stw	r18,8(sp)
     140:	dc000015 	stw	r16,0(sp)
     144:	2025883a 	mov	r18,r4
     148:	3021883a 	mov	r16,r6
	IOWR_16DIRECT(base, (x + (y * res)) << 1, data);
     14c:	297fffcc 	andi	r5,r5,65535
     150:	393fffcc 	andi	r4,r7,65535
bfloat16 bf_lt(bfloat16 a, bfloat16 b) {
     return bf2f(a) < bf2f(b);
}

//////////////////////////////////////////////////////////////////////////////
void put_pixel(alt_u16* base, alt_u16 res, alt_u16 x, alt_u16 y, alt_u16 data) {
     154:	dc400115 	stw	r17,4(sp)
     158:	dfc00315 	stw	ra,12(sp)
	IOWR_16DIRECT(base, (x + (y * res)) << 1, data);
     15c:	843fffcc 	andi	r16,r16,65535
     160:	0004dbc0 	call	4dbc <__mulsi3>
     164:	1405883a 	add	r2,r2,r16
bfloat16 bf_lt(bfloat16 a, bfloat16 b) {
     return bf2f(a) < bf2f(b);
}

//////////////////////////////////////////////////////////////////////////////
void put_pixel(alt_u16* base, alt_u16 res, alt_u16 x, alt_u16 y, alt_u16 data) {
     168:	dc400417 	ldw	r17,16(sp)
	IOWR_16DIRECT(base, (x + (y * res)) << 1, data);
     16c:	1085883a 	add	r2,r2,r2
     170:	9085883a 	add	r2,r18,r2
     174:	1440002d 	sthio	r17,0(r2)
}
     178:	dfc00317 	ldw	ra,12(sp)
     17c:	dc800217 	ldw	r18,8(sp)
     180:	dc400117 	ldw	r17,4(sp)
     184:	dc000017 	ldw	r16,0(sp)
     188:	dec00404 	addi	sp,sp,16
     18c:	f800283a 	ret

00000190 <get_pixel>:

//////////////////////////////////////////////////////////////////////////////
alt_u16 get_pixel(alt_u16* base, alt_u16 res, alt_u16 x, alt_u16 y) {
     190:	defffd04 	addi	sp,sp,-12
     194:	dc400115 	stw	r17,4(sp)
     198:	dc000015 	stw	r16,0(sp)
     19c:	2023883a 	mov	r17,r4
     1a0:	3021883a 	mov	r16,r6
	return IORD_16DIRECT(base, (x + (y * res)) << 1);
     1a4:	297fffcc 	andi	r5,r5,65535
     1a8:	393fffcc 	andi	r4,r7,65535
void put_pixel(alt_u16* base, alt_u16 res, alt_u16 x, alt_u16 y, alt_u16 data) {
	IOWR_16DIRECT(base, (x + (y * res)) << 1, data);
}

//////////////////////////////////////////////////////////////////////////////
alt_u16 get_pixel(alt_u16* base, alt_u16 res, alt_u16 x, alt_u16 y) {
     1ac:	dfc00215 	stw	ra,8(sp)
	return IORD_16DIRECT(base, (x + (y * res)) << 1);
     1b0:	843fffcc 	andi	r16,r16,65535
     1b4:	0004dbc0 	call	4dbc <__mulsi3>
     1b8:	1405883a 	add	r2,r2,r16
     1bc:	1085883a 	add	r2,r2,r2
     1c0:	8885883a 	add	r2,r17,r2
}
     1c4:	1080002b 	ldhuio	r2,0(r2)
     1c8:	dfc00217 	ldw	ra,8(sp)
     1cc:	dc400117 	ldw	r17,4(sp)
     1d0:	dc000017 	ldw	r16,0(sp)
     1d4:	dec00304 	addi	sp,sp,12
     1d8:	f800283a 	ret

000001dc <show_featuremap>:

//////////////////////////////////////////////////////////////////////////////
void show_featuremap(alt_u16* base, alt_u16 res) {
     1dc:	defffa04 	addi	sp,sp,-24
     1e0:	dd000415 	stw	r20,16(sp)
     1e4:	dc800215 	stw	r18,8(sp)
     1e8:	dc400115 	stw	r17,4(sp)
     1ec:	dfc00515 	stw	ra,20(sp)
     1f0:	dcc00315 	stw	r19,12(sp)
     1f4:	dc000015 	stw	r16,0(sp)
     1f8:	2029883a 	mov	r20,r4
	alt_u32 x, y;
	for (y=0; y<res; y++) {
     1fc:	0023883a 	mov	r17,zero
     200:	2cbfffcc 	andi	r18,r5,65535
     204:	8c80142e 	bgeu	r17,r18,258 <show_featuremap+0x7c>
	IOWR_16DIRECT(base, (x + (y * res)) << 1, data);
}

//////////////////////////////////////////////////////////////////////////////
alt_u16 get_pixel(alt_u16* base, alt_u16 res, alt_u16 x, alt_u16 y) {
	return IORD_16DIRECT(base, (x + (y * res)) << 1);
     208:	900b883a 	mov	r5,r18
     20c:	8809883a 	mov	r4,r17
     210:	0004dbc0 	call	4dbc <__mulsi3>
     214:	1027883a 	mov	r19,r2
     218:	0021883a 	mov	r16,zero
     21c:	84c5883a 	add	r2,r16,r19
     220:	1085883a 	add	r2,r2,r2
     224:	a085883a 	add	r2,r20,r2
     228:	1140002b 	ldhuio	r5,0(r2)
//////////////////////////////////////////////////////////////////////////////
void show_featuremap(alt_u16* base, alt_u16 res) {
	alt_u32 x, y;
	for (y=0; y<res; y++) {
		for (x=0; x<res; x++) {
			printf_("%x ", get_pixel(base, res, x, y));
     22c:	01000074 	movhi	r4,1
     230:	297fffcc 	andi	r5,r5,65535
     234:	21247204 	addi	r4,r4,-28216

//////////////////////////////////////////////////////////////////////////////
void show_featuremap(alt_u16* base, alt_u16 res) {
	alt_u32 x, y;
	for (y=0; y<res; y++) {
		for (x=0; x<res; x++) {
     238:	84000044 	addi	r16,r16,1
			printf_("%x ", get_pixel(base, res, x, y));
     23c:	00033500 	call	3350 <printf_>

//////////////////////////////////////////////////////////////////////////////
void show_featuremap(alt_u16* base, alt_u16 res) {
	alt_u32 x, y;
	for (y=0; y<res; y++) {
		for (x=0; x<res; x++) {
     240:	84bff636 	bltu	r16,r18,21c <__ram_exceptions_end+0xfdffe1fc>
			printf_("%x ", get_pixel(base, res, x, y));
		}
		printf_("\n");
     244:	01000074 	movhi	r4,1
     248:	21247304 	addi	r4,r4,-28212
     24c:	00033500 	call	3350 <printf_>
}

//////////////////////////////////////////////////////////////////////////////
void show_featuremap(alt_u16* base, alt_u16 res) {
	alt_u32 x, y;
	for (y=0; y<res; y++) {
     250:	8c400044 	addi	r17,r17,1
     254:	003feb06 	br	204 <__ram_exceptions_end+0xfdffe1e4>
		for (x=0; x<res; x++) {
			printf_("%x ", get_pixel(base, res, x, y));
		}
		printf_("\n");
	}
}
     258:	dfc00517 	ldw	ra,20(sp)
     25c:	dd000417 	ldw	r20,16(sp)
     260:	dcc00317 	ldw	r19,12(sp)
     264:	dc800217 	ldw	r18,8(sp)
     268:	dc400117 	ldw	r17,4(sp)
     26c:	dc000017 	ldw	r16,0(sp)
     270:	dec00604 	addi	sp,sp,24
     274:	f800283a 	ret

00000278 <relu>:

//////////////////////////////////////////////////////////////////////////////
void relu (alt_u16* featuremap, alt_u16 res) {
     278:	defffe04 	addi	sp,sp,-8
	alt_u32 x, i;

	x = res * res;
     27c:	297fffcc 	andi	r5,r5,65535
		printf_("\n");
	}
}

//////////////////////////////////////////////////////////////////////////////
void relu (alt_u16* featuremap, alt_u16 res) {
     280:	dc000015 	stw	r16,0(sp)
     284:	2021883a 	mov	r16,r4
	alt_u32 x, i;

	x = res * res;
     288:	2809883a 	mov	r4,r5
		printf_("\n");
	}
}

//////////////////////////////////////////////////////////////////////////////
void relu (alt_u16* featuremap, alt_u16 res) {
     28c:	dfc00115 	stw	ra,4(sp)
	alt_u32 x, i;

	x = res * res;
     290:	0004dbc0 	call	4dbc <__mulsi3>
	for (i=0; i<x; i++) {
     294:	0007883a 	mov	r3,zero
     298:	18800826 	beq	r3,r2,2bc <relu+0x44>
		if (IORD_16DIRECT(featuremap, (i << 1)) & 0x8000) { // test sign bit
     29c:	18c9883a 	add	r4,r3,r3
     2a0:	8109883a 	add	r4,r16,r4
     2a4:	2140002b 	ldhuio	r5,0(r4)
     2a8:	2960000c 	andi	r5,r5,32768
     2ac:	28000126 	beq	r5,zero,2b4 <relu+0x3c>
			IOWR_16DIRECT(featuremap, (i << 1), 0x0);
     2b0:	2000002d 	sthio	zero,0(r4)
//////////////////////////////////////////////////////////////////////////////
void relu (alt_u16* featuremap, alt_u16 res) {
	alt_u32 x, i;

	x = res * res;
	for (i=0; i<x; i++) {
     2b4:	18c00044 	addi	r3,r3,1
     2b8:	003ff706 	br	298 <__ram_exceptions_end+0xfdffe278>
		if (IORD_16DIRECT(featuremap, (i << 1)) & 0x8000) { // test sign bit
			IOWR_16DIRECT(featuremap, (i << 1), 0x0);
		}
	}
}
     2bc:	dfc00117 	ldw	ra,4(sp)
     2c0:	dc000017 	ldw	r16,0(sp)
     2c4:	dec00204 	addi	sp,sp,8
     2c8:	f800283a 	ret

000002cc <padding>:

//////////////////////////////////////////////////////////////////////////////
void padding (alt_u16* src_map, alt_u16* dst_map, alt_u16 res, alt_u16 pad) {
     2cc:	defff704 	addi	sp,sp,-36
     2d0:	dc000015 	stw	r16,0(sp)
	alt_u32 src, dst;

	dst = 0;
	src = 0;
	for (j=0; j<pad; j++) {	// pad TOP pixels
		for (i=0; i<(res + (pad << 1)); i++) {
     2d4:	3c3fffcc 	andi	r16,r7,65535
		}
	}
}

//////////////////////////////////////////////////////////////////////////////
void padding (alt_u16* src_map, alt_u16* dst_map, alt_u16 res, alt_u16 pad) {
     2d8:	dc800215 	stw	r18,8(sp)
	alt_u32 src, dst;

	dst = 0;
	src = 0;
	for (j=0; j<pad; j++) {	// pad TOP pixels
		for (i=0; i<(res + (pad << 1)); i++) {
     2dc:	8421883a 	add	r16,r16,r16
     2e0:	34bfffcc 	andi	r18,r6,65535
     2e4:	84a1883a 	add	r16,r16,r18
		}
	}
}

//////////////////////////////////////////////////////////////////////////////
void padding (alt_u16* src_map, alt_u16* dst_map, alt_u16 res, alt_u16 pad) {
     2e8:	dd800615 	stw	r22,24(sp)
     2ec:	dd400515 	stw	r21,20(sp)
     2f0:	dd000415 	stw	r20,16(sp)
     2f4:	dc400115 	stw	r17,4(sp)
     2f8:	202d883a 	mov	r22,r4
     2fc:	282b883a 	mov	r21,r5
     300:	dfc00815 	stw	ra,32(sp)
     304:	ddc00715 	stw	r23,28(sp)
     308:	dcc00315 	stw	r19,12(sp)
     30c:	8429883a 	add	r20,r16,r16
	alt_u32 i, j, pixel;
	alt_u32 src, dst;

	dst = 0;
     310:	000b883a 	mov	r5,zero
	src = 0;
	for (j=0; j<pad; j++) {	// pad TOP pixels
     314:	0009883a 	mov	r4,zero
     318:	3c7fffcc 	andi	r17,r7,65535
     31c:	24400b2e 	bgeu	r4,r17,34c <padding+0x80>
     320:	0005883a 	mov	r2,zero
		for (i=0; i<(res + (pad << 1)); i++) {
     324:	14000626 	beq	r2,r16,340 <padding+0x74>
			IOWR_16DIRECT(dst_map, (dst), 0);
     328:	1087883a 	add	r3,r2,r2
     32c:	1947883a 	add	r3,r3,r5
     330:	a8c7883a 	add	r3,r21,r3
     334:	1800002d 	sthio	zero,0(r3)
	alt_u32 src, dst;

	dst = 0;
	src = 0;
	for (j=0; j<pad; j++) {	// pad TOP pixels
		for (i=0; i<(res + (pad << 1)); i++) {
     338:	10800044 	addi	r2,r2,1
     33c:	003ff906 	br	324 <__ram_exceptions_end+0xfdffe304>
     340:	2d0b883a 	add	r5,r5,r20
	alt_u32 i, j, pixel;
	alt_u32 src, dst;

	dst = 0;
	src = 0;
	for (j=0; j<pad; j++) {	// pad TOP pixels
     344:	21000044 	addi	r4,r4,1
     348:	003ff406 	br	31c <__ram_exceptions_end+0xfdffe2fc>
     34c:	8c6f883a 	add	r23,r17,r17
     350:	b80b883a 	mov	r5,r23
     354:	8009883a 	mov	r4,r16
     358:	0004dbc0 	call	4dbc <__mulsi3>
     35c:	1027883a 	mov	r19,r2
     360:	8c85883a 	add	r2,r17,r18
     364:	1085883a 	add	r2,r2,r2
     368:	95cf883a 	add	r7,r18,r23
     36c:	948b883a 	add	r5,r18,r18
     370:	39cf883a 	add	r7,r7,r7
     374:	980d883a 	mov	r6,r19
     378:	0013883a 	mov	r9,zero
     37c:	0011883a 	mov	r8,zero
     380:	113fff84 	addi	r4,r2,-2
		for (i=0; i<(res + (pad << 1)); i++) {
			IOWR_16DIRECT(dst_map, (dst), 0);
			dst += 2;
		}
	}
	for (j=0; j<res; j++) {
     384:	44801f2e 	bgeu	r8,r18,404 <padding+0x138>
     388:	0005883a 	mov	r2,zero
		for (i=0; i<pad; i++) {
     38c:	1440062e 	bgeu	r2,r17,3a8 <padding+0xdc>
			IOWR_16DIRECT(dst_map, (dst), 0); // pad LHS
     390:	1087883a 	add	r3,r2,r2
     394:	1987883a 	add	r3,r3,r6
     398:	a8c7883a 	add	r3,r21,r3
     39c:	1800002d 	sthio	zero,0(r3)
			IOWR_16DIRECT(dst_map, (dst), 0);
			dst += 2;
		}
	}
	for (j=0; j<res; j++) {
		for (i=0; i<pad; i++) {
     3a0:	10800044 	addi	r2,r2,1
     3a4:	003ff906 	br	38c <__ram_exceptions_end+0xfdffe36c>
     3a8:	35d7883a 	add	r11,r6,r23
     3ac:	0007883a 	mov	r3,zero
     3b0:	18c5883a 	add	r2,r3,r3
			IOWR_16DIRECT(dst_map, (dst), 0); // pad LHS
			dst += 2;
		}
		for (i=0; i<res; i++) {
			pixel = IORD_16DIRECT(src_map, src);
     3b4:	4895883a 	add	r10,r9,r2
     3b8:	b295883a 	add	r10,r22,r10
     3bc:	5280002b 	ldhuio	r10,0(r10)
			src += 2;
			IOWR_16DIRECT(dst_map, (dst), pixel);
     3c0:	12c5883a 	add	r2,r2,r11
     3c4:	a885883a 	add	r2,r21,r2
     3c8:	1280002d 	sthio	r10,0(r2)
	for (j=0; j<res; j++) {
		for (i=0; i<pad; i++) {
			IOWR_16DIRECT(dst_map, (dst), 0); // pad LHS
			dst += 2;
		}
		for (i=0; i<res; i++) {
     3cc:	18c00044 	addi	r3,r3,1
     3d0:	1cbff736 	bltu	r3,r18,3b0 <__ram_exceptions_end+0xfdffe390>
     3d4:	2185883a 	add	r2,r4,r6
     3d8:	4953883a 	add	r9,r9,r5
     3dc:	a885883a 	add	r2,r21,r2
     3e0:	0007883a 	mov	r3,zero
     3e4:	10800084 	addi	r2,r2,2
			pixel = IORD_16DIRECT(src_map, src);
			src += 2;
			IOWR_16DIRECT(dst_map, (dst), pixel);
			dst += 2;
		}
		for (i=0; i<pad; i++) {
     3e8:	1c40032e 	bgeu	r3,r17,3f8 <padding+0x12c>
			IOWR_16DIRECT(dst_map, (dst), 0); // pad RHS
     3ec:	1000002d 	sthio	zero,0(r2)
			pixel = IORD_16DIRECT(src_map, src);
			src += 2;
			IOWR_16DIRECT(dst_map, (dst), pixel);
			dst += 2;
		}
		for (i=0; i<pad; i++) {
     3f0:	18c00044 	addi	r3,r3,1
     3f4:	003ffb06 	br	3e4 <__ram_exceptions_end+0xfdffe3c4>
     3f8:	31cd883a 	add	r6,r6,r7
		for (i=0; i<(res + (pad << 1)); i++) {
			IOWR_16DIRECT(dst_map, (dst), 0);
			dst += 2;
		}
	}
	for (j=0; j<res; j++) {
     3fc:	42000044 	addi	r8,r8,1
     400:	003fe006 	br	384 <__ram_exceptions_end+0xfdffe364>
     404:	bc89883a 	add	r4,r23,r18
     408:	0004dbc0 	call	4dbc <__mulsi3>
     40c:	14c5883a 	add	r2,r2,r19
     410:	000b883a 	mov	r5,zero
		for (i=0; i<pad; i++) {
			IOWR_16DIRECT(dst_map, (dst), 0); // pad RHS
			dst += 2;
		}
	}
	for (j=0; j<pad; j++) {	// pad BOTTOM pixels
     414:	2c400b2e 	bgeu	r5,r17,444 <padding+0x178>
     418:	0007883a 	mov	r3,zero
		for (i=0; i<(res + (pad << 1)); i++) {
     41c:	1c000626 	beq	r3,r16,438 <padding+0x16c>
			IOWR_16DIRECT(dst_map, (dst), 0);
     420:	18c9883a 	add	r4,r3,r3
     424:	2089883a 	add	r4,r4,r2
     428:	a909883a 	add	r4,r21,r4
     42c:	2000002d 	sthio	zero,0(r4)
			IOWR_16DIRECT(dst_map, (dst), 0); // pad RHS
			dst += 2;
		}
	}
	for (j=0; j<pad; j++) {	// pad BOTTOM pixels
		for (i=0; i<(res + (pad << 1)); i++) {
     430:	18c00044 	addi	r3,r3,1
     434:	003ff906 	br	41c <__ram_exceptions_end+0xfdffe3fc>
     438:	1505883a 	add	r2,r2,r20
		for (i=0; i<pad; i++) {
			IOWR_16DIRECT(dst_map, (dst), 0); // pad RHS
			dst += 2;
		}
	}
	for (j=0; j<pad; j++) {	// pad BOTTOM pixels
     43c:	29400044 	addi	r5,r5,1
     440:	003ff406 	br	414 <__ram_exceptions_end+0xfdffe3f4>
		for (i=0; i<(res + (pad << 1)); i++) {
			IOWR_16DIRECT(dst_map, (dst), 0);
			dst += 2;
		}
	}
}
     444:	dfc00817 	ldw	ra,32(sp)
     448:	ddc00717 	ldw	r23,28(sp)
     44c:	dd800617 	ldw	r22,24(sp)
     450:	dd400517 	ldw	r21,20(sp)
     454:	dd000417 	ldw	r20,16(sp)
     458:	dcc00317 	ldw	r19,12(sp)
     45c:	dc800217 	ldw	r18,8(sp)
     460:	dc400117 	ldw	r17,4(sp)
     464:	dc000017 	ldw	r16,0(sp)
     468:	dec00904 	addi	sp,sp,36
     46c:	f800283a 	ret

00000470 <convolution>:

//////////////////////////////////////////////////////////////////////////////
void convolution(alt_u16* src, alt_u16 clr, alt_u16* dst, alt_u16* knl, alt_u16 k, alt_u16 res, alt_u16 pad, alt_u16 stride) {
     470:	deffe604 	addi	sp,sp,-104
     474:	dd001415 	stw	r20,80(sp)
	alt_16 x, y, ks;
	alt_u32 kx, ky, dst_ptr, offset_s, offset_d;
	bfloat16 sum, src_pix, k_pix;

	ks = (k >> 1); // k is odd 3,5,7 ... ks generally equal to pad
     478:	dd001a0b 	ldhu	r20,104(sp)
		}
	}
}

//////////////////////////////////////////////////////////////////////////////
void convolution(alt_u16* src, alt_u16 clr, alt_u16* dst, alt_u16* knl, alt_u16 k, alt_u16 res, alt_u16 pad, alt_u16 stride) {
     47c:	dc001015 	stw	r16,64(sp)
     480:	dcc01315 	stw	r19,76(sp)
	alt_16 x, y, ks;
	alt_u32 kx, ky, dst_ptr, offset_s, offset_d;
	bfloat16 sum, src_pix, k_pix;

	ks = (k >> 1); // k is odd 3,5,7 ... ks generally equal to pad
     484:	a020d07a 	srli	r16,r20,1
		}
	}
}

//////////////////////////////////////////////////////////////////////////////
void convolution(alt_u16* src, alt_u16 clr, alt_u16* dst, alt_u16* knl, alt_u16 k, alt_u16 res, alt_u16 pad, alt_u16 stride) {
     488:	d9000515 	stw	r4,20(sp)
     48c:	d9c00615 	stw	r7,24(sp)
     490:	843fffcc 	andi	r16,r16,65535
	ks = (k >> 1); // k is odd 3,5,7 ... ks generally equal to pad
	dst_ptr = 0;
	for (y=pad; y<(res + pad); y=y+stride) {
		for (x=pad; x<(res + pad); x=x+stride) {
			sum = f2bf(0.0); // 0x0
			for (ky=-ks; ky<ks; ky++) {
     494:	0427c83a 	sub	r19,zero,r16
		}
	}
}

//////////////////////////////////////////////////////////////////////////////
void convolution(alt_u16* src, alt_u16 clr, alt_u16* dst, alt_u16* knl, alt_u16 k, alt_u16 res, alt_u16 pad, alt_u16 stride) {
     498:	280f883a 	mov	r7,r5
     49c:	a009883a 	mov	r4,r20
     4a0:	980b883a 	mov	r5,r19
     4a4:	df001815 	stw	fp,96(sp)
     4a8:	ddc01715 	stw	r23,92(sp)
     4ac:	dd801615 	stw	r22,88(sp)
     4b0:	dd401515 	stw	r21,84(sp)
     4b4:	dc801215 	stw	r18,72(sp)
     4b8:	dc401115 	stw	r17,68(sp)
     4bc:	d9c00815 	stw	r7,32(sp)
     4c0:	dfc01915 	stw	ra,100(sp)
     4c4:	d9800115 	stw	r6,4(sp)
     4c8:	dc000015 	stw	r16,0(sp)
     4cc:	0004dbc0 	call	4dbc <__mulsi3>
     4d0:	dc401c17 	ldw	r17,112(sp)
     4d4:	df001b0b 	ldhu	fp,108(sp)
					src_pix = IORD_16DIRECT(src, (kx + offset_s) << 1);
					k_pix = IORD_16DIRECT(knl, (kx + offset_d) << 1);
					sum = bf_add(sum, bf_mult(src_pix, k_pix)); // sum of products
				}
			}
			if (clr == 0)
     4d8:	d9c00817 	ldw	r7,32(sp)
		}
	}
}

//////////////////////////////////////////////////////////////////////////////
void convolution(alt_u16* src, alt_u16 clr, alt_u16* dst, alt_u16* knl, alt_u16 k, alt_u16 res, alt_u16 pad, alt_u16 stride) {
     4dc:	dd801d0b 	ldhu	r22,116(sp)
	alt_u32 kx, ky, dst_ptr, offset_s, offset_d;
	bfloat16 sum, src_pix, k_pix;

	ks = (k >> 1); // k is odd 3,5,7 ... ks generally equal to pad
	dst_ptr = 0;
	for (y=pad; y<(res + pad); y=y+stride) {
     4e0:	882f883a 	mov	r23,r17
     4e4:	882b883a 	mov	r21,r17
     4e8:	e73fffcc 	andi	fp,fp,65535
     4ec:	8c7fffcc 	andi	r17,r17,65535
					src_pix = IORD_16DIRECT(src, (kx + offset_s) << 1);
					k_pix = IORD_16DIRECT(knl, (kx + offset_d) << 1);
					sum = bf_add(sum, bf_mult(src_pix, k_pix)); // sum of products
				}
			}
			if (clr == 0)
     4f0:	39ffffcc 	andi	r7,r7,65535
     4f4:	d8800415 	stw	r2,16(sp)
	alt_16 x, y, ks;
	alt_u32 kx, ky, dst_ptr, offset_s, offset_d;
	bfloat16 sum, src_pix, k_pix;

	ks = (k >> 1); // k is odd 3,5,7 ... ks generally equal to pad
	dst_ptr = 0;
     4f8:	000b883a 	mov	r5,zero
	for (y=pad; y<(res + pad); y=y+stride) {
     4fc:	e463883a 	add	r17,fp,r17
		for (x=pad; x<(res + pad); x=x+stride) {
			sum = f2bf(0.0); // 0x0
			for (ky=-ks; ky<ks; ky++) {
     500:	8025883a 	mov	r18,r16
					src_pix = IORD_16DIRECT(src, (kx + offset_s) << 1);
					k_pix = IORD_16DIRECT(knl, (kx + offset_d) << 1);
					sum = bf_add(sum, bf_mult(src_pix, k_pix)); // sum of products
				}
			}
			if (clr == 0)
     504:	d9c00715 	stw	r7,28(sp)
	alt_u32 kx, ky, dst_ptr, offset_s, offset_d;
	bfloat16 sum, src_pix, k_pix;

	ks = (k >> 1); // k is odd 3,5,7 ... ks generally equal to pad
	dst_ptr = 0;
	for (y=pad; y<(res + pad); y=y+stride) {
     508:	a93fffcc 	andi	r4,r21,65535
     50c:	2120001c 	xori	r4,r4,32768
     510:	21200004 	addi	r4,r4,-32768
     514:	24404f0e 	bge	r4,r17,654 <convolution+0x1e4>
     518:	d8c00117 	ldw	r3,4(sp)
     51c:	1961883a 	add	r16,r3,r5
     520:	d8c00017 	ldw	r3,0(sp)
     524:	e00b883a 	mov	r5,fp
     528:	20c9c83a 	sub	r4,r4,r3
     52c:	0004dbc0 	call	4dbc <__mulsi3>
     530:	101d883a 	mov	r14,r2
     534:	b815883a 	mov	r10,r23
     538:	d8c00117 	ldw	r3,4(sp)
		for (x=pad; x<(res + pad); x=x+stride) {
     53c:	50bfffcc 	andi	r2,r10,65535
     540:	10a0001c 	xori	r2,r2,32768
     544:	10a00004 	addi	r2,r2,-32768
     548:	80cbc83a 	sub	r5,r16,r3
     54c:	14403f0e 	bge	r2,r17,64c <convolution+0x1dc>
     550:	1385883a 	add	r2,r2,r14
     554:	d8800215 	stw	r2,8(sp)
			sum = f2bf(0.0); // 0x0
			for (ky=-ks; ky<ks; ky++) {
     558:	9817883a 	mov	r11,r19
     55c:	001b883a 	mov	r13,zero
     560:	0019883a 	mov	r12,zero

	ks = (k >> 1); // k is odd 3,5,7 ... ks generally equal to pad
	dst_ptr = 0;
	for (y=pad; y<(res + pad); y=y+stride) {
		for (x=pad; x<(res + pad); x=x+stride) {
			sum = f2bf(0.0); // 0x0
     564:	0011883a 	mov	r8,zero
			for (ky=-ks; ky<ks; ky++) {
     568:	5c80302e 	bgeu	r11,r18,62c <convolution+0x1bc>
     56c:	d8c00217 	ldw	r3,8(sp)
				offset_s = (res * (y + ky)) + x;
				offset_d = (k * ky);
				for (kx=-ks; kx<ks; kx++) {
     570:	9813883a 	mov	r9,r19
     574:	60c7883a 	add	r3,r12,r3
     578:	d8c00315 	stw	r3,12(sp)
     57c:	d8c00417 	ldw	r3,16(sp)
     580:	68df883a 	add	r15,r13,r3
     584:	4c80252e 	bgeu	r9,r18,61c <convolution+0x1ac>
					src_pix = IORD_16DIRECT(src, (kx + offset_s) << 1);
     588:	d8c00317 	ldw	r3,12(sp)
     58c:	48c5883a 	add	r2,r9,r3
     590:	d8c00517 	ldw	r3,20(sp)
     594:	1085883a 	add	r2,r2,r2
     598:	1885883a 	add	r2,r3,r2
     59c:	1100002b 	ldhuio	r4,0(r2)
					k_pix = IORD_16DIRECT(knl, (kx + offset_d) << 1);
     5a0:	d8c00617 	ldw	r3,24(sp)
     5a4:	4bc5883a 	add	r2,r9,r15
     5a8:	1085883a 	add	r2,r2,r2
			sum = f2bf(0.0); // 0x0
			for (ky=-ks; ky<ks; ky++) {
				offset_s = (res * (y + ky)) + x;
				offset_d = (k * ky);
				for (kx=-ks; kx<ks; kx++) {
					src_pix = IORD_16DIRECT(src, (kx + offset_s) << 1);
     5ac:	213fffcc 	andi	r4,r4,65535
					k_pix = IORD_16DIRECT(knl, (kx + offset_d) << 1);
     5b0:	1885883a 	add	r2,r3,r2
     5b4:	1140002b 	ldhuio	r5,0(r2)

//////////////////////////////////////////////////////////////////////////////
bfloat16 f2bf(float x) { // float to bfloat
     union IntFloat f;
     f.f = x;
     return (bfloat16)(f.i >> 16);
     5b8:	280a943a 	slli	r5,r5,16
     5bc:	2008943a 	slli	r4,r4,16
     5c0:	da400a15 	stw	r9,40(sp)
     5c4:	da800915 	stw	r10,36(sp)
     5c8:	dac00b15 	stw	r11,44(sp)
     5cc:	db000c15 	stw	r12,48(sp)
     5d0:	db400d15 	stw	r13,52(sp)
     5d4:	db800e15 	stw	r14,56(sp)
     5d8:	dbc00f15 	stw	r15,60(sp)
     5dc:	da000815 	stw	r8,32(sp)
     5e0:	00058e80 	call	58e8 <__mulsf3>
     5e4:	da000817 	ldw	r8,32(sp)
     5e8:	113fffec 	andhi	r4,r2,65535
     5ec:	400a943a 	slli	r5,r8,16
     5f0:	0004de40 	call	4de4 <__addsf3>
		for (x=pad; x<(res + pad); x=x+stride) {
			sum = f2bf(0.0); // 0x0
			for (ky=-ks; ky<ks; ky++) {
				offset_s = (res * (y + ky)) + x;
				offset_d = (k * ky);
				for (kx=-ks; kx<ks; kx++) {
     5f4:	da400a17 	ldw	r9,40(sp)

//////////////////////////////////////////////////////////////////////////////
bfloat16 f2bf(float x) { // float to bfloat
     union IntFloat f;
     f.f = x;
     return (bfloat16)(f.i >> 16);
     5f8:	1010d43a 	srli	r8,r2,16
		for (x=pad; x<(res + pad); x=x+stride) {
			sum = f2bf(0.0); // 0x0
			for (ky=-ks; ky<ks; ky++) {
				offset_s = (res * (y + ky)) + x;
				offset_d = (k * ky);
				for (kx=-ks; kx<ks; kx++) {
     5fc:	dbc00f17 	ldw	r15,60(sp)
     600:	4a400044 	addi	r9,r9,1
     604:	db800e17 	ldw	r14,56(sp)
     608:	db400d17 	ldw	r13,52(sp)
     60c:	db000c17 	ldw	r12,48(sp)
     610:	dac00b17 	ldw	r11,44(sp)
     614:	da800917 	ldw	r10,36(sp)
     618:	003fda06 	br	584 <__ram_exceptions_end+0xfdffe564>
	ks = (k >> 1); // k is odd 3,5,7 ... ks generally equal to pad
	dst_ptr = 0;
	for (y=pad; y<(res + pad); y=y+stride) {
		for (x=pad; x<(res + pad); x=x+stride) {
			sum = f2bf(0.0); // 0x0
			for (ky=-ks; ky<ks; ky++) {
     61c:	5ac00044 	addi	r11,r11,1
     620:	6719883a 	add	r12,r12,fp
     624:	6d1b883a 	add	r13,r13,r20
     628:	003fcf06 	br	568 <__ram_exceptions_end+0xfdffe548>
					src_pix = IORD_16DIRECT(src, (kx + offset_s) << 1);
					k_pix = IORD_16DIRECT(knl, (kx + offset_d) << 1);
					sum = bf_add(sum, bf_mult(src_pix, k_pix)); // sum of products
				}
			}
			if (clr == 0)
     62c:	d8c00717 	ldw	r3,28(sp)
     630:	1800021e 	bne	r3,zero,63c <convolution+0x1cc>
				sum += IORD_16DIRECT(dst, dst_ptr);
     634:	8080002b 	ldhuio	r2,0(r16)
     638:	1211883a 	add	r8,r2,r8
			IOWR_16DIRECT(dst, dst_ptr, sum);
     63c:	8200002d 	sthio	r8,0(r16)
     640:	5595883a 	add	r10,r10,r22
     644:	84000084 	addi	r16,r16,2
     648:	003fbb06 	br	538 <__ram_exceptions_end+0xfdffe518>
	alt_u32 kx, ky, dst_ptr, offset_s, offset_d;
	bfloat16 sum, src_pix, k_pix;

	ks = (k >> 1); // k is odd 3,5,7 ... ks generally equal to pad
	dst_ptr = 0;
	for (y=pad; y<(res + pad); y=y+stride) {
     64c:	adab883a 	add	r21,r21,r22
     650:	003fad06 	br	508 <__ram_exceptions_end+0xfdffe4e8>
				sum += IORD_16DIRECT(dst, dst_ptr);
			IOWR_16DIRECT(dst, dst_ptr, sum);
			dst_ptr += 2;
		}
	}
}
     654:	dfc01917 	ldw	ra,100(sp)
     658:	df001817 	ldw	fp,96(sp)
     65c:	ddc01717 	ldw	r23,92(sp)
     660:	dd801617 	ldw	r22,88(sp)
     664:	dd401517 	ldw	r21,84(sp)
     668:	dd001417 	ldw	r20,80(sp)
     66c:	dcc01317 	ldw	r19,76(sp)
     670:	dc801217 	ldw	r18,72(sp)
     674:	dc401117 	ldw	r17,68(sp)
     678:	dc001017 	ldw	r16,64(sp)
     67c:	dec01a04 	addi	sp,sp,104
     680:	f800283a 	ret

00000684 <maxpool>:

//////////////////////////////////////////////////////////////////////////////
void maxpool(alt_u16* src, alt_u16* dst, alt_u16 k, alt_u16 res, alt_u16 pad, alt_u16 stride) {
     684:	deffee04 	addi	sp,sp,-72
	alt_u32 dst_ptr;
	float src_pix;
	bfloat16 max;

	dst_ptr = 0;
	for (y=pad; y<(res + pad); y=y+stride) {
     688:	d8801217 	ldw	r2,72(sp)
		}
	}
}

//////////////////////////////////////////////////////////////////////////////
void maxpool(alt_u16* src, alt_u16* dst, alt_u16 k, alt_u16 res, alt_u16 pad, alt_u16 stride) {
     68c:	d8c0130b 	ldhu	r3,76(sp)
	alt_u32 dst_ptr;
	float src_pix;
	bfloat16 max;

	dst_ptr = 0;
	for (y=pad; y<(res + pad); y=y+stride) {
     690:	39ffffcc 	andi	r7,r7,65535
		}
	}
}

//////////////////////////////////////////////////////////////////////////////
void maxpool(alt_u16* src, alt_u16* dst, alt_u16 k, alt_u16 res, alt_u16 pad, alt_u16 stride) {
     694:	dc000815 	stw	r16,32(sp)
	alt_u32 dst_ptr;
	float src_pix;
	bfloat16 max;

	dst_ptr = 0;
	for (y=pad; y<(res + pad); y=y+stride) {
     698:	143fffcc 	andi	r16,r2,65535
     69c:	3c21883a 	add	r16,r7,r16
		}
	}
}

//////////////////////////////////////////////////////////////////////////////
void maxpool(alt_u16* src, alt_u16* dst, alt_u16 k, alt_u16 res, alt_u16 pad, alt_u16 stride) {
     6a0:	df001015 	stw	fp,64(sp)
     6a4:	dd400d15 	stw	r21,52(sp)
     6a8:	dcc00b15 	stw	r19,44(sp)
     6ac:	dc800a15 	stw	r18,40(sp)
     6b0:	dfc01115 	stw	ra,68(sp)
     6b4:	ddc00f15 	stw	r23,60(sp)
     6b8:	dd800e15 	stw	r22,56(sp)
     6bc:	dd000c15 	stw	r20,48(sp)
     6c0:	dc400915 	stw	r17,36(sp)
     6c4:	d9000415 	stw	r4,16(sp)
     6c8:	d9400515 	stw	r5,20(sp)
     6cc:	d8c0010d 	sth	r3,4(sp)
	alt_u32 dst_ptr;
	float src_pix;
	bfloat16 max;

	dst_ptr = 0;
	for (y=pad; y<(res + pad); y=y+stride) {
     6d0:	1039883a 	mov	fp,r2
     6d4:	1027883a 	mov	r19,r2
	alt_16 x, y, kx, ky;
	alt_u32 dst_ptr;
	float src_pix;
	bfloat16 max;

	dst_ptr = 0;
     6d8:	0025883a 	mov	r18,zero
	for (y=pad; y<(res + pad); y=y+stride) {
     6dc:	d9c00215 	stw	r7,8(sp)
     6e0:	dc000315 	stw	r16,12(sp)
		for (x=pad; x<(res + pad); x=x+stride) {
			max = f2bf(-10000.0); // negative enough?
			for (ky=0; ky<k; ky++) {
     6e4:	357fffcc 	andi	r21,r6,65535
	alt_u32 dst_ptr;
	float src_pix;
	bfloat16 max;

	dst_ptr = 0;
	for (y=pad; y<(res + pad); y=y+stride) {
     6e8:	98ffffcc 	andi	r3,r19,65535
     6ec:	18e0001c 	xori	r3,r3,32768
     6f0:	d8800317 	ldw	r2,12(sp)
     6f4:	18e00004 	addi	r3,r3,-32768
     6f8:	d8c00015 	stw	r3,0(sp)
     6fc:	1880360e 	bge	r3,r2,7d8 <maxpool+0x154>
     700:	e02f883a 	mov	r23,fp
		for (x=pad; x<(res + pad); x=x+stride) {
     704:	bdbfffcc 	andi	r22,r23,65535
     708:	d8c00317 	ldw	r3,12(sp)
     70c:	b5a0001c 	xori	r22,r22,32768
     710:	b5a00004 	addi	r22,r22,-32768
     714:	b0c02d0e 	bge	r22,r3,7cc <maxpool+0x148>
     718:	05318704 	movi	r20,-14820
     71c:	0021883a 	mov	r16,zero
			max = f2bf(-10000.0); // negative enough?
			for (ky=0; ky<k; ky++) {
     720:	817fffcc 	andi	r5,r16,65535
     724:	2960001c 	xori	r5,r5,32768
     728:	29600004 	addi	r5,r5,-32768
     72c:	2d40200e 	bge	r5,r21,7b0 <maxpool+0x12c>
     730:	d8c00017 	ldw	r3,0(sp)
     734:	d9000217 	ldw	r4,8(sp)
     738:	194b883a 	add	r5,r3,r5
     73c:	0004dbc0 	call	4dbc <__mulsi3>
     740:	1017883a 	mov	r11,r2
				for (kx=0; kx<k; kx++) {
					src_pix = bf2f(IORD_16DIRECT(src, ((x + kx) + (res * (y + ky))) << 1));
     744:	0015883a 	mov	r10,zero
	dst_ptr = 0;
	for (y=pad; y<(res + pad); y=y+stride) {
		for (x=pad; x<(res + pad); x=x+stride) {
			max = f2bf(-10000.0); // negative enough?
			for (ky=0; ky<k; ky++) {
				for (kx=0; kx<k; kx++) {
     748:	50bfffcc 	andi	r2,r10,65535
     74c:	10a0001c 	xori	r2,r2,32768
     750:	10a00004 	addi	r2,r2,-32768
     754:	1540140e 	bge	r2,r21,7a8 <maxpool+0x124>
					src_pix = bf2f(IORD_16DIRECT(src, ((x + kx) + (res * (y + ky))) << 1));
     758:	b085883a 	add	r2,r22,r2
     75c:	d8c00417 	ldw	r3,16(sp)
     760:	12c5883a 	add	r2,r2,r11
     764:	1085883a 	add	r2,r2,r2
     768:	1885883a 	add	r2,r3,r2
     76c:	1440002b 	ldhuio	r17,0(r2)
}

//////////////////////////////////////////////////////////////////////////////
float bf2f(bfloat16 x) { // bfloat to float
     union IntFloat f;
     f.i = ((alt_u32)x << 16);
     770:	8822943a 	slli	r17,r17,16
		for (x=pad; x<(res + pad); x=x+stride) {
			max = f2bf(-10000.0); // negative enough?
			for (ky=0; ky<k; ky++) {
				for (kx=0; kx<k; kx++) {
					src_pix = bf2f(IORD_16DIRECT(src, ((x + kx) + (res * (y + ky))) << 1));
					if (src_pix > max)
     774:	a13fffcc 	andi	r4,r20,65535
     778:	da800615 	stw	r10,24(sp)
     77c:	dac00715 	stw	r11,28(sp)
     780:	000626c0 	call	626c <__floatsisf>
     784:	880b883a 	mov	r5,r17
     788:	1009883a 	mov	r4,r2
     78c:	00058200 	call	5820 <__lesf2>
     790:	da800617 	ldw	r10,24(sp)
     794:	dac00717 	ldw	r11,28(sp)
     798:	1000010e 	bge	r2,zero,7a0 <maxpool+0x11c>

//////////////////////////////////////////////////////////////////////////////
bfloat16 f2bf(float x) { // float to bfloat
     union IntFloat f;
     f.f = x;
     return (bfloat16)(f.i >> 16);
     79c:	8828d43a 	srli	r20,r17,16
     7a0:	52800044 	addi	r10,r10,1
     7a4:	003fe806 	br	748 <__ram_exceptions_end+0xfdffe728>
     7a8:	84000044 	addi	r16,r16,1
     7ac:	003fdc06 	br	720 <__ram_exceptions_end+0xfdffe700>
					src_pix = bf2f(IORD_16DIRECT(src, ((x + kx) + (res * (y + ky))) << 1));
					if (src_pix > max)
						max = f2bf(src_pix);
				}
			}
			IOWR_16DIRECT(dst, dst_ptr, max);
     7b0:	d8c00517 	ldw	r3,20(sp)
     7b4:	1c85883a 	add	r2,r3,r18
     7b8:	1500002d 	sthio	r20,0(r2)
     7bc:	d8c0010b 	ldhu	r3,4(sp)
			dst_ptr += 2;
     7c0:	94800084 	addi	r18,r18,2
     7c4:	b8ef883a 	add	r23,r23,r3
     7c8:	003fce06 	br	704 <__ram_exceptions_end+0xfdffe6e4>
	alt_u32 dst_ptr;
	float src_pix;
	bfloat16 max;

	dst_ptr = 0;
	for (y=pad; y<(res + pad); y=y+stride) {
     7cc:	d8c0010b 	ldhu	r3,4(sp)
     7d0:	98e7883a 	add	r19,r19,r3
     7d4:	003fc406 	br	6e8 <__ram_exceptions_end+0xfdffe6c8>
			}
			IOWR_16DIRECT(dst, dst_ptr, max);
			dst_ptr += 2;
		}
	}
}
     7d8:	dfc01117 	ldw	ra,68(sp)
     7dc:	df001017 	ldw	fp,64(sp)
     7e0:	ddc00f17 	ldw	r23,60(sp)
     7e4:	dd800e17 	ldw	r22,56(sp)
     7e8:	dd400d17 	ldw	r21,52(sp)
     7ec:	dd000c17 	ldw	r20,48(sp)
     7f0:	dcc00b17 	ldw	r19,44(sp)
     7f4:	dc800a17 	ldw	r18,40(sp)
     7f8:	dc400917 	ldw	r17,36(sp)
     7fc:	dc000817 	ldw	r16,32(sp)
     800:	dec01204 	addi	sp,sp,72
     804:	f800283a 	ret

00000808 <global_average_pooling>:

//////////////////////////////////////////////////////////////////////////////
bfloat16 global_average_pooling(alt_u16* src, alt_u16 res) {
     808:	defffc04 	addi	sp,sp,-16
	alt_u32 x, src_ptr;
	bfloat16 sum;

	sum = f2bf(0.0);
	src_ptr = 0;
	for (x=0; x<(res*res); x++) {
     80c:	297fffcc 	andi	r5,r5,65535
		}
	}
}

//////////////////////////////////////////////////////////////////////////////
bfloat16 global_average_pooling(alt_u16* src, alt_u16 res) {
     810:	dc800215 	stw	r18,8(sp)
     814:	2025883a 	mov	r18,r4
	alt_u32 x, src_ptr;
	bfloat16 sum;

	sum = f2bf(0.0);
	src_ptr = 0;
	for (x=0; x<(res*res); x++) {
     818:	2809883a 	mov	r4,r5
		}
	}
}

//////////////////////////////////////////////////////////////////////////////
bfloat16 global_average_pooling(alt_u16* src, alt_u16 res) {
     81c:	dc400115 	stw	r17,4(sp)
     820:	dc000015 	stw	r16,0(sp)
     824:	dfc00315 	stw	ra,12(sp)
	alt_u32 x, src_ptr;
	bfloat16 sum;

	sum = f2bf(0.0);
	src_ptr = 0;
	for (x=0; x<(res*res); x++) {
     828:	0004dbc0 	call	4dbc <__mulsi3>
     82c:	1021883a 	mov	r16,r2
     830:	0023883a 	mov	r17,zero
//////////////////////////////////////////////////////////////////////////////
bfloat16 global_average_pooling(alt_u16* src, alt_u16 res) {
	alt_u32 x, src_ptr;
	bfloat16 sum;

	sum = f2bf(0.0);
     834:	0005883a 	mov	r2,zero
     838:	117fffcc 	andi	r5,r2,65535
	src_ptr = 0;
	for (x=0; x<(res*res); x++) {
     83c:	8c000926 	beq	r17,r16,864 <global_average_pooling+0x5c>
		sum = bf_add(sum, IORD_16DIRECT(src, src_ptr));
     840:	8c45883a 	add	r2,r17,r17
     844:	9085883a 	add	r2,r18,r2
     848:	1100002b 	ldhuio	r4,0(r2)

//////////////////////////////////////////////////////////////////////////////
bfloat16 f2bf(float x) { // float to bfloat
     union IntFloat f;
     f.f = x;
     return (bfloat16)(f.i >> 16);
     84c:	280a943a 	slli	r5,r5,16
     850:	2008943a 	slli	r4,r4,16
	alt_u32 x, src_ptr;
	bfloat16 sum;

	sum = f2bf(0.0);
	src_ptr = 0;
	for (x=0; x<(res*res); x++) {
     854:	8c400044 	addi	r17,r17,1

//////////////////////////////////////////////////////////////////////////////
bfloat16 f2bf(float x) { // float to bfloat
     union IntFloat f;
     f.f = x;
     return (bfloat16)(f.i >> 16);
     858:	0004de40 	call	4de4 <__addsf3>
     85c:	1004d43a 	srli	r2,r2,16
     860:	003ff506 	br	838 <__ram_exceptions_end+0xfdffe818>
}

//////////////////////////////////////////////////////////////////////////////
float bf2f(bfloat16 x) { // bfloat to float
     union IntFloat f;
     f.i = ((alt_u32)x << 16);
     864:	2820943a 	slli	r16,r5,16

//////////////////////////////////////////////////////////////////////////////
bfloat16 f2bf(float x) { // float to bfloat
     union IntFloat f;
     f.f = x;
     return (bfloat16)(f.i >> 16);
     868:	8809883a 	mov	r4,r17
     86c:	000626c0 	call	626c <__floatsisf>
     870:	100b883a 	mov	r5,r2
     874:	8009883a 	mov	r4,r16
     878:	00052ac0 	call	52ac <__divsf3>
	for (x=0; x<(res*res); x++) {
		sum = bf_add(sum, IORD_16DIRECT(src, src_ptr));
		src_ptr += 2;
	}
	return f2bf(bf2f(sum) / (float)(res * res));
}
     87c:	1004d43a 	srli	r2,r2,16
     880:	dfc00317 	ldw	ra,12(sp)
     884:	dc800217 	ldw	r18,8(sp)
     888:	dc400117 	ldw	r17,4(sp)
     88c:	dc000017 	ldw	r16,0(sp)
     890:	dec00404 	addi	sp,sp,16
     894:	f800283a 	ret

00000898 <softmax>:

//////////////////////////////////////////////////////////////////////////////
void softmax(alt_u16* src, alt_u16 input_len) {
     898:	defff804 	addi	sp,sp,-32
     89c:	dd800615 	stw	r22,24(sp)
     8a0:	dd400515 	stw	r21,20(sp)
     8a4:	dd000415 	stw	r20,16(sp)
     8a8:	dc800215 	stw	r18,8(sp)
     8ac:	dc400115 	stw	r17,4(sp)
     8b0:	dc000015 	stw	r16,0(sp)
     8b4:	dfc00715 	stw	ra,28(sp)
     8b8:	dcc00315 	stw	r19,12(sp)
     8bc:	2021883a 	mov	r16,r4
     8c0:	2023883a 	mov	r17,r4
	alt_u16 i;
	float m, sum, offset;

	sum = 0.0;
	m = -INFINITY;
	for (i = 0; i < input_len; i++)
     8c4:	202d883a 	mov	r22,r4
void softmax(alt_u16* src, alt_u16 input_len) {
	alt_u16 i;
	float m, sum, offset;

	sum = 0.0;
	m = -INFINITY;
     8c8:	04bfe034 	movhi	r18,65408
	for (i = 0; i < input_len; i++)
     8cc:	002b883a 	mov	r21,zero
     8d0:	2d3fffcc 	andi	r20,r5,65535
     8d4:	a8bfffcc 	andi	r2,r21,65535
     8d8:	15000a26 	beq	r2,r20,904 <softmax+0x6c>
}

//////////////////////////////////////////////////////////////////////////////
float bf2f(bfloat16 x) { // bfloat to float
     union IntFloat f;
     f.i = ((alt_u32)x << 16);
     8dc:	b4c0000b 	ldhu	r19,0(r22)
	float m, sum, offset;

	sum = 0.0;
	m = -INFINITY;
	for (i = 0; i < input_len; i++)
		if (bf2f(src[i]) > m)
     8e0:	9009883a 	mov	r4,r18
}

//////////////////////////////////////////////////////////////////////////////
float bf2f(bfloat16 x) { // bfloat to float
     union IntFloat f;
     f.i = ((alt_u32)x << 16);
     8e4:	9826943a 	slli	r19,r19,16
	float m, sum, offset;

	sum = 0.0;
	m = -INFINITY;
	for (i = 0; i < input_len; i++)
		if (bf2f(src[i]) > m)
     8e8:	980b883a 	mov	r5,r19
     8ec:	00058200 	call	5820 <__lesf2>
     8f0:	1000010e 	bge	r2,zero,8f8 <softmax+0x60>
			m = bf2f(src[i]);
     8f4:	9825883a 	mov	r18,r19
	alt_u16 i;
	float m, sum, offset;

	sum = 0.0;
	m = -INFINITY;
	for (i = 0; i < input_len; i++)
     8f8:	ad400044 	addi	r21,r21,1
     8fc:	b5800084 	addi	r22,r22,2
     900:	003ff406 	br	8d4 <__ram_exceptions_end+0xfdffe8b4>
     904:	0027883a 	mov	r19,zero
     908:	002b883a 	mov	r21,zero
		if (bf2f(src[i]) > m)
			m = bf2f(src[i]);
	for (i = 0; i < input_len; i++)
     90c:	a8bfffcc 	andi	r2,r21,65535
     910:	15000d26 	beq	r2,r20,948 <softmax+0xb0>
}

//////////////////////////////////////////////////////////////////////////////
float bf2f(bfloat16 x) { // bfloat to float
     union IntFloat f;
     f.i = ((alt_u32)x << 16);
     914:	8100000b 	ldhu	r4,0(r16)
	m = -INFINITY;
	for (i = 0; i < input_len; i++)
		if (bf2f(src[i]) > m)
			m = bf2f(src[i]);
	for (i = 0; i < input_len; i++)
		sum += expf(bf2f(src[i]) - m);
     918:	900b883a 	mov	r5,r18
	sum = 0.0;
	m = -INFINITY;
	for (i = 0; i < input_len; i++)
		if (bf2f(src[i]) > m)
			m = bf2f(src[i]);
	for (i = 0; i < input_len; i++)
     91c:	ad400044 	addi	r21,r21,1
		sum += expf(bf2f(src[i]) - m);
     920:	2008943a 	slli	r4,r4,16
     924:	84000084 	addi	r16,r16,2
     928:	0005d180 	call	5d18 <__subsf3>
     92c:	1009883a 	mov	r4,r2
     930:	00034a40 	call	34a4 <expf>
     934:	9809883a 	mov	r4,r19
     938:	100b883a 	mov	r5,r2
     93c:	0004de40 	call	4de4 <__addsf3>
     940:	1027883a 	mov	r19,r2
     944:	003ff106 	br	90c <__ram_exceptions_end+0xfdffe8ec>
	offset = m + logf(sum);
     948:	9809883a 	mov	r4,r19
     94c:	00036100 	call	3610 <logf>
     950:	9009883a 	mov	r4,r18
     954:	100b883a 	mov	r5,r2
     958:	0004de40 	call	4de4 <__addsf3>
     95c:	1025883a 	mov	r18,r2
	for (alt_u16 i = 0; i < input_len; i++)
     960:	0021883a 	mov	r16,zero
     964:	80bfffcc 	andi	r2,r16,65535
     968:	15000c26 	beq	r2,r20,99c <softmax+0x104>
		src[i] = f2bf(expf(src[i] - offset));
     96c:	8900000b 	ldhu	r4,0(r17)
		if (bf2f(src[i]) > m)
			m = bf2f(src[i]);
	for (i = 0; i < input_len; i++)
		sum += expf(bf2f(src[i]) - m);
	offset = m + logf(sum);
	for (alt_u16 i = 0; i < input_len; i++)
     970:	84000044 	addi	r16,r16,1
     974:	8c400084 	addi	r17,r17,2
		src[i] = f2bf(expf(src[i] - offset));
     978:	000626c0 	call	626c <__floatsisf>
     97c:	900b883a 	mov	r5,r18
     980:	1009883a 	mov	r4,r2
     984:	0005d180 	call	5d18 <__subsf3>
     988:	1009883a 	mov	r4,r2
     98c:	00034a40 	call	34a4 <expf>
     990:	1004d43a 	srli	r2,r2,16
     994:	88bfff8d 	sth	r2,-2(r17)
     998:	003ff206 	br	964 <__ram_exceptions_end+0xfdffe944>
}
     99c:	dfc00717 	ldw	ra,28(sp)
     9a0:	dd800617 	ldw	r22,24(sp)
     9a4:	dd400517 	ldw	r21,20(sp)
     9a8:	dd000417 	ldw	r20,16(sp)
     9ac:	dcc00317 	ldw	r19,12(sp)
     9b0:	dc800217 	ldw	r18,8(sp)
     9b4:	dc400117 	ldw	r17,4(sp)
     9b8:	dc000017 	ldw	r16,0(sp)
     9bc:	dec00804 	addi	sp,sp,32
     9c0:	f800283a 	ret

000009c4 <scale>:

//////////////////////////////////////////////////////////////////////////////
void scale(alt_u16* src, alt_u16* dst, alt_u16 width, alt_u16 height, alt_u16 new_width, alt_u16 new_height) {
     9c4:	defff104 	addi	sp,sp,-60
     9c8:	dc400615 	stw	r17,24(sp)
     9cc:	dc400f17 	ldw	r17,60(sp)
     9d0:	ddc00c15 	stw	r23,48(sp)
     9d4:	202f883a 	mov	r23,r4
		alt_u16 cx, cy, pixel, src_ptr;
		alt_32 nearest;
		float scale_width, scale_height;

        scale_width =  (float)new_width / (float)width;
     9d8:	893fffcc 	andi	r4,r17,65535
	for (alt_u16 i = 0; i < input_len; i++)
		src[i] = f2bf(expf(src[i] - offset));
}

//////////////////////////////////////////////////////////////////////////////
void scale(alt_u16* src, alt_u16* dst, alt_u16 width, alt_u16 height, alt_u16 new_width, alt_u16 new_height) {
     9dc:	dfc00e15 	stw	ra,56(sp)
     9e0:	df000d15 	stw	fp,52(sp)
     9e4:	dd800b15 	stw	r22,44(sp)
     9e8:	2839883a 	mov	fp,r5
     9ec:	382d883a 	mov	r22,r7
     9f0:	dd400a15 	stw	r21,40(sp)
     9f4:	dd000915 	stw	r20,36(sp)
     9f8:	302b883a 	mov	r21,r6
     9fc:	dcc00815 	stw	r19,32(sp)
     a00:	dc800715 	stw	r18,28(sp)
     a04:	dc000515 	stw	r16,20(sp)
     a08:	3025883a 	mov	r18,r6
		alt_u16 cx, cy, pixel, src_ptr;
		alt_32 nearest;
		float scale_width, scale_height;

        scale_width =  (float)new_width / (float)width;
     a0c:	00063900 	call	6390 <__floatunsisf>
     a10:	a93fffcc 	andi	r4,r21,65535
     a14:	d8800415 	stw	r2,16(sp)
     a18:	00063900 	call	6390 <__floatunsisf>
     a1c:	d8c00417 	ldw	r3,16(sp)
	for (alt_u16 i = 0; i < input_len; i++)
		src[i] = f2bf(expf(src[i] - offset));
}

//////////////////////////////////////////////////////////////////////////////
void scale(alt_u16* src, alt_u16* dst, alt_u16 width, alt_u16 height, alt_u16 new_width, alt_u16 new_height) {
     a20:	dc001017 	ldw	r16,64(sp)
		alt_u16 cx, cy, pixel, src_ptr;
		alt_32 nearest;
		float scale_width, scale_height;

        scale_width =  (float)new_width / (float)width;
     a24:	100b883a 	mov	r5,r2
     a28:	1809883a 	mov	r4,r3
     a2c:	00052ac0 	call	52ac <__divsf3>
        scale_height = (float)new_height / (float)height;
     a30:	813fffcc 	andi	r4,r16,65535
void scale(alt_u16* src, alt_u16* dst, alt_u16 width, alt_u16 height, alt_u16 new_width, alt_u16 new_height) {
		alt_u16 cx, cy, pixel, src_ptr;
		alt_32 nearest;
		float scale_width, scale_height;

        scale_width =  (float)new_width / (float)width;
     a34:	d8800015 	stw	r2,0(sp)
        scale_height = (float)new_height / (float)height;
     a38:	00063900 	call	6390 <__floatunsisf>
     a3c:	b13fffcc 	andi	r4,r22,65535
	for (alt_u16 i = 0; i < input_len; i++)
		src[i] = f2bf(expf(src[i] - offset));
}

//////////////////////////////////////////////////////////////////////////////
void scale(alt_u16* src, alt_u16* dst, alt_u16 width, alt_u16 height, alt_u16 new_width, alt_u16 new_height) {
     a40:	8027883a 	mov	r19,r16
		alt_u16 cx, cy, pixel, src_ptr;
		alt_32 nearest;
		float scale_width, scale_height;

        scale_width =  (float)new_width / (float)width;
        scale_height = (float)new_height / (float)height;
     a44:	1021883a 	mov	r16,r2
     a48:	00063900 	call	6390 <__floatunsisf>
     a4c:	100b883a 	mov	r5,r2
     a50:	8009883a 	mov	r4,r16
	for (alt_u16 i = 0; i < input_len; i++)
		src[i] = f2bf(expf(src[i] - offset));
}

//////////////////////////////////////////////////////////////////////////////
void scale(alt_u16* src, alt_u16* dst, alt_u16 width, alt_u16 height, alt_u16 new_width, alt_u16 new_height) {
     a54:	8829883a 	mov	r20,r17
		alt_u16 cx, cy, pixel, src_ptr;
		alt_32 nearest;
		float scale_width, scale_height;

        scale_width =  (float)new_width / (float)width;
        scale_height = (float)new_height / (float)height;
     a58:	00052ac0 	call	52ac <__divsf3>
     a5c:	8c63883a 	add	r17,r17,r17
     a60:	dc40010d 	sth	r17,4(sp)
     a64:	102d883a 	mov	r22,r2

        src_ptr = 0;
     a68:	002b883a 	mov	r21,zero
        for(cy = 0; cy < new_height; cy++) {
     a6c:	0023883a 	mov	r17,zero
     a70:	9cffffcc 	andi	r19,r19,65535
     a74:	94bfffcc 	andi	r18,r18,65535
            for(cx = 0; cx < new_width; cx++) {
     a78:	a53fffcc 	andi	r20,r20,65535

        scale_width =  (float)new_width / (float)width;
        scale_height = (float)new_height / (float)height;

        src_ptr = 0;
        for(cy = 0; cy < new_height; cy++) {
     a7c:	897fffcc 	andi	r5,r17,65535
     a80:	2cc02b2e 	bgeu	r5,r19,b30 <scale+0x16c>
     a84:	9009883a 	mov	r4,r18
     a88:	0004dbc0 	call	4dbc <__mulsi3>
     a8c:	1013883a 	mov	r9,r2
            for(cx = 0; cx < new_width; cx++) {
                nearest =  (int)(((float)(cy * width) / scale_height) + ((float)cx / scale_width));
     a90:	0007883a 	mov	r3,zero
     a94:	18e1883a 	add	r16,r3,r3
        scale_width =  (float)new_width / (float)width;
        scale_height = (float)new_height / (float)height;

        src_ptr = 0;
        for(cy = 0; cy < new_height; cy++) {
            for(cx = 0; cx < new_width; cx++) {
     a98:	1a3fffcc 	andi	r8,r3,65535
     a9c:	8561883a 	add	r16,r16,r21
     aa0:	45001f26 	beq	r8,r20,b20 <scale+0x15c>
                nearest =  (int)(((float)(cy * width) / scale_height) + ((float)cx / scale_width));
                pixel = IORD_16DIRECT(src, nearest << 1);
     aa4:	4809883a 	mov	r4,r9
     aa8:	d8c00415 	stw	r3,16(sp)
     aac:	da400315 	stw	r9,12(sp)
     ab0:	da000215 	stw	r8,8(sp)
     ab4:	000626c0 	call	626c <__floatsisf>
     ab8:	b00b883a 	mov	r5,r22
     abc:	1009883a 	mov	r4,r2
     ac0:	00052ac0 	call	52ac <__divsf3>
     ac4:	da000217 	ldw	r8,8(sp)
     ac8:	d8800215 	stw	r2,8(sp)
     acc:	4009883a 	mov	r4,r8
     ad0:	00063900 	call	6390 <__floatunsisf>
     ad4:	d9400017 	ldw	r5,0(sp)
     ad8:	1009883a 	mov	r4,r2
     adc:	00052ac0 	call	52ac <__divsf3>
     ae0:	da800217 	ldw	r10,8(sp)
     ae4:	100b883a 	mov	r5,r2
     ae8:	5009883a 	mov	r4,r10
     aec:	0004de40 	call	4de4 <__addsf3>
     af0:	1009883a 	mov	r4,r2
     af4:	00061fc0 	call	61fc <__fixsfsi>
     af8:	1085883a 	add	r2,r2,r2
     afc:	b885883a 	add	r2,r23,r2
     b00:	1080002b 	ldhuio	r2,0(r2)
                IOWR_16DIRECT(dst, src_ptr, pixel);
     b04:	843fffcc 	andi	r16,r16,65535
     b08:	e421883a 	add	r16,fp,r16
     b0c:	8080002d 	sthio	r2,0(r16)
        scale_width =  (float)new_width / (float)width;
        scale_height = (float)new_height / (float)height;

        src_ptr = 0;
        for(cy = 0; cy < new_height; cy++) {
            for(cx = 0; cx < new_width; cx++) {
     b10:	d8c00417 	ldw	r3,16(sp)
     b14:	da400317 	ldw	r9,12(sp)
     b18:	18c00044 	addi	r3,r3,1
     b1c:	003fdd06 	br	a94 <__ram_exceptions_end+0xfdffea74>
     b20:	d880010b 	ldhu	r2,4(sp)

        scale_width =  (float)new_width / (float)width;
        scale_height = (float)new_height / (float)height;

        src_ptr = 0;
        for(cy = 0; cy < new_height; cy++) {
     b24:	8c400044 	addi	r17,r17,1
     b28:	a8ab883a 	add	r21,r21,r2
     b2c:	003fd306 	br	a7c <__ram_exceptions_end+0xfdffea5c>
                pixel = IORD_16DIRECT(src, nearest << 1);
                IOWR_16DIRECT(dst, src_ptr, pixel);
                src_ptr += 2;
            }
        }
}
     b30:	dfc00e17 	ldw	ra,56(sp)
     b34:	df000d17 	ldw	fp,52(sp)
     b38:	ddc00c17 	ldw	r23,48(sp)
     b3c:	dd800b17 	ldw	r22,44(sp)
     b40:	dd400a17 	ldw	r21,40(sp)
     b44:	dd000917 	ldw	r20,36(sp)
     b48:	dcc00817 	ldw	r19,32(sp)
     b4c:	dc800717 	ldw	r18,28(sp)
     b50:	dc400617 	ldw	r17,24(sp)
     b54:	dc000517 	ldw	r16,20(sp)
     b58:	dec00f04 	addi	sp,sp,60
     b5c:	f800283a 	ret

00000b60 <rgb565_to_feature>:

//////////////////////////////////////////////////////////////////////////////
void rgb565_to_feature(alt_u16* src, alt_u16* dst_r, alt_u16* dst_g, alt_u16* dst_b, alt_u16 res) {
     b60:	defff504 	addi	sp,sp,-44
     b64:	dd000515 	stw	r20,20(sp)
     b68:	2829883a 	mov	r20,r5
	alt_u16 pixel;
	alt_u32 i, ptr;

	ptr = 0;
	for (i=0; i<(res*res); i++) {
     b6c:	d9400b0b 	ldhu	r5,44(sp)
            }
        }
}

//////////////////////////////////////////////////////////////////////////////
void rgb565_to_feature(alt_u16* src, alt_u16* dst_r, alt_u16* dst_g, alt_u16* dst_b, alt_u16 res) {
     b70:	dcc00415 	stw	r19,16(sp)
     b74:	2027883a 	mov	r19,r4
	alt_u16 pixel;
	alt_u32 i, ptr;

	ptr = 0;
	for (i=0; i<(res*res); i++) {
     b78:	2809883a 	mov	r4,r5
            }
        }
}

//////////////////////////////////////////////////////////////////////////////
void rgb565_to_feature(alt_u16* src, alt_u16* dst_r, alt_u16* dst_g, alt_u16* dst_b, alt_u16 res) {
     b7c:	df000915 	stw	fp,36(sp)
     b80:	dd800715 	stw	r22,28(sp)
     b84:	dd400615 	stw	r21,24(sp)
     b88:	dc800315 	stw	r18,12(sp)
     b8c:	dc400215 	stw	r17,8(sp)
     b90:	dfc00a15 	stw	ra,40(sp)
     b94:	ddc00815 	stw	r23,32(sp)
     b98:	dc000115 	stw	r16,4(sp)
     b9c:	302b883a 	mov	r21,r6
     ba0:	382d883a 	mov	r22,r7
	alt_u16 pixel;
	alt_u32 i, ptr;

	ptr = 0;
	for (i=0; i<(res*res); i++) {
     ba4:	0004dbc0 	call	4dbc <__mulsi3>
     ba8:	1039883a 	mov	fp,r2
//////////////////////////////////////////////////////////////////////////////
void rgb565_to_feature(alt_u16* src, alt_u16* dst_r, alt_u16* dst_g, alt_u16* dst_b, alt_u16 res) {
	alt_u16 pixel;
	alt_u32 i, ptr;

	ptr = 0;
     bac:	0023883a 	mov	r17,zero
	for (i=0; i<(res*res); i++) {
     bb0:	0025883a 	mov	r18,zero
     bb4:	97002626 	beq	r18,fp,c50 <rgb565_to_feature+0xf0>
		pixel = IORD_16DIRECT(src, ptr);
     bb8:	9c45883a 	add	r2,r19,r17
     bbc:	1400002b 	ldhuio	r16,0(r2)
     bc0:	843fffcc 	andi	r16,r16,65535

//////////////////////////////////////////////////////////////////////////////
bfloat16 f2bf(float x) { // float to bfloat
     union IntFloat f;
     f.f = x;
     return (bfloat16)(f.i >> 16);
     bc4:	813e000c 	andi	r4,r16,63488
     bc8:	2008d23a 	srli	r4,r4,8
	alt_u32 i, ptr;

	ptr = 0;
	for (i=0; i<(res*res); i++) {
		pixel = IORD_16DIRECT(src, ptr);
		IOWR_16DIRECT(dst_r, ptr, f2bf((float)((pixel & 0xf800) >> 8) / 255.0));
     bcc:	a447883a 	add	r3,r20,r17

//////////////////////////////////////////////////////////////////////////////
bfloat16 f2bf(float x) { // float to bfloat
     union IntFloat f;
     f.f = x;
     return (bfloat16)(f.i >> 16);
     bd0:	d8c00015 	stw	r3,0(sp)
     bd4:	000626c0 	call	626c <__floatsisf>
     bd8:	0150dff4 	movhi	r5,17279
     bdc:	1009883a 	mov	r4,r2
     be0:	00052ac0 	call	52ac <__divsf3>
	alt_u32 i, ptr;

	ptr = 0;
	for (i=0; i<(res*res); i++) {
		pixel = IORD_16DIRECT(src, ptr);
		IOWR_16DIRECT(dst_r, ptr, f2bf((float)((pixel & 0xf800) >> 8) / 255.0));
     be4:	1004d43a 	srli	r2,r2,16
     be8:	d8c00017 	ldw	r3,0(sp)
     bec:	85ffffcc 	andi	r23,r16,65535
     bf0:	1880002d 	sthio	r2,0(r3)

//////////////////////////////////////////////////////////////////////////////
bfloat16 f2bf(float x) { // float to bfloat
     union IntFloat f;
     f.f = x;
     return (bfloat16)(f.i >> 16);
     bf4:	8101f80c 	andi	r4,r16,2016
     bf8:	2008d0fa 	srli	r4,r4,3

	ptr = 0;
	for (i=0; i<(res*res); i++) {
		pixel = IORD_16DIRECT(src, ptr);
		IOWR_16DIRECT(dst_r, ptr, f2bf((float)((pixel & 0xf800) >> 8) / 255.0));
		IOWR_16DIRECT(dst_g, ptr, f2bf((float)((pixel & 0x7e0) >> 3) / 255.0));
     bfc:	ac47883a 	add	r3,r21,r17

//////////////////////////////////////////////////////////////////////////////
bfloat16 f2bf(float x) { // float to bfloat
     union IntFloat f;
     f.f = x;
     return (bfloat16)(f.i >> 16);
     c00:	d8c00015 	stw	r3,0(sp)
     c04:	000626c0 	call	626c <__floatsisf>
     c08:	0150dff4 	movhi	r5,17279
     c0c:	1009883a 	mov	r4,r2
     c10:	00052ac0 	call	52ac <__divsf3>

	ptr = 0;
	for (i=0; i<(res*res); i++) {
		pixel = IORD_16DIRECT(src, ptr);
		IOWR_16DIRECT(dst_r, ptr, f2bf((float)((pixel & 0xf800) >> 8) / 255.0));
		IOWR_16DIRECT(dst_g, ptr, f2bf((float)((pixel & 0x7e0) >> 3) / 255.0));
     c14:	1004d43a 	srli	r2,r2,16
     c18:	d8c00017 	ldw	r3,0(sp)
     c1c:	1880002d 	sthio	r2,0(r3)

//////////////////////////////////////////////////////////////////////////////
bfloat16 f2bf(float x) { // float to bfloat
     union IntFloat f;
     f.f = x;
     return (bfloat16)(f.i >> 16);
     c20:	b80890fa 	slli	r4,r23,3
	ptr = 0;
	for (i=0; i<(res*res); i++) {
		pixel = IORD_16DIRECT(src, ptr);
		IOWR_16DIRECT(dst_r, ptr, f2bf((float)((pixel & 0xf800) >> 8) / 255.0));
		IOWR_16DIRECT(dst_g, ptr, f2bf((float)((pixel & 0x7e0) >> 3) / 255.0));
		IOWR_16DIRECT(dst_b, ptr, f2bf((float)((pixel & 0x1f) << 3) / 255.0));
     c24:	b461883a 	add	r16,r22,r17

//////////////////////////////////////////////////////////////////////////////
bfloat16 f2bf(float x) { // float to bfloat
     union IntFloat f;
     f.f = x;
     return (bfloat16)(f.i >> 16);
     c28:	21003e0c 	andi	r4,r4,248
     c2c:	000626c0 	call	626c <__floatsisf>
     c30:	0150dff4 	movhi	r5,17279
     c34:	1009883a 	mov	r4,r2
     c38:	00052ac0 	call	52ac <__divsf3>
	ptr = 0;
	for (i=0; i<(res*res); i++) {
		pixel = IORD_16DIRECT(src, ptr);
		IOWR_16DIRECT(dst_r, ptr, f2bf((float)((pixel & 0xf800) >> 8) / 255.0));
		IOWR_16DIRECT(dst_g, ptr, f2bf((float)((pixel & 0x7e0) >> 3) / 255.0));
		IOWR_16DIRECT(dst_b, ptr, f2bf((float)((pixel & 0x1f) << 3) / 255.0));
     c3c:	1004d43a 	srli	r2,r2,16
     c40:	8080002d 	sthio	r2,0(r16)
		ptr += 2;
     c44:	8c400084 	addi	r17,r17,2
void rgb565_to_feature(alt_u16* src, alt_u16* dst_r, alt_u16* dst_g, alt_u16* dst_b, alt_u16 res) {
	alt_u16 pixel;
	alt_u32 i, ptr;

	ptr = 0;
	for (i=0; i<(res*res); i++) {
     c48:	94800044 	addi	r18,r18,1
     c4c:	003fd906 	br	bb4 <__ram_exceptions_end+0xfdffeb94>
		IOWR_16DIRECT(dst_r, ptr, f2bf((float)((pixel & 0xf800) >> 8) / 255.0));
		IOWR_16DIRECT(dst_g, ptr, f2bf((float)((pixel & 0x7e0) >> 3) / 255.0));
		IOWR_16DIRECT(dst_b, ptr, f2bf((float)((pixel & 0x1f) << 3) / 255.0));
		ptr += 2;
	}
}
     c50:	dfc00a17 	ldw	ra,40(sp)
     c54:	df000917 	ldw	fp,36(sp)
     c58:	ddc00817 	ldw	r23,32(sp)
     c5c:	dd800717 	ldw	r22,28(sp)
     c60:	dd400617 	ldw	r21,24(sp)
     c64:	dd000517 	ldw	r20,20(sp)
     c68:	dcc00417 	ldw	r19,16(sp)
     c6c:	dc800317 	ldw	r18,12(sp)
     c70:	dc400217 	ldw	r17,8(sp)
     c74:	dc000117 	ldw	r16,4(sp)
     c78:	dec00b04 	addi	sp,sp,44
     c7c:	f800283a 	ret

00000c80 <grey_to_feature>:

//////////////////////////////////////////////////////////////////////////////
void grey_to_feature(alt_u16* src, alt_u16* dst, alt_u16 res) {
     c80:	defffa04 	addi	sp,sp,-24
     c84:	dd000415 	stw	r20,16(sp)
     c88:	2829883a 	mov	r20,r5
	alt_u16 pixel;
	alt_u32 i, ptr;

	ptr = 0;
	for (i=0; i<(res*res); i++) {
     c8c:	317fffcc 	andi	r5,r6,65535
		ptr += 2;
	}
}

//////////////////////////////////////////////////////////////////////////////
void grey_to_feature(alt_u16* src, alt_u16* dst, alt_u16 res) {
     c90:	dcc00315 	stw	r19,12(sp)
     c94:	2027883a 	mov	r19,r4
	alt_u16 pixel;
	alt_u32 i, ptr;

	ptr = 0;
	for (i=0; i<(res*res); i++) {
     c98:	2809883a 	mov	r4,r5
		ptr += 2;
	}
}

//////////////////////////////////////////////////////////////////////////////
void grey_to_feature(alt_u16* src, alt_u16* dst, alt_u16 res) {
     c9c:	dc800215 	stw	r18,8(sp)
     ca0:	dc000015 	stw	r16,0(sp)
     ca4:	dfc00515 	stw	ra,20(sp)
     ca8:	dc400115 	stw	r17,4(sp)
	alt_u16 pixel;
	alt_u32 i, ptr;

	ptr = 0;
	for (i=0; i<(res*res); i++) {
     cac:	0004dbc0 	call	4dbc <__mulsi3>
     cb0:	1025883a 	mov	r18,r2
     cb4:	0021883a 	mov	r16,zero
     cb8:	84800d26 	beq	r16,r18,cf0 <grey_to_feature+0x70>
     cbc:	8405883a 	add	r2,r16,r16
		pixel = IORD_16DIRECT(src, ptr);
     cc0:	9887883a 	add	r3,r19,r2
     cc4:	1900002b 	ldhuio	r4,0(r3)

//////////////////////////////////////////////////////////////////////////////
bfloat16 f2bf(float x) { // float to bfloat
     union IntFloat f;
     f.f = x;
     return (bfloat16)(f.i >> 16);
     cc8:	213fffcc 	andi	r4,r4,65535
	alt_u32 i, ptr;

	ptr = 0;
	for (i=0; i<(res*res); i++) {
		pixel = IORD_16DIRECT(src, ptr);
		IOWR_16DIRECT(dst, ptr, f2bf(((float)pixel) / 255.0));
     ccc:	a0a3883a 	add	r17,r20,r2

//////////////////////////////////////////////////////////////////////////////
bfloat16 f2bf(float x) { // float to bfloat
     union IntFloat f;
     f.f = x;
     return (bfloat16)(f.i >> 16);
     cd0:	00063900 	call	6390 <__floatunsisf>
     cd4:	0150dff4 	movhi	r5,17279
     cd8:	1009883a 	mov	r4,r2
     cdc:	00052ac0 	call	52ac <__divsf3>
	alt_u32 i, ptr;

	ptr = 0;
	for (i=0; i<(res*res); i++) {
		pixel = IORD_16DIRECT(src, ptr);
		IOWR_16DIRECT(dst, ptr, f2bf(((float)pixel) / 255.0));
     ce0:	1004d43a 	srli	r2,r2,16
     ce4:	8880002d 	sthio	r2,0(r17)
void grey_to_feature(alt_u16* src, alt_u16* dst, alt_u16 res) {
	alt_u16 pixel;
	alt_u32 i, ptr;

	ptr = 0;
	for (i=0; i<(res*res); i++) {
     ce8:	84000044 	addi	r16,r16,1
     cec:	003ff206 	br	cb8 <__ram_exceptions_end+0xfdffec98>
		pixel = IORD_16DIRECT(src, ptr);
		IOWR_16DIRECT(dst, ptr, f2bf(((float)pixel) / 255.0));
		ptr += 2;
	}
}
     cf0:	dfc00517 	ldw	ra,20(sp)
     cf4:	dd000417 	ldw	r20,16(sp)
     cf8:	dcc00317 	ldw	r19,12(sp)
     cfc:	dc800217 	ldw	r18,8(sp)
     d00:	dc400117 	ldw	r17,4(sp)
     d04:	dc000017 	ldw	r16,0(sp)
     d08:	dec00604 	addi	sp,sp,24
     d0c:	f800283a 	ret

00000d10 <rgb_to_grey>:

//////////////////////////////////////////////////////////////////////////////
alt_u16 rgb_to_grey(alt_u16 rgb565) {
     d10:	defffd04 	addi	sp,sp,-12
     d14:	dc000015 	stw	r16,0(sp)
     d18:	2021883a 	mov	r16,r4
	alt_u16 grey;

	grey = (alt_u16)((float)((rgb565 & 0xf800) >> 8) * 0.299);
     d1c:	213e000c 	andi	r4,r4,63488
     d20:	2008d23a 	srli	r4,r4,8
		ptr += 2;
	}
}

//////////////////////////////////////////////////////////////////////////////
alt_u16 rgb_to_grey(alt_u16 rgb565) {
     d24:	dfc00215 	stw	ra,8(sp)
     d28:	dc400115 	stw	r17,4(sp)
	alt_u16 grey;

	grey = (alt_u16)((float)((rgb565 & 0xf800) >> 8) * 0.299);
     d2c:	000626c0 	call	626c <__floatsisf>
     d30:	1009883a 	mov	r4,r2
     d34:	0008cc00 	call	8cc0 <__extendsfdf2>
     d38:	01b95834 	movhi	r6,58720
     d3c:	01cff4f4 	movhi	r7,16339
     d40:	31906244 	addi	r6,r6,16777
     d44:	39c8b404 	addi	r7,r7,8912
     d48:	1009883a 	mov	r4,r2
     d4c:	180b883a 	mov	r5,r3
     d50:	00079540 	call	7954 <__muldf3>
     d54:	180b883a 	mov	r5,r3
     d58:	1009883a 	mov	r4,r2
     d5c:	0003fd40 	call	3fd4 <__fixunsdfsi>
	grey += (alt_u16)((float)((rgb565 & 0x07e0) >> 3) * 0.587);
     d60:	8101f80c 	andi	r4,r16,2016
     d64:	2008d0fa 	srli	r4,r4,3

//////////////////////////////////////////////////////////////////////////////
alt_u16 rgb_to_grey(alt_u16 rgb565) {
	alt_u16 grey;

	grey = (alt_u16)((float)((rgb565 & 0xf800) >> 8) * 0.299);
     d68:	1023883a 	mov	r17,r2
	grey += (alt_u16)((float)((rgb565 & 0x07e0) >> 3) * 0.587);
     d6c:	000626c0 	call	626c <__floatsisf>
     d70:	1009883a 	mov	r4,r2
     d74:	0008cc00 	call	8cc0 <__extendsfdf2>
     d78:	018e5634 	movhi	r6,14680
     d7c:	01cff8f4 	movhi	r7,16355
     d80:	31841884 	addi	r6,r6,4194
     d84:	39f22d04 	addi	r7,r7,-14156
     d88:	1009883a 	mov	r4,r2
     d8c:	180b883a 	mov	r5,r3
     d90:	00079540 	call	7954 <__muldf3>
     d94:	180b883a 	mov	r5,r3
     d98:	1009883a 	mov	r4,r2
     d9c:	0003fd40 	call	3fd4 <__fixunsdfsi>
	grey += (alt_u16)((float)((rgb565 & 0x001f) << 3) * 0.114);
	return grey;
     da0:	800890fa 	slli	r4,r16,3
//////////////////////////////////////////////////////////////////////////////
alt_u16 rgb_to_grey(alt_u16 rgb565) {
	alt_u16 grey;

	grey = (alt_u16)((float)((rgb565 & 0xf800) >> 8) * 0.299);
	grey += (alt_u16)((float)((rgb565 & 0x07e0) >> 3) * 0.587);
     da4:	88a3883a 	add	r17,r17,r2
	grey += (alt_u16)((float)((rgb565 & 0x001f) << 3) * 0.114);
	return grey;
     da8:	21003e0c 	andi	r4,r4,248
     dac:	000626c0 	call	626c <__floatsisf>
     db0:	1009883a 	mov	r4,r2
     db4:	0008cc00 	call	8cc0 <__extendsfdf2>
     db8:	01a7efb4 	movhi	r6,40894
     dbc:	01cfef74 	movhi	r7,16317
     dc0:	319db244 	addi	r6,r6,30409
     dc4:	39cbc684 	addi	r7,r7,12058
     dc8:	1009883a 	mov	r4,r2
     dcc:	180b883a 	mov	r5,r3
     dd0:	00079540 	call	7954 <__muldf3>
     dd4:	1009883a 	mov	r4,r2
     dd8:	180b883a 	mov	r5,r3
     ddc:	0003fd40 	call	3fd4 <__fixunsdfsi>
}
     de0:	8885883a 	add	r2,r17,r2
     de4:	dfc00217 	ldw	ra,8(sp)
     de8:	dc400117 	ldw	r17,4(sp)
     dec:	dc000017 	ldw	r16,0(sp)
     df0:	dec00304 	addi	sp,sp,12
     df4:	f800283a 	ret

00000df8 <rgb565_to_text>:

//////////////////////////////////////////////////////////////////////////////
void rgb565_to_text(alt_u16* src, alt_u16 res, alt_u16 step, alt_u16 negative) {
     df8:	deffdb04 	addi	sp,sp,-148
     dfc:	dc801d15 	stw	r18,116(sp)

	alt_u16 x, y, xx, yy;
	alt_u32 line, src_ptr, sum;
	alt_u8 char_grey[92] = {32,96,45,46,39,95,58,44,34,61,94,59,60,43,33,42,63,
     e00:	04801704 	movi	r18,92
	grey += (alt_u16)((float)((rgb565 & 0x001f) << 3) * 0.114);
	return grey;
}

//////////////////////////////////////////////////////////////////////////////
void rgb565_to_text(alt_u16* src, alt_u16 res, alt_u16 step, alt_u16 negative) {
     e04:	dd402015 	stw	r21,128(sp)
     e08:	dcc01e15 	stw	r19,120(sp)
     e0c:	dc401c15 	stw	r17,112(sp)
     e10:	dc001b15 	stw	r16,108(sp)
     e14:	2823883a 	mov	r17,r5
     e18:	3021883a 	mov	r16,r6

	alt_u16 x, y, xx, yy;
	alt_u32 line, src_ptr, sum;
	alt_u8 char_grey[92] = {32,96,45,46,39,95,58,44,34,61,94,59,60,43,33,42,63,
     e1c:	000b883a 	mov	r5,zero
	grey += (alt_u16)((float)((rgb565 & 0x001f) << 3) * 0.114);
	return grey;
}

//////////////////////////////////////////////////////////////////////////////
void rgb565_to_text(alt_u16* src, alt_u16 res, alt_u16 step, alt_u16 negative) {
     e20:	202b883a 	mov	r21,r4
     e24:	3027883a 	mov	r19,r6

	alt_u16 x, y, xx, yy;
	alt_u32 line, src_ptr, sum;
	alt_u8 char_grey[92] = {32,96,45,46,39,95,58,44,34,61,94,59,60,43,33,42,63,
     e28:	d809883a 	mov	r4,sp
     e2c:	900d883a 	mov	r6,r18
	grey += (alt_u16)((float)((rgb565 & 0x001f) << 3) * 0.114);
	return grey;
}

//////////////////////////////////////////////////////////////////////////////
void rgb565_to_text(alt_u16* src, alt_u16 res, alt_u16 step, alt_u16 negative) {
     e30:	dfc02415 	stw	ra,144(sp)
     e34:	df002315 	stw	fp,140(sp)
     e38:	ddc02215 	stw	r23,136(sp)
     e3c:	dd802115 	stw	r22,132(sp)
     e40:	dd001f15 	stw	r20,124(sp)

	alt_u16 x, y, xx, yy;
	alt_u32 line, src_ptr, sum;
	alt_u8 char_grey[92] = {32,96,45,46,39,95,58,44,34,61,94,59,60,43,33,42,63,
     e44:	0008fec0 	call	8fec <memset>
     e48:	00800804 	movi	r2,32
     e4c:	d8800005 	stb	r2,0(sp)
     e50:	00801804 	movi	r2,96
     e54:	d8800045 	stb	r2,1(sp)
     e58:	00800b44 	movi	r2,45
     e5c:	d8800085 	stb	r2,2(sp)
     e60:	00800b84 	movi	r2,46
     e64:	d88000c5 	stb	r2,3(sp)
     e68:	008009c4 	movi	r2,39
     e6c:	d8800105 	stb	r2,4(sp)
     e70:	008017c4 	movi	r2,95
     e74:	d8800145 	stb	r2,5(sp)
     e78:	00800e84 	movi	r2,58
     e7c:	d8800185 	stb	r2,6(sp)
     e80:	00800b04 	movi	r2,44
     e84:	d88001c5 	stb	r2,7(sp)
     e88:	00800884 	movi	r2,34
     e8c:	d8800205 	stb	r2,8(sp)
     e90:	00800f44 	movi	r2,61
     e94:	d8800245 	stb	r2,9(sp)
     e98:	00801784 	movi	r2,94
     e9c:	d8800285 	stb	r2,10(sp)
     ea0:	00800ec4 	movi	r2,59
     ea4:	d88002c5 	stb	r2,11(sp)
     ea8:	00800f04 	movi	r2,60
     eac:	d8800305 	stb	r2,12(sp)
     eb0:	00800ac4 	movi	r2,43
     eb4:	d8800345 	stb	r2,13(sp)
     eb8:	00800844 	movi	r2,33
     ebc:	d8800385 	stb	r2,14(sp)
     ec0:	00800a84 	movi	r2,42
     ec4:	d88003c5 	stb	r2,15(sp)
     ec8:	00800fc4 	movi	r2,63
     ecc:	d8800405 	stb	r2,16(sp)
     ed0:	00800bc4 	movi	r2,47
     ed4:	d8800445 	stb	r2,17(sp)
     ed8:	008018c4 	movi	r2,99
     edc:	d8800485 	stb	r2,18(sp)
     ee0:	00801304 	movi	r2,76
     ee4:	d88004c5 	stb	r2,19(sp)
     ee8:	00801e84 	movi	r2,122
     eec:	d8800545 	stb	r2,21(sp)
     ef0:	00801c84 	movi	r2,114
     ef4:	d8800585 	stb	r2,22(sp)
     ef8:	00801cc4 	movi	r2,115
     efc:	d88005c5 	stb	r2,23(sp)
     f00:	00800dc4 	movi	r2,55
     f04:	d8800605 	stb	r2,24(sp)
     f08:	00801504 	movi	r2,84
     f0c:	d8800645 	stb	r2,25(sp)
     f10:	00801a44 	movi	r2,105
     f14:	d8800685 	stb	r2,26(sp)
     f18:	00801d84 	movi	r2,118
     f1c:	d88006c5 	stb	r2,27(sp)
     f20:	00801284 	movi	r2,74
     f24:	d8800705 	stb	r2,28(sp)
     f28:	00801d04 	movi	r2,116
     f2c:	d8800745 	stb	r2,29(sp)
     f30:	008010c4 	movi	r2,67
     f34:	d8800785 	stb	r2,30(sp)
     f38:	00801ec4 	movi	r2,123
     f3c:	dc800505 	stb	r18,20(sp)
     f40:	d88007c5 	stb	r2,31(sp)
     f44:	00800cc4 	movi	r2,51
     f48:	d8800805 	stb	r2,32(sp)
     f4c:	00801184 	movi	r2,70
     f50:	d8800845 	stb	r2,33(sp)
     f54:	00800a44 	movi	r2,41
     f58:	d8800885 	stb	r2,34(sp)
     f5c:	00801244 	movi	r2,73
     f60:	d88008c5 	stb	r2,35(sp)
     f64:	00801b04 	movi	r2,108
     f68:	d8800905 	stb	r2,36(sp)
     f6c:	00800a04 	movi	r2,40
     f70:	d8800945 	stb	r2,37(sp)
     f74:	00801e04 	movi	r2,120
     f78:	d8800985 	stb	r2,38(sp)
     f7c:	00801684 	movi	r2,90
     f80:	d88009c5 	stb	r2,39(sp)
     f84:	00801984 	movi	r2,102
     f88:	d8800a05 	stb	r2,40(sp)
     f8c:	00801644 	movi	r2,89
     f90:	d8800a45 	stb	r2,41(sp)
     f94:	00800d44 	movi	r2,53
     f98:	d8800a85 	stb	r2,42(sp)
     f9c:	008014c4 	movi	r2,83
     fa0:	d8800ac5 	stb	r2,43(sp)
     fa4:	00800c84 	movi	r2,50
     fa8:	d8800b05 	stb	r2,44(sp)
     fac:	00801944 	movi	r2,101
     fb0:	d8800b45 	stb	r2,45(sp)
     fb4:	00801844 	movi	r2,97
     fb8:	d8800b85 	stb	r2,46(sp)
     fbc:	00801a84 	movi	r2,106
     fc0:	d8800bc5 	stb	r2,47(sp)
     fc4:	00801bc4 	movi	r2,111
     fc8:	d8800c05 	stb	r2,48(sp)
     fcc:	00800c44 	movi	r2,49
     fd0:	d8800c45 	stb	r2,49(sp)
     fd4:	00800d04 	movi	r2,52
     fd8:	d8800c85 	stb	r2,50(sp)
     fdc:	008016c4 	movi	r2,91
     fe0:	d8800cc5 	stb	r2,51(sp)
     fe4:	00801b84 	movi	r2,110
     fe8:	d8800d05 	stb	r2,52(sp)
     fec:	00801d44 	movi	r2,117
     ff0:	d8800d45 	stb	r2,53(sp)
     ff4:	00801e44 	movi	r2,121
     ff8:	d8800d85 	stb	r2,54(sp)
     ffc:	00801144 	movi	r2,69
    1000:	d8800dc5 	stb	r2,55(sp)
    1004:	00801744 	movi	r2,93
    1008:	d8800e05 	stb	r2,56(sp)
    100c:	00801404 	movi	r2,80
    1010:	d8800e45 	stb	r2,57(sp)
    1014:	00800d84 	movi	r2,54
    1018:	d8800e85 	stb	r2,58(sp)
    101c:	00801584 	movi	r2,86
    1020:	d8800ec5 	stb	r2,59(sp)
    1024:	00800e44 	movi	r2,57
    1028:	d8800f05 	stb	r2,60(sp)
    102c:	00801ac4 	movi	r2,107
    1030:	d8800f45 	stb	r2,61(sp)
    1034:	00801604 	movi	r2,88
    1038:	d8800f85 	stb	r2,62(sp)
    103c:	00801c04 	movi	r2,112
    1040:	d8800fc5 	stb	r2,63(sp)
    1044:	008012c4 	movi	r2,75
    1048:	d8801005 	stb	r2,64(sp)
    104c:	00801dc4 	movi	r2,119
    1050:	d8801045 	stb	r2,65(sp)
    1054:	008011c4 	movi	r2,71
    1058:	d8801085 	stb	r2,66(sp)
    105c:	00801a04 	movi	r2,104
    1060:	d88010c5 	stb	r2,67(sp)
    1064:	00801c44 	movi	r2,113
    1068:	d8801105 	stb	r2,68(sp)
    106c:	00801044 	movi	r2,65
    1070:	d8801145 	stb	r2,69(sp)
    1074:	00801544 	movi	r2,85
    1078:	d8801185 	stb	r2,70(sp)
    107c:	00801884 	movi	r2,98
    1080:	d88011c5 	stb	r2,71(sp)
    1084:	008013c4 	movi	r2,79
    1088:	d8801205 	stb	r2,72(sp)
    108c:	00801904 	movi	r2,100
    1090:	d8801245 	stb	r2,73(sp)
    1094:	00800e04 	movi	r2,56
    1098:	d8801285 	stb	r2,74(sp)
    109c:	008008c4 	movi	r2,35
    10a0:	d88012c5 	stb	r2,75(sp)
    10a4:	00801204 	movi	r2,72
    10a8:	d8801305 	stb	r2,76(sp)
    10ac:	00801484 	movi	r2,82
    10b0:	d8801345 	stb	r2,77(sp)
    10b4:	00801104 	movi	r2,68
    10b8:	d8801385 	stb	r2,78(sp)
    10bc:	00801084 	movi	r2,66
    10c0:	d88013c5 	stb	r2,79(sp)
    10c4:	00800c04 	movi	r2,48
    10c8:	d8801405 	stb	r2,80(sp)
    10cc:	00800904 	movi	r2,36
    10d0:	d8801445 	stb	r2,81(sp)
    10d4:	00801b44 	movi	r2,109
    10d8:	d8801485 	stb	r2,82(sp)
    10dc:	008019c4 	movi	r2,103
    10e0:	d88014c5 	stb	r2,83(sp)
    10e4:	00801344 	movi	r2,77
    10e8:	d8801505 	stb	r2,84(sp)
    10ec:	008015c4 	movi	r2,87
    10f0:	d8801545 	stb	r2,85(sp)
    10f4:	00800984 	movi	r2,38
    10f8:	d8801585 	stb	r2,86(sp)
    10fc:	00801444 	movi	r2,81
    1100:	d88015c5 	stb	r2,87(sp)
    1104:	00800944 	movi	r2,37
    1108:	d8801605 	stb	r2,88(sp)
    110c:	817fffcc 	andi	r5,r16,65535
    1110:	00801384 	movi	r2,78
    1114:	d8801645 	stb	r2,89(sp)
			sum = 0;
			src_ptr = (x + line) << 1;
			for (yy=0; yy<step; yy++)
				for (xx=0; xx<step; xx++)
					sum += rgb_to_grey(IORD_16DIRECT(src, src_ptr + ((xx + (yy * res)) << 1)));
			sum = (sum / (step * step));
    1118:	2809883a 	mov	r4,r5
//////////////////////////////////////////////////////////////////////////////
void rgb565_to_text(alt_u16* src, alt_u16 res, alt_u16 step, alt_u16 negative) {

	alt_u16 x, y, xx, yy;
	alt_u32 line, src_ptr, sum;
	alt_u8 char_grey[92] = {32,96,45,46,39,95,58,44,34,61,94,59,60,43,33,42,63,
    111c:	00801004 	movi	r2,64
    1120:	d8801685 	stb	r2,90(sp)
			sum = 0;
			src_ptr = (x + line) << 1;
			for (yy=0; yy<step; yy++)
				for (xx=0; xx<step; xx++)
					sum += rgb_to_grey(IORD_16DIRECT(src, src_ptr + ((xx + (yy * res)) << 1)));
			sum = (sum / (step * step));
    1124:	0004dbc0 	call	4dbc <__mulsi3>
    1128:	d8801715 	stw	r2,92(sp)
			47,99,76,92,122,114,115,55,84,105,118,74,116,67,123,51,70,41,73,108,
			40,120,90,102,89,53,83,50,101,97,106,111,49,52,91,110,117,121,69,93,
			80,54,86,57,107,88,112,75,119,71,104,113,65,85,98,79,100,56,35,72,
			82,68,66,48,36,109,103,77,87,38,81,37,78,64};

	for (y=0; y<res; y+=step) {
    112c:	0025883a 	mov	r18,zero
    1130:	8c7fffcc 	andi	r17,r17,65535
    1134:	913fffcc 	andi	r4,r18,65535
    1138:	2440382e 	bgeu	r4,r17,121c <rgb565_to_text+0x424>
		line = (y * res);
    113c:	880b883a 	mov	r5,r17
    1140:	0004dbc0 	call	4dbc <__mulsi3>
    1144:	102d883a 	mov	r22,r2
		for (x=0; x<res; x+=step) {
    1148:	0021883a 	mov	r16,zero
    114c:	9d3fffcc 	andi	r20,r19,65535
    1150:	80bfffcc 	andi	r2,r16,65535
    1154:	14402c2e 	bgeu	r2,r17,1208 <rgb565_to_text+0x410>
			sum = 0;
			src_ptr = (x + line) << 1;
    1158:	1585883a 	add	r2,r2,r22
    115c:	1087883a 	add	r3,r2,r2
			for (yy=0; yy<step; yy++)
    1160:	a039883a 	mov	fp,r20
			82,68,66,48,36,109,103,77,87,38,81,37,78,64};

	for (y=0; y<res; y+=step) {
		line = (y * res);
		for (x=0; x<res; x+=step) {
			sum = 0;
    1164:	000f883a 	mov	r7,zero
			src_ptr = (x + line) << 1;
			for (yy=0; yy<step; yy++)
    1168:	000b883a 	mov	r5,zero
    116c:	28bfffcc 	andi	r2,r5,65535
    1170:	15001526 	beq	r2,r20,11c8 <rgb565_to_text+0x3d0>
    1174:	e52fc83a 	sub	r23,fp,r20
				for (xx=0; xx<step; xx++)
    1178:	e5c01026 	beq	fp,r23,11bc <rgb565_to_text+0x3c4>
					sum += rgb_to_grey(IORD_16DIRECT(src, src_ptr + ((xx + (yy * res)) << 1)));
    117c:	bdc5883a 	add	r2,r23,r23
    1180:	10c5883a 	add	r2,r2,r3
    1184:	a885883a 	add	r2,r21,r2
    1188:	1100002b 	ldhuio	r4,0(r2)
    118c:	213fffcc 	andi	r4,r4,65535
    1190:	d8c01a15 	stw	r3,104(sp)
    1194:	d9401815 	stw	r5,96(sp)
    1198:	d9c01915 	stw	r7,100(sp)
    119c:	0000d100 	call	d10 <rgb_to_grey>
    11a0:	d9c01917 	ldw	r7,100(sp)
    11a4:	10bfffcc 	andi	r2,r2,65535
    11a8:	bdc00044 	addi	r23,r23,1
    11ac:	388f883a 	add	r7,r7,r2
    11b0:	d9401817 	ldw	r5,96(sp)
    11b4:	d8c01a17 	ldw	r3,104(sp)
    11b8:	003fef06 	br	1178 <__ram_exceptions_end+0xfdfff158>
	for (y=0; y<res; y+=step) {
		line = (y * res);
		for (x=0; x<res; x+=step) {
			sum = 0;
			src_ptr = (x + line) << 1;
			for (yy=0; yy<step; yy++)
    11bc:	29400044 	addi	r5,r5,1
    11c0:	e479883a 	add	fp,fp,r17
    11c4:	003fe906 	br	116c <__ram_exceptions_end+0xfdfff14c>
				for (xx=0; xx<step; xx++)
					sum += rgb_to_grey(IORD_16DIRECT(src, src_ptr + ((xx + (yy * res)) << 1)));
			sum = (sum / (step * step));
			sum = (sum * 92) / 255;		// scale grey count
    11c8:	d9401717 	ldw	r5,92(sp)
    11cc:	3809883a 	mov	r4,r7
			80,54,86,57,107,88,112,75,119,71,104,113,65,85,98,79,100,56,35,72,
			82,68,66,48,36,109,103,77,87,38,81,37,78,64};

	for (y=0; y<res; y+=step) {
		line = (y * res);
		for (x=0; x<res; x+=step) {
    11d0:	84e1883a 	add	r16,r16,r19
			src_ptr = (x + line) << 1;
			for (yy=0; yy<step; yy++)
				for (xx=0; xx<step; xx++)
					sum += rgb_to_grey(IORD_16DIRECT(src, src_ptr + ((xx + (yy * res)) << 1)));
			sum = (sum / (step * step));
			sum = (sum * 92) / 255;		// scale grey count
    11d4:	0004d000 	call	4d00 <__udivsi3>
    11d8:	01401704 	movi	r5,92
    11dc:	1009883a 	mov	r4,r2
    11e0:	0004dbc0 	call	4dbc <__mulsi3>
			printf("%c", char_grey[sum]);
    11e4:	01403fc4 	movi	r5,255
    11e8:	1009883a 	mov	r4,r2
    11ec:	0004d000 	call	4d00 <__udivsi3>
    11f0:	d885883a 	add	r2,sp,r2
    11f4:	11400003 	ldbu	r5,0(r2)
    11f8:	01000074 	movhi	r4,1
    11fc:	21247404 	addi	r4,r4,-28208
    1200:	00033500 	call	3350 <printf_>
    1204:	003fd206 	br	1150 <__ram_exceptions_end+0xfdfff130>
		}
		printf("\n");
    1208:	01000074 	movhi	r4,1
    120c:	21247304 	addi	r4,r4,-28212
    1210:	00033500 	call	3350 <printf_>
			47,99,76,92,122,114,115,55,84,105,118,74,116,67,123,51,70,41,73,108,
			40,120,90,102,89,53,83,50,101,97,106,111,49,52,91,110,117,121,69,93,
			80,54,86,57,107,88,112,75,119,71,104,113,65,85,98,79,100,56,35,72,
			82,68,66,48,36,109,103,77,87,38,81,37,78,64};

	for (y=0; y<res; y+=step) {
    1214:	94e5883a 	add	r18,r18,r19
    1218:	003fc606 	br	1134 <__ram_exceptions_end+0xfdfff114>
			sum = (sum * 92) / 255;		// scale grey count
			printf("%c", char_grey[sum]);
		}
		printf("\n");
	}
}
    121c:	dfc02417 	ldw	ra,144(sp)
    1220:	df002317 	ldw	fp,140(sp)
    1224:	ddc02217 	ldw	r23,136(sp)
    1228:	dd802117 	ldw	r22,132(sp)
    122c:	dd402017 	ldw	r21,128(sp)
    1230:	dd001f17 	ldw	r20,124(sp)
    1234:	dcc01e17 	ldw	r19,120(sp)
    1238:	dc801d17 	ldw	r18,116(sp)
    123c:	dc401c17 	ldw	r17,112(sp)
    1240:	dc001b17 	ldw	r16,108(sp)
    1244:	dec02504 	addi	sp,sp,148
    1248:	f800283a 	ret

0000124c <grey_to_text>:
//////////////////////////////////////////////////////////////////////////////
void grey_to_text(alt_u16* src, alt_u16 res, alt_u16 step, alt_u16 negative) {
    124c:	deffe004 	addi	sp,sp,-128
    1250:	dcc01a15 	stw	r19,104(sp)

	alt_u16 x, y, xx, yy;
	alt_u32 line, src_ptr, sum;
	alt_u8 char_grey[92] = {32,96,45,46,39,95,58,44,34,61,94,59,60,43,33,42,63,
    1254:	04c01704 	movi	r19,92
		}
		printf("\n");
	}
}
//////////////////////////////////////////////////////////////////////////////
void grey_to_text(alt_u16* src, alt_u16 res, alt_u16 step, alt_u16 negative) {
    1258:	dd001b15 	stw	r20,108(sp)
    125c:	dc801915 	stw	r18,100(sp)
    1260:	dc401815 	stw	r17,96(sp)
    1264:	dc001715 	stw	r16,92(sp)
    1268:	3023883a 	mov	r17,r6
    126c:	2821883a 	mov	r16,r5
    1270:	2029883a 	mov	r20,r4

	alt_u16 x, y, xx, yy;
	alt_u32 line, src_ptr, sum;
	alt_u8 char_grey[92] = {32,96,45,46,39,95,58,44,34,61,94,59,60,43,33,42,63,
    1274:	000b883a 	mov	r5,zero
    1278:	d809883a 	mov	r4,sp
		}
		printf("\n");
	}
}
//////////////////////////////////////////////////////////////////////////////
void grey_to_text(alt_u16* src, alt_u16 res, alt_u16 step, alt_u16 negative) {
    127c:	3025883a 	mov	r18,r6

	alt_u16 x, y, xx, yy;
	alt_u32 line, src_ptr, sum;
	alt_u8 char_grey[92] = {32,96,45,46,39,95,58,44,34,61,94,59,60,43,33,42,63,
    1280:	980d883a 	mov	r6,r19
		}
		printf("\n");
	}
}
//////////////////////////////////////////////////////////////////////////////
void grey_to_text(alt_u16* src, alt_u16 res, alt_u16 step, alt_u16 negative) {
    1284:	dfc01f15 	stw	ra,124(sp)
    1288:	ddc01e15 	stw	r23,120(sp)
    128c:	dd801d15 	stw	r22,116(sp)
    1290:	dd401c15 	stw	r21,112(sp)

	alt_u16 x, y, xx, yy;
	alt_u32 line, src_ptr, sum;
	alt_u8 char_grey[92] = {32,96,45,46,39,95,58,44,34,61,94,59,60,43,33,42,63,
    1294:	0008fec0 	call	8fec <memset>
    1298:	00800804 	movi	r2,32
    129c:	d8800005 	stb	r2,0(sp)
    12a0:	00801804 	movi	r2,96
    12a4:	d8800045 	stb	r2,1(sp)
    12a8:	00800b44 	movi	r2,45
    12ac:	d8800085 	stb	r2,2(sp)
    12b0:	00800b84 	movi	r2,46
    12b4:	d88000c5 	stb	r2,3(sp)
    12b8:	008009c4 	movi	r2,39
    12bc:	d8800105 	stb	r2,4(sp)
    12c0:	008017c4 	movi	r2,95
    12c4:	d8800145 	stb	r2,5(sp)
    12c8:	00800e84 	movi	r2,58
    12cc:	d8800185 	stb	r2,6(sp)
    12d0:	00800b04 	movi	r2,44
    12d4:	d88001c5 	stb	r2,7(sp)
    12d8:	00800884 	movi	r2,34
    12dc:	d8800205 	stb	r2,8(sp)
    12e0:	00800f44 	movi	r2,61
    12e4:	d8800245 	stb	r2,9(sp)
    12e8:	00801784 	movi	r2,94
    12ec:	d8800285 	stb	r2,10(sp)
    12f0:	00800ec4 	movi	r2,59
    12f4:	d88002c5 	stb	r2,11(sp)
    12f8:	00800f04 	movi	r2,60
    12fc:	d8800305 	stb	r2,12(sp)
    1300:	00800ac4 	movi	r2,43
    1304:	d8800345 	stb	r2,13(sp)
    1308:	00800844 	movi	r2,33
    130c:	d8800385 	stb	r2,14(sp)
    1310:	00800a84 	movi	r2,42
    1314:	d88003c5 	stb	r2,15(sp)
    1318:	00800fc4 	movi	r2,63
    131c:	d8800405 	stb	r2,16(sp)
    1320:	00800bc4 	movi	r2,47
    1324:	d8800445 	stb	r2,17(sp)
    1328:	008018c4 	movi	r2,99
    132c:	d8800485 	stb	r2,18(sp)
    1330:	00801304 	movi	r2,76
    1334:	d88004c5 	stb	r2,19(sp)
    1338:	00801e84 	movi	r2,122
    133c:	d8800545 	stb	r2,21(sp)
    1340:	00801c84 	movi	r2,114
    1344:	d8800585 	stb	r2,22(sp)
    1348:	00801cc4 	movi	r2,115
    134c:	d88005c5 	stb	r2,23(sp)
    1350:	00800dc4 	movi	r2,55
    1354:	d8800605 	stb	r2,24(sp)
    1358:	00801504 	movi	r2,84
    135c:	d8800645 	stb	r2,25(sp)
    1360:	00801a44 	movi	r2,105
    1364:	d8800685 	stb	r2,26(sp)
    1368:	00801d84 	movi	r2,118
    136c:	d88006c5 	stb	r2,27(sp)
    1370:	00801284 	movi	r2,74
    1374:	d8800705 	stb	r2,28(sp)
    1378:	00801d04 	movi	r2,116
    137c:	d8800745 	stb	r2,29(sp)
    1380:	008010c4 	movi	r2,67
    1384:	d8800785 	stb	r2,30(sp)
    1388:	00801ec4 	movi	r2,123
    138c:	dcc00505 	stb	r19,20(sp)
    1390:	d88007c5 	stb	r2,31(sp)
    1394:	00800cc4 	movi	r2,51
    1398:	d8800805 	stb	r2,32(sp)
    139c:	00801184 	movi	r2,70
    13a0:	d8800845 	stb	r2,33(sp)
    13a4:	00800a44 	movi	r2,41
    13a8:	d8800885 	stb	r2,34(sp)
    13ac:	00801244 	movi	r2,73
    13b0:	d88008c5 	stb	r2,35(sp)
    13b4:	00801b04 	movi	r2,108
    13b8:	d8800905 	stb	r2,36(sp)
    13bc:	00800a04 	movi	r2,40
    13c0:	d8800945 	stb	r2,37(sp)
    13c4:	00801e04 	movi	r2,120
    13c8:	d8800985 	stb	r2,38(sp)
    13cc:	00801684 	movi	r2,90
    13d0:	d88009c5 	stb	r2,39(sp)
    13d4:	00801984 	movi	r2,102
    13d8:	d8800a05 	stb	r2,40(sp)
    13dc:	00801644 	movi	r2,89
    13e0:	d8800a45 	stb	r2,41(sp)
    13e4:	00800d44 	movi	r2,53
    13e8:	d8800a85 	stb	r2,42(sp)
    13ec:	008014c4 	movi	r2,83
    13f0:	d8800ac5 	stb	r2,43(sp)
    13f4:	00800c84 	movi	r2,50
    13f8:	d8800b05 	stb	r2,44(sp)
    13fc:	00801944 	movi	r2,101
    1400:	d8800b45 	stb	r2,45(sp)
    1404:	00801844 	movi	r2,97
    1408:	d8800b85 	stb	r2,46(sp)
    140c:	00801a84 	movi	r2,106
    1410:	d8800bc5 	stb	r2,47(sp)
    1414:	00801bc4 	movi	r2,111
    1418:	d8800c05 	stb	r2,48(sp)
    141c:	00800c44 	movi	r2,49
    1420:	d8800c45 	stb	r2,49(sp)
    1424:	00800d04 	movi	r2,52
    1428:	d8800c85 	stb	r2,50(sp)
    142c:	008016c4 	movi	r2,91
    1430:	d8800cc5 	stb	r2,51(sp)
    1434:	00801b84 	movi	r2,110
    1438:	d8800d05 	stb	r2,52(sp)
    143c:	00801d44 	movi	r2,117
    1440:	d8800d45 	stb	r2,53(sp)
    1444:	00801e44 	movi	r2,121
    1448:	d8800d85 	stb	r2,54(sp)
    144c:	00801144 	movi	r2,69
    1450:	d8800dc5 	stb	r2,55(sp)
    1454:	00801744 	movi	r2,93
    1458:	d8800e05 	stb	r2,56(sp)
    145c:	00801404 	movi	r2,80
    1460:	d8800e45 	stb	r2,57(sp)
    1464:	00800d84 	movi	r2,54
    1468:	d8800e85 	stb	r2,58(sp)
    146c:	00801584 	movi	r2,86
    1470:	d8800ec5 	stb	r2,59(sp)
    1474:	00800e44 	movi	r2,57
    1478:	d8800f05 	stb	r2,60(sp)
    147c:	00801ac4 	movi	r2,107
    1480:	d8800f45 	stb	r2,61(sp)
    1484:	00801604 	movi	r2,88
    1488:	d8800f85 	stb	r2,62(sp)
    148c:	00801c04 	movi	r2,112
    1490:	d8800fc5 	stb	r2,63(sp)
    1494:	008012c4 	movi	r2,75
    1498:	d8801005 	stb	r2,64(sp)
    149c:	00801dc4 	movi	r2,119
    14a0:	d8801045 	stb	r2,65(sp)
    14a4:	008011c4 	movi	r2,71
    14a8:	d8801085 	stb	r2,66(sp)
    14ac:	00801a04 	movi	r2,104
    14b0:	d88010c5 	stb	r2,67(sp)
    14b4:	00801c44 	movi	r2,113
    14b8:	d8801105 	stb	r2,68(sp)
    14bc:	00801044 	movi	r2,65
    14c0:	d8801145 	stb	r2,69(sp)
    14c4:	00801544 	movi	r2,85
    14c8:	d8801185 	stb	r2,70(sp)
    14cc:	00801884 	movi	r2,98
    14d0:	d88011c5 	stb	r2,71(sp)
    14d4:	008013c4 	movi	r2,79
    14d8:	d8801205 	stb	r2,72(sp)
    14dc:	00801904 	movi	r2,100
    14e0:	d8801245 	stb	r2,73(sp)
    14e4:	00800e04 	movi	r2,56
    14e8:	d8801285 	stb	r2,74(sp)
    14ec:	008008c4 	movi	r2,35
    14f0:	d88012c5 	stb	r2,75(sp)
    14f4:	00801204 	movi	r2,72
    14f8:	d8801305 	stb	r2,76(sp)
    14fc:	00801484 	movi	r2,82
    1500:	d8801345 	stb	r2,77(sp)
    1504:	00801104 	movi	r2,68
    1508:	d8801385 	stb	r2,78(sp)
    150c:	00801084 	movi	r2,66
    1510:	d88013c5 	stb	r2,79(sp)
    1514:	00800c04 	movi	r2,48
    1518:	d8801405 	stb	r2,80(sp)
    151c:	00800904 	movi	r2,36
    1520:	d8801445 	stb	r2,81(sp)
    1524:	00801b44 	movi	r2,109
    1528:	d8801485 	stb	r2,82(sp)
    152c:	008019c4 	movi	r2,103
    1530:	d88014c5 	stb	r2,83(sp)
    1534:	00801344 	movi	r2,77
    1538:	d8801505 	stb	r2,84(sp)
    153c:	008015c4 	movi	r2,87
    1540:	d8801545 	stb	r2,85(sp)
    1544:	00800984 	movi	r2,38
    1548:	d8801585 	stb	r2,86(sp)
    154c:	00801444 	movi	r2,81
    1550:	d88015c5 	stb	r2,87(sp)
    1554:	00800944 	movi	r2,37
    1558:	897fffcc 	andi	r5,r17,65535
    155c:	d8801605 	stb	r2,88(sp)
    1560:	00801384 	movi	r2,78
    1564:	d8801645 	stb	r2,89(sp)
			sum = 0;
			src_ptr = (x + line) << 1;
			for (yy=0; yy<step; yy++)
				for (xx=0; xx<step; xx++)
					sum += IORD_16DIRECT(src, src_ptr + ((xx + (yy * res)) << 1));
			sum = (sum / (step * step));
    1568:	2809883a 	mov	r4,r5
//////////////////////////////////////////////////////////////////////////////
void grey_to_text(alt_u16* src, alt_u16 res, alt_u16 step, alt_u16 negative) {

	alt_u16 x, y, xx, yy;
	alt_u32 line, src_ptr, sum;
	alt_u8 char_grey[92] = {32,96,45,46,39,95,58,44,34,61,94,59,60,43,33,42,63,
    156c:	00801004 	movi	r2,64
    1570:	d8801685 	stb	r2,90(sp)
			sum = 0;
			src_ptr = (x + line) << 1;
			for (yy=0; yy<step; yy++)
				for (xx=0; xx<step; xx++)
					sum += IORD_16DIRECT(src, src_ptr + ((xx + (yy * res)) << 1));
			sum = (sum / (step * step));
    1574:	0004dbc0 	call	4dbc <__mulsi3>
    1578:	1027883a 	mov	r19,r2
			47,99,76,92,122,114,115,55,84,105,118,74,116,67,123,51,70,41,73,108,
			40,120,90,102,89,53,83,50,101,97,106,111,49,52,91,110,117,121,69,93,
			80,54,86,57,107,88,112,75,119,71,104,113,65,85,98,79,100,56,35,72,
			82,68,66,48,36,109,103,77,87,38,81,37,78,64};

	for (y=0; y<res; y+=step) {
    157c:	0023883a 	mov	r17,zero
    1580:	843fffcc 	andi	r16,r16,65535
    1584:	893fffcc 	andi	r4,r17,65535
    1588:	24002f2e 	bgeu	r4,r16,1648 <grey_to_text+0x3fc>
		line = (y * res);
    158c:	800b883a 	mov	r5,r16
    1590:	0004dbc0 	call	4dbc <__mulsi3>
    1594:	102f883a 	mov	r23,r2
		for (x=0; x<res; x+=step) {
    1598:	002b883a 	mov	r21,zero
    159c:	95bfffcc 	andi	r22,r18,65535
    15a0:	a8bfffcc 	andi	r2,r21,65535
    15a4:	1400232e 	bgeu	r2,r16,1634 <grey_to_text+0x3e8>
			sum = 0;
			src_ptr = (x + line) << 1;
    15a8:	15c5883a 	add	r2,r2,r23
    15ac:	1085883a 	add	r2,r2,r2
			for (yy=0; yy<step; yy++)
    15b0:	b00d883a 	mov	r6,r22
			82,68,66,48,36,109,103,77,87,38,81,37,78,64};

	for (y=0; y<res; y+=step) {
		line = (y * res);
		for (x=0; x<res; x+=step) {
			sum = 0;
    15b4:	0009883a 	mov	r4,zero
			src_ptr = (x + line) << 1;
			for (yy=0; yy<step; yy++)
    15b8:	000f883a 	mov	r7,zero
    15bc:	38ffffcc 	andi	r3,r7,65535
    15c0:	1d800d26 	beq	r3,r22,15f8 <grey_to_text+0x3ac>
    15c4:	3587c83a 	sub	r3,r6,r22
				for (xx=0; xx<step; xx++)
    15c8:	30c00826 	beq	r6,r3,15ec <grey_to_text+0x3a0>
					sum += IORD_16DIRECT(src, src_ptr + ((xx + (yy * res)) << 1));
    15cc:	18cb883a 	add	r5,r3,r3
    15d0:	288b883a 	add	r5,r5,r2
    15d4:	a14b883a 	add	r5,r20,r5
    15d8:	2940002b 	ldhuio	r5,0(r5)
    15dc:	297fffcc 	andi	r5,r5,65535
    15e0:	2149883a 	add	r4,r4,r5
    15e4:	18c00044 	addi	r3,r3,1
    15e8:	003ff706 	br	15c8 <__ram_exceptions_end+0xfdfff5a8>
	for (y=0; y<res; y+=step) {
		line = (y * res);
		for (x=0; x<res; x+=step) {
			sum = 0;
			src_ptr = (x + line) << 1;
			for (yy=0; yy<step; yy++)
    15ec:	39c00044 	addi	r7,r7,1
    15f0:	340d883a 	add	r6,r6,r16
    15f4:	003ff106 	br	15bc <__ram_exceptions_end+0xfdfff59c>
				for (xx=0; xx<step; xx++)
					sum += IORD_16DIRECT(src, src_ptr + ((xx + (yy * res)) << 1));
			sum = (sum / (step * step));
			sum = (sum * 92) / 255;		// scale grey count
    15f8:	980b883a 	mov	r5,r19
    15fc:	0004d000 	call	4d00 <__udivsi3>
    1600:	01401704 	movi	r5,92
    1604:	1009883a 	mov	r4,r2
    1608:	0004dbc0 	call	4dbc <__mulsi3>
			printf("%c", char_grey[sum]);
    160c:	01403fc4 	movi	r5,255
    1610:	1009883a 	mov	r4,r2
    1614:	0004d000 	call	4d00 <__udivsi3>
    1618:	d885883a 	add	r2,sp,r2
    161c:	11400003 	ldbu	r5,0(r2)
    1620:	01000074 	movhi	r4,1
    1624:	21247404 	addi	r4,r4,-28208
    1628:	00033500 	call	3350 <printf_>
			80,54,86,57,107,88,112,75,119,71,104,113,65,85,98,79,100,56,35,72,
			82,68,66,48,36,109,103,77,87,38,81,37,78,64};

	for (y=0; y<res; y+=step) {
		line = (y * res);
		for (x=0; x<res; x+=step) {
    162c:	acab883a 	add	r21,r21,r18
    1630:	003fdb06 	br	15a0 <__ram_exceptions_end+0xfdfff580>
					sum += IORD_16DIRECT(src, src_ptr + ((xx + (yy * res)) << 1));
			sum = (sum / (step * step));
			sum = (sum * 92) / 255;		// scale grey count
			printf("%c", char_grey[sum]);
		}
		printf("\n");
    1634:	01000074 	movhi	r4,1
    1638:	21247304 	addi	r4,r4,-28212
    163c:	00033500 	call	3350 <printf_>
			47,99,76,92,122,114,115,55,84,105,118,74,116,67,123,51,70,41,73,108,
			40,120,90,102,89,53,83,50,101,97,106,111,49,52,91,110,117,121,69,93,
			80,54,86,57,107,88,112,75,119,71,104,113,65,85,98,79,100,56,35,72,
			82,68,66,48,36,109,103,77,87,38,81,37,78,64};

	for (y=0; y<res; y+=step) {
    1640:	8ca3883a 	add	r17,r17,r18
    1644:	003fcf06 	br	1584 <__ram_exceptions_end+0xfdfff564>
			sum = (sum * 92) / 255;		// scale grey count
			printf("%c", char_grey[sum]);
		}
		printf("\n");
	}
}
    1648:	dfc01f17 	ldw	ra,124(sp)
    164c:	ddc01e17 	ldw	r23,120(sp)
    1650:	dd801d17 	ldw	r22,116(sp)
    1654:	dd401c17 	ldw	r21,112(sp)
    1658:	dd001b17 	ldw	r20,108(sp)
    165c:	dcc01a17 	ldw	r19,104(sp)
    1660:	dc801917 	ldw	r18,100(sp)
    1664:	dc401817 	ldw	r17,96(sp)
    1668:	dc001717 	ldw	r16,92(sp)
    166c:	dec02004 	addi	sp,sp,128
    1670:	f800283a 	ret

00001674 <main>:

//////////////////////////////////////////////////////////////////////////////
int main()
{
    1674:	023fff34 	movhi	r8,65532
    1678:	defff704 	addi	sp,sp,-36
    167c:	42144f04 	addi	r8,r8,20796
	bfloat16 L1[3][64*64];
	bfloat16 L2[16][64*64], L2K[16][3][3*3];
	bfloat16 L3[10][64*64], L3K[10][16][3*3];
	bfloat16 R[10];

	printf("Starting Inference\n");
    1680:	01000074 	movhi	r4,1
	}
}

//////////////////////////////////////////////////////////////////////////////
int main()
{
    1684:	dfc00815 	stw	ra,32(sp)
    1688:	ddc00715 	stw	r23,28(sp)
    168c:	dd800615 	stw	r22,24(sp)
    1690:	dc400115 	stw	r17,4(sp)
    1694:	dc000015 	stw	r16,0(sp)
    1698:	dd400515 	stw	r21,20(sp)
    169c:	dd000415 	stw	r20,16(sp)
    16a0:	dcc00315 	stw	r19,12(sp)
    16a4:	dc800215 	stw	r18,8(sp)
	bfloat16 L1[3][64*64];
	bfloat16 L2[16][64*64], L2K[16][3][3*3];
	bfloat16 L3[10][64*64], L3K[10][16][3*3];
	bfloat16 R[10];

	printf("Starting Inference\n");
    16a8:	21247504 	addi	r4,r4,-28204
	}
}

//////////////////////////////////////////////////////////////////////////////
int main()
{
    16ac:	da37883a 	add	sp,sp,r8
	bfloat16 L1[3][64*64];
	bfloat16 L2[16][64*64], L2K[16][3][3*3];
	bfloat16 L3[10][64*64], L3K[10][16][3*3];
	bfloat16 R[10];

	printf("Starting Inference\n");
    16b0:	00033500 	call	3350 <printf_>

	rgb565_to_feature(image64by64, L1[0], L1[1], L1[2], 64);
    16b4:	008000f4 	movhi	r2,3
    16b8:	10900404 	addi	r2,r2,16400
    16bc:	16c5883a 	add	r2,r2,sp
    16c0:	04001004 	movi	r16,64
    16c4:	01000074 	movhi	r4,1
    16c8:	dc000015 	stw	r16,0(sp)
    16cc:	11d00004 	addi	r7,r2,16384
    16d0:	11880004 	addi	r6,r2,8192
    16d4:	100b883a 	mov	r5,r2
    16d8:	2124dc04 	addi	r4,r4,-27792
    16dc:	0000b600 	call	b60 <rgb565_to_feature>
    16e0:	0023883a 	mov	r17,zero

	for (i=0; i<16; i++) {
		for (j=0; j<3; j++) {
			convolution(&L1[j][0], (j == 0), &L2[i][0], &L2K[i][j][0], 3, 64, 1, 1);
    16e4:	05800044 	movi	r22,1
    16e8:	802f883a 	mov	r23,r16
    16ec:	8804937a 	slli	r2,r17,13
    16f0:	d8c00404 	addi	r3,sp,16
    16f4:	01400d84 	movi	r5,54
    16f8:	8809883a 	mov	r4,r17
    16fc:	18a5883a 	add	r18,r3,r2
    1700:	0004dbc0 	call	4dbc <__mulsi3>
    1704:	1029883a 	mov	r20,r2
	}
}

//////////////////////////////////////////////////////////////////////////////
int main()
{
    1708:	0021883a 	mov	r16,zero

	rgb565_to_feature(image64by64, L1[0], L1[1], L1[2], 64);

	for (i=0; i<16; i++) {
		for (j=0; j<3; j++) {
			convolution(&L1[j][0], (j == 0), &L2[i][0], &L2K[i][j][0], 3, 64, 1, 1);
    170c:	04c000c4 	movi	r19,3
    1710:	8009883a 	mov	r4,r16
    1714:	01400484 	movi	r5,18
    1718:	0004dbc0 	call	4dbc <__mulsi3>
    171c:	00c00134 	movhi	r3,4
    1720:	18ead404 	addi	r3,r3,-21680
    1724:	1505883a 	add	r2,r2,r20
    1728:	1ec7883a 	add	r3,r3,sp
    172c:	8008937a 	slli	r4,r16,13
    1730:	188f883a 	add	r7,r3,r2
    1734:	008000f4 	movhi	r2,3
    1738:	10900404 	addi	r2,r2,16400
    173c:	817fffcc 	andi	r5,r16,65535
    1740:	16c5883a 	add	r2,r2,sp
    1744:	dd800315 	stw	r22,12(sp)
    1748:	dd800215 	stw	r22,8(sp)
    174c:	ddc00115 	stw	r23,4(sp)
    1750:	dcc00015 	stw	r19,0(sp)
    1754:	900d883a 	mov	r6,r18
    1758:	280b003a 	cmpeq	r5,r5,zero
    175c:	1109883a 	add	r4,r2,r4
    1760:	84000044 	addi	r16,r16,1
    1764:	00004700 	call	470 <convolution>
	printf("Starting Inference\n");

	rgb565_to_feature(image64by64, L1[0], L1[1], L1[2], 64);

	for (i=0; i<16; i++) {
		for (j=0; j<3; j++) {
    1768:	84ffe91e 	bne	r16,r19,1710 <__ram_exceptions_end+0xfdfff6f0>
			convolution(&L1[j][0], (j == 0), &L2[i][0], &L2K[i][j][0], 3, 64, 1, 1);
		}
		relu(L2[i], 64);
    176c:	01401004 	movi	r5,64
    1770:	9009883a 	mov	r4,r18
    1774:	00002780 	call	278 <relu>
    1778:	8c400044 	addi	r17,r17,1

	printf("Starting Inference\n");

	rgb565_to_feature(image64by64, L1[0], L1[1], L1[2], 64);

	for (i=0; i<16; i++) {
    177c:	00800404 	movi	r2,16
    1780:	88bfda1e 	bne	r17,r2,16ec <__ram_exceptions_end+0xfdfff6cc>
    1784:	0023883a 	mov	r17,zero
		}
		relu(L2[i], 64);
	}
	for (i=0; i<10; i++) {
		for (j=0; j<16; j++) {
			convolution(&L2[j][0], (j == 0), &L3[i][0], &L3K[i][j][0], 3, 64, 1, 1);
    1788:	05801004 	movi	r22,64
    178c:	8824937a 	slli	r18,r17,13
    1790:	00c000b4 	movhi	r3,2
    1794:	18c00404 	addi	r3,r3,16
    1798:	1ec7883a 	add	r3,r3,sp
    179c:	01404804 	movi	r5,288
    17a0:	8809883a 	mov	r4,r17
    17a4:	1ca5883a 	add	r18,r3,r18
    17a8:	0004dbc0 	call	4dbc <__mulsi3>
    17ac:	102b883a 	mov	r21,r2
	bfloat16 L3[10][64*64], L3K[10][16][3*3];
	bfloat16 R[10];

	printf("Starting Inference\n");

	rgb565_to_feature(image64by64, L1[0], L1[1], L1[2], 64);
    17b0:	0021883a 	mov	r16,zero
		}
		relu(L2[i], 64);
	}
	for (i=0; i<10; i++) {
		for (j=0; j<16; j++) {
			convolution(&L2[j][0], (j == 0), &L3[i][0], &L3K[i][j][0], 3, 64, 1, 1);
    17b4:	04c00044 	movi	r19,1
    17b8:	050000c4 	movi	r20,3
    17bc:	8009883a 	mov	r4,r16
    17c0:	01400484 	movi	r5,18
    17c4:	0004dbc0 	call	4dbc <__mulsi3>
    17c8:	00c00134 	movhi	r3,4
    17cc:	8008937a 	slli	r4,r16,13
    17d0:	18e80404 	addi	r3,r3,-24560
    17d4:	1545883a 	add	r2,r2,r21
    17d8:	1ec7883a 	add	r3,r3,sp
    17dc:	817fffcc 	andi	r5,r16,65535
    17e0:	188f883a 	add	r7,r3,r2
    17e4:	d8800404 	addi	r2,sp,16
    17e8:	1109883a 	add	r4,r2,r4
    17ec:	dcc00315 	stw	r19,12(sp)
    17f0:	dcc00215 	stw	r19,8(sp)
    17f4:	dd800115 	stw	r22,4(sp)
    17f8:	dd000015 	stw	r20,0(sp)
    17fc:	900d883a 	mov	r6,r18
    1800:	280b003a 	cmpeq	r5,r5,zero
    1804:	00004700 	call	470 <convolution>
    1808:	84000044 	addi	r16,r16,1
			convolution(&L1[j][0], (j == 0), &L2[i][0], &L2K[i][j][0], 3, 64, 1, 1);
		}
		relu(L2[i], 64);
	}
	for (i=0; i<10; i++) {
		for (j=0; j<16; j++) {
    180c:	00800404 	movi	r2,16
    1810:	80bfea1e 	bne	r16,r2,17bc <__ram_exceptions_end+0xfdfff79c>
			convolution(&L2[j][0], (j == 0), &L3[i][0], &L3K[i][j][0], 3, 64, 1, 1);
		}
		relu(L3[i], 64);
    1814:	01401004 	movi	r5,64
    1818:	9009883a 	mov	r4,r18
    181c:	00002780 	call	278 <relu>
    1820:	8c400044 	addi	r17,r17,1
		for (j=0; j<3; j++) {
			convolution(&L1[j][0], (j == 0), &L2[i][0], &L2K[i][j][0], 3, 64, 1, 1);
		}
		relu(L2[i], 64);
	}
	for (i=0; i<10; i++) {
    1824:	00800284 	movi	r2,10
    1828:	88bfd81e 	bne	r17,r2,178c <__ram_exceptions_end+0xfdfff76c>
    182c:	0021883a 	mov	r16,zero
		for (j=0; j<16; j++) {
			convolution(&L2[j][0], (j == 0), &L3[i][0], &L3K[i][j][0], 3, 64, 1, 1);
		}
		relu(L3[i], 64);
	}
	for (i=0; i<10; i++) {
    1830:	04400504 	movi	r17,20
		R[i] = global_average_pooling(L3[i], 64);
    1834:	8008933a 	slli	r4,r16,12
    1838:	008000b4 	movhi	r2,2
    183c:	10800404 	addi	r2,r2,16
    1840:	16c5883a 	add	r2,r2,sp
    1844:	1109883a 	add	r4,r2,r4
    1848:	01401004 	movi	r5,64
    184c:	00008080 	call	808 <global_average_pooling>
    1850:	01000134 	movhi	r4,4
    1854:	212bac04 	addi	r4,r4,-20816
    1858:	26c9883a 	add	r4,r4,sp
    185c:	2407883a 	add	r3,r4,r16
    1860:	1880000d 	sth	r2,0(r3)
    1864:	84000084 	addi	r16,r16,2
		for (j=0; j<16; j++) {
			convolution(&L2[j][0], (j == 0), &L3[i][0], &L3K[i][j][0], 3, 64, 1, 1);
		}
		relu(L3[i], 64);
	}
	for (i=0; i<10; i++) {
    1868:	847ff21e 	bne	r16,r17,1834 <__ram_exceptions_end+0xfdfff814>
		R[i] = global_average_pooling(L3[i], 64);
	}
	softmax(R, 10);
    186c:	01000134 	movhi	r4,4
    1870:	212bac04 	addi	r4,r4,-20816
    1874:	01400284 	movi	r5,10
    1878:	26c9883a 	add	r4,r4,sp
    187c:	00008980 	call	898 <softmax>

	printf("Results :\n");
    1880:	01000074 	movhi	r4,1
    1884:	21247a04 	addi	r4,r4,-28184
    1888:	00033500 	call	3350 <printf_>
    188c:	0021883a 	mov	r16,zero
	for (i=0; i<10; i++) {
    1890:	04400504 	movi	r17,20
		printf("%f ", bf2f(R[i]));
    1894:	00c00134 	movhi	r3,4
    1898:	18ebac04 	addi	r3,r3,-20816
    189c:	1ec7883a 	add	r3,r3,sp
    18a0:	1c05883a 	add	r2,r3,r16
}

//////////////////////////////////////////////////////////////////////////////
float bf2f(bfloat16 x) { // bfloat to float
     union IntFloat f;
     f.i = ((alt_u32)x << 16);
    18a4:	1100000b 	ldhu	r4,0(r2)
    18a8:	84000084 	addi	r16,r16,2
	}
	softmax(R, 10);

	printf("Results :\n");
	for (i=0; i<10; i++) {
		printf("%f ", bf2f(R[i]));
    18ac:	2008943a 	slli	r4,r4,16
    18b0:	0008cc00 	call	8cc0 <__extendsfdf2>
    18b4:	01000074 	movhi	r4,1
    18b8:	100b883a 	mov	r5,r2
    18bc:	180d883a 	mov	r6,r3
    18c0:	21247d04 	addi	r4,r4,-28172
    18c4:	00033500 	call	3350 <printf_>
		R[i] = global_average_pooling(L3[i], 64);
	}
	softmax(R, 10);

	printf("Results :\n");
	for (i=0; i<10; i++) {
    18c8:	847ff21e 	bne	r16,r17,1894 <__ram_exceptions_end+0xfdfff874>
		printf("%f ", bf2f(R[i]));
	}
	return 0;
}
    18cc:	0005883a 	mov	r2,zero
    18d0:	02000134 	movhi	r8,4
    18d4:	422bb104 	addi	r8,r8,-20796
    18d8:	da37883a 	add	sp,sp,r8
    18dc:	dfc00817 	ldw	ra,32(sp)
    18e0:	ddc00717 	ldw	r23,28(sp)
    18e4:	dd800617 	ldw	r22,24(sp)
    18e8:	dd400517 	ldw	r21,20(sp)
    18ec:	dd000417 	ldw	r20,16(sp)
    18f0:	dcc00317 	ldw	r19,12(sp)
    18f4:	dc800217 	ldw	r18,8(sp)
    18f8:	dc400117 	ldw	r17,4(sp)
    18fc:	dc000017 	ldw	r16,0(sp)
    1900:	dec00904 	addi	sp,sp,36
    1904:	f800283a 	ret

00001908 <_out_buffer>:


// internal buffer output
static inline void _out_buffer(char character, void* buffer, size_t idx, size_t maxlen)
{
  if (idx < maxlen) {
    1908:	31c0022e 	bgeu	r6,r7,1914 <_out_buffer+0xc>
    ((char*)buffer)[idx] = character;
    190c:	298d883a 	add	r6,r5,r6
    1910:	31000005 	stb	r4,0(r6)
    1914:	f800283a 	ret

00001918 <_out_null>:
}


// internal null output
static inline void _out_null(char character, void* buffer, size_t idx, size_t maxlen)
{
    1918:	f800283a 	ret

0000191c <_out_rev>:
}


// output the specified string in reverse, taking care of any zero-padding
static size_t _out_rev(out_fct_type out, char* buffer, size_t idx, size_t maxlen, const char* buf, size_t len, unsigned int width, unsigned int flags)
{
    191c:	defff604 	addi	sp,sp,-40
    1920:	dc800215 	stw	r18,8(sp)
    1924:	dc800d17 	ldw	r18,52(sp)
    1928:	dd800615 	stw	r22,24(sp)
    192c:	dd400515 	stw	r21,20(sp)
    1930:	dd000415 	stw	r20,16(sp)
    1934:	dcc00315 	stw	r19,12(sp)
    1938:	dc400115 	stw	r17,4(sp)
    193c:	dc000015 	stw	r16,0(sp)
    1940:	dfc00915 	stw	ra,36(sp)
    1944:	df000815 	stw	fp,32(sp)
    1948:	ddc00715 	stw	r23,28(sp)
  const size_t start_idx = idx;

  // pad spaces up to given width
  if (!(flags & FLAGS_LEFT) && !(flags & FLAGS_ZEROPAD)) {
    194c:	908000cc 	andi	r2,r18,3
}


// output the specified string in reverse, taking care of any zero-padding
static size_t _out_rev(out_fct_type out, char* buffer, size_t idx, size_t maxlen, const char* buf, size_t len, unsigned int width, unsigned int flags)
{
    1950:	2027883a 	mov	r19,r4
    1954:	2829883a 	mov	r20,r5
    1958:	3023883a 	mov	r17,r6
    195c:	382b883a 	mov	r21,r7
    1960:	dc000b17 	ldw	r16,44(sp)
    1964:	dd800c17 	ldw	r22,48(sp)
  const size_t start_idx = idx;

  // pad spaces up to given width
  if (!(flags & FLAGS_LEFT) && !(flags & FLAGS_ZEROPAD)) {
    1968:	1000021e 	bne	r2,zero,1974 <_out_rev+0x58>
    196c:	81afc83a 	sub	r23,r16,r6
    1970:	00000406 	br	1984 <_out_rev+0x68>
    1974:	ddc00a17 	ldw	r23,40(sp)
    1978:	bc2f883a 	add	r23,r23,r16
    197c:	81a1883a 	add	r16,r16,r6
    1980:	00000906 	br	19a8 <_out_rev+0x8c>
    for (size_t i = len; i < width; i++) {
    1984:	35c5883a 	add	r2,r6,r23
    1988:	15bffa2e 	bgeu	r2,r22,1974 <__ram_exceptions_end+0xfdfff954>
      out(' ', buffer, idx++, maxlen);
    198c:	a80f883a 	mov	r7,r21
    1990:	a00b883a 	mov	r5,r20
    1994:	01000804 	movi	r4,32
    1998:	37000044 	addi	fp,r6,1
    199c:	983ee83a 	callr	r19
    19a0:	e00d883a 	mov	r6,fp
    19a4:	003ff706 	br	1984 <__ram_exceptions_end+0xfdfff964>
    19a8:	bdffffc4 	addi	r23,r23,-1
    }
  }

  // reverse string
  while (len) {
    19ac:	34000726 	beq	r6,r16,19cc <_out_rev+0xb0>
    out(buf[--len], buffer, idx++, maxlen);
    19b0:	b9000007 	ldb	r4,0(r23)
    19b4:	a80f883a 	mov	r7,r21
    19b8:	a00b883a 	mov	r5,r20
    19bc:	37000044 	addi	fp,r6,1
    19c0:	983ee83a 	callr	r19
    19c4:	e00d883a 	mov	r6,fp
    19c8:	003ff706 	br	19a8 <__ram_exceptions_end+0xfdfff988>
  }

  // append pad spaces up to given width
  if (flags & FLAGS_LEFT) {
    19cc:	9480008c 	andi	r18,r18,2
    19d0:	90000a26 	beq	r18,zero,19fc <_out_rev+0xe0>
    while (idx - start_idx < width) {
    19d4:	8445c83a 	sub	r2,r16,r17
    19d8:	1580082e 	bgeu	r2,r22,19fc <_out_rev+0xe0>
      out(' ', buffer, idx++, maxlen);
    19dc:	800d883a 	mov	r6,r16
    19e0:	84800044 	addi	r18,r16,1
    19e4:	a80f883a 	mov	r7,r21
    19e8:	a00b883a 	mov	r5,r20
    19ec:	01000804 	movi	r4,32
    19f0:	983ee83a 	callr	r19
    19f4:	9021883a 	mov	r16,r18
    19f8:	003ff606 	br	19d4 <__ram_exceptions_end+0xfdfff9b4>
    }
  }

  return idx;
}
    19fc:	8005883a 	mov	r2,r16
    1a00:	dfc00917 	ldw	ra,36(sp)
    1a04:	df000817 	ldw	fp,32(sp)
    1a08:	ddc00717 	ldw	r23,28(sp)
    1a0c:	dd800617 	ldw	r22,24(sp)
    1a10:	dd400517 	ldw	r21,20(sp)
    1a14:	dd000417 	ldw	r20,16(sp)
    1a18:	dcc00317 	ldw	r19,12(sp)
    1a1c:	dc800217 	ldw	r18,8(sp)
    1a20:	dc400117 	ldw	r17,4(sp)
    1a24:	dc000017 	ldw	r16,0(sp)
    1a28:	dec00a04 	addi	sp,sp,40
    1a2c:	f800283a 	ret

00001a30 <_ntoa_format>:


// internal itoa format
static size_t _ntoa_format(out_fct_type out, char* buffer, size_t idx, size_t maxlen, char* buf, size_t len, bool negative, unsigned int base, unsigned int prec, unsigned int width, unsigned int flags)
{
    1a30:	deffff04 	addi	sp,sp,-4
    1a34:	da000717 	ldw	r8,28(sp)
    1a38:	dfc00015 	stw	ra,0(sp)
    1a3c:	d8c00117 	ldw	r3,4(sp)
  // pad leading zeros
  if (!(flags & FLAGS_LEFT)) {
    1a40:	4300008c 	andi	r12,r8,2
}


// internal itoa format
static size_t _ntoa_format(out_fct_type out, char* buffer, size_t idx, size_t maxlen, char* buf, size_t len, bool negative, unsigned int base, unsigned int prec, unsigned int width, unsigned int flags)
{
    1a44:	d8800217 	ldw	r2,8(sp)
    1a48:	da800317 	ldw	r10,12(sp)
    1a4c:	dac00417 	ldw	r11,16(sp)
    1a50:	db800517 	ldw	r14,20(sp)
    1a54:	da400617 	ldw	r9,24(sp)
  // pad leading zeros
  if (!(flags & FLAGS_LEFT)) {
    1a58:	60001a1e 	bne	r12,zero,1ac4 <_ntoa_format+0x94>
    if (width && (flags & FLAGS_ZEROPAD) && (negative || (flags & (FLAGS_PLUS | FLAGS_SPACE)))) {
    1a5c:	48000726 	beq	r9,zero,1a7c <_ntoa_format+0x4c>
    1a60:	4300004c 	andi	r12,r8,1
    1a64:	60000526 	beq	r12,zero,1a7c <_ntoa_format+0x4c>
    1a68:	53003fcc 	andi	r12,r10,255
    1a6c:	6000021e 	bne	r12,zero,1a78 <_ntoa_format+0x48>
    1a70:	4300030c 	andi	r12,r8,12
    1a74:	60000126 	beq	r12,zero,1a7c <_ntoa_format+0x4c>
      width--;
    1a78:	4a7fffc4 	addi	r9,r9,-1
    }
    while ((len < prec) && (len < PRINTF_NTOA_BUFFER_SIZE)) {
    1a7c:	030007c4 	movi	r12,31
      buf[len++] = '0';
    1a80:	03400c04 	movi	r13,48
  // pad leading zeros
  if (!(flags & FLAGS_LEFT)) {
    if (width && (flags & FLAGS_ZEROPAD) && (negative || (flags & (FLAGS_PLUS | FLAGS_SPACE)))) {
      width--;
    }
    while ((len < prec) && (len < PRINTF_NTOA_BUFFER_SIZE)) {
    1a84:	13800436 	bltu	r2,r14,1a98 <_ntoa_format+0x68>
      buf[len++] = '0';
    }
    while ((flags & FLAGS_ZEROPAD) && (len < width) && (len < PRINTF_NTOA_BUFFER_SIZE)) {
    1a88:	4340004c 	andi	r13,r8,1
    1a8c:	030007c4 	movi	r12,31
      buf[len++] = '0';
    1a90:	03c00c04 	movi	r15,48
    1a94:	00000a06 	br	1ac0 <_ntoa_format+0x90>
  // pad leading zeros
  if (!(flags & FLAGS_LEFT)) {
    if (width && (flags & FLAGS_ZEROPAD) && (negative || (flags & (FLAGS_PLUS | FLAGS_SPACE)))) {
      width--;
    }
    while ((len < prec) && (len < PRINTF_NTOA_BUFFER_SIZE)) {
    1a98:	60bffb36 	bltu	r12,r2,1a88 <__ram_exceptions_end+0xfdfffa68>
      buf[len++] = '0';
    1a9c:	189f883a 	add	r15,r3,r2
    1aa0:	7b400005 	stb	r13,0(r15)
    1aa4:	10800044 	addi	r2,r2,1
    1aa8:	003ff606 	br	1a84 <__ram_exceptions_end+0xfdfffa64>
    }
    while ((flags & FLAGS_ZEROPAD) && (len < width) && (len < PRINTF_NTOA_BUFFER_SIZE)) {
    1aac:	1240052e 	bgeu	r2,r9,1ac4 <_ntoa_format+0x94>
    1ab0:	60800436 	bltu	r12,r2,1ac4 <_ntoa_format+0x94>
      buf[len++] = '0';
    1ab4:	18bf883a 	add	ra,r3,r2
    1ab8:	fbc00005 	stb	r15,0(ra)
    1abc:	10800044 	addi	r2,r2,1
      width--;
    }
    while ((len < prec) && (len < PRINTF_NTOA_BUFFER_SIZE)) {
      buf[len++] = '0';
    }
    while ((flags & FLAGS_ZEROPAD) && (len < width) && (len < PRINTF_NTOA_BUFFER_SIZE)) {
    1ac0:	683ffa1e 	bne	r13,zero,1aac <__ram_exceptions_end+0xfdfffa8c>
      buf[len++] = '0';
    }
  }

  // handle hash
  if (flags & FLAGS_HASH) {
    1ac4:	4300040c 	andi	r12,r8,16
    1ac8:	60002726 	beq	r12,zero,1b68 <_ntoa_format+0x138>
    if (!(flags & FLAGS_PRECISION) && len && ((len == prec) || (len == width))) {
    1acc:	4301000c 	andi	r12,r8,1024
    1ad0:	03400404 	movi	r13,16
    1ad4:	6000091e 	bne	r12,zero,1afc <_ntoa_format+0xcc>
    1ad8:	10000826 	beq	r2,zero,1afc <_ntoa_format+0xcc>
    1adc:	13800126 	beq	r2,r14,1ae4 <_ntoa_format+0xb4>
    1ae0:	1240061e 	bne	r2,r9,1afc <_ntoa_format+0xcc>
      len--;
    1ae4:	133fffc4 	addi	r12,r2,-1
      if (len && (base == 16U)) {
    1ae8:	60000326 	beq	r12,zero,1af8 <_ntoa_format+0xc8>
    1aec:	5b400f1e 	bne	r11,r13,1b2c <_ntoa_format+0xfc>
        len--;
    1af0:	10bfff84 	addi	r2,r2,-2
    1af4:	00000206 	br	1b00 <_ntoa_format+0xd0>
    1af8:	0005883a 	mov	r2,zero
      }
    }
    if ((base == 16U) && !(flags & FLAGS_UPPERCASE) && (len < PRINTF_NTOA_BUFFER_SIZE)) {
    1afc:	5b400c1e 	bne	r11,r13,1b30 <_ntoa_format+0x100>
    1b00:	42c0080c 	andi	r11,r8,32
    1b04:	030007c4 	movi	r12,31
    1b08:	5800041e 	bne	r11,zero,1b1c <_ntoa_format+0xec>
    1b0c:	60802836 	bltu	r12,r2,1bb0 <_ntoa_format+0x180>
      buf[len++] = 'x';
    1b10:	1897883a 	add	r11,r3,r2
    1b14:	03001e04 	movi	r12,120
    1b18:	00000b06 	br	1b48 <_ntoa_format+0x118>
    }
    else if ((base == 16U) && (flags & FLAGS_UPPERCASE) && (len < PRINTF_NTOA_BUFFER_SIZE)) {
    1b1c:	60802436 	bltu	r12,r2,1bb0 <_ntoa_format+0x180>
      buf[len++] = 'X';
    1b20:	1897883a 	add	r11,r3,r2
    1b24:	03001604 	movi	r12,88
    1b28:	00000706 	br	1b48 <_ntoa_format+0x118>
    1b2c:	6005883a 	mov	r2,r12
    }
    else if ((base == 2U) && (len < PRINTF_NTOA_BUFFER_SIZE)) {
    1b30:	03000084 	movi	r12,2
    1b34:	5b00061e 	bne	r11,r12,1b50 <_ntoa_format+0x120>
    1b38:	02c007c4 	movi	r11,31
    1b3c:	58801c36 	bltu	r11,r2,1bb0 <_ntoa_format+0x180>
      buf[len++] = 'b';
    1b40:	1897883a 	add	r11,r3,r2
    1b44:	03001884 	movi	r12,98
    1b48:	5b000005 	stb	r12,0(r11)
    1b4c:	10800044 	addi	r2,r2,1
    }
    if (len < PRINTF_NTOA_BUFFER_SIZE) {
    1b50:	02c007c4 	movi	r11,31
    1b54:	58801636 	bltu	r11,r2,1bb0 <_ntoa_format+0x180>
      buf[len++] = '0';
    1b58:	1897883a 	add	r11,r3,r2
    1b5c:	03000c04 	movi	r12,48
    1b60:	5b000005 	stb	r12,0(r11)
    1b64:	10800044 	addi	r2,r2,1
    }
  }

  if (len < PRINTF_NTOA_BUFFER_SIZE) {
    1b68:	02c007c4 	movi	r11,31
    1b6c:	58801036 	bltu	r11,r2,1bb0 <_ntoa_format+0x180>
    if (negative) {
    1b70:	52803fcc 	andi	r10,r10,255
    1b74:	50000326 	beq	r10,zero,1b84 <_ntoa_format+0x154>
      buf[len++] = '-';
    1b78:	1895883a 	add	r10,r3,r2
    1b7c:	02c00b44 	movi	r11,45
    1b80:	00000906 	br	1ba8 <_ntoa_format+0x178>
    }
    else if (flags & FLAGS_PLUS) {
    1b84:	4280010c 	andi	r10,r8,4
    1b88:	50000326 	beq	r10,zero,1b98 <_ntoa_format+0x168>
      buf[len++] = '+';  // ignore the space if the '+' exists
    1b8c:	1895883a 	add	r10,r3,r2
    1b90:	02c00ac4 	movi	r11,43
    1b94:	00000406 	br	1ba8 <_ntoa_format+0x178>
    }
    else if (flags & FLAGS_SPACE) {
    1b98:	4280020c 	andi	r10,r8,8
    1b9c:	50000426 	beq	r10,zero,1bb0 <_ntoa_format+0x180>
      buf[len++] = ' ';
    1ba0:	1895883a 	add	r10,r3,r2
    1ba4:	02c00804 	movi	r11,32
    1ba8:	52c00005 	stb	r11,0(r10)
    1bac:	10800044 	addi	r2,r2,1
    }
  }

  return _out_rev(out, buffer, idx, maxlen, buf, len, width, flags);
    1bb0:	da000415 	stw	r8,16(sp)
    1bb4:	da400315 	stw	r9,12(sp)
    1bb8:	d8800215 	stw	r2,8(sp)
    1bbc:	d8c00115 	stw	r3,4(sp)
}
    1bc0:	dfc00017 	ldw	ra,0(sp)
    1bc4:	dec00104 	addi	sp,sp,4
    else if (flags & FLAGS_SPACE) {
      buf[len++] = ' ';
    }
  }

  return _out_rev(out, buffer, idx, maxlen, buf, len, width, flags);
    1bc8:	000191c1 	jmpi	191c <_out_rev>

00001bcc <_ntoa_long>:
}


// internal itoa for 'long' type
static size_t _ntoa_long(out_fct_type out, char* buffer, size_t idx, size_t maxlen, unsigned long value, bool negative, unsigned long base, unsigned int prec, unsigned int width, unsigned int flags)
{
    1bcc:	deffe404 	addi	sp,sp,-112
    1bd0:	d8c01d17 	ldw	r3,116(sp)
    1bd4:	dc001215 	stw	r16,72(sp)
    1bd8:	dc001c17 	ldw	r16,112(sp)
    1bdc:	dd801815 	stw	r22,96(sp)
    1be0:	dd401715 	stw	r21,92(sp)
    1be4:	dd001615 	stw	r20,88(sp)
    1be8:	dcc01515 	stw	r19,84(sp)
    1bec:	dc801415 	stw	r18,80(sp)
    1bf0:	dfc01b15 	stw	ra,108(sp)
    1bf4:	df001a15 	stw	fp,104(sp)
    1bf8:	ddc01915 	stw	r23,100(sp)
    1bfc:	dc401315 	stw	r17,76(sp)
    1c00:	d8c00f15 	stw	r3,60(sp)
    1c04:	2029883a 	mov	r20,r4
    1c08:	282b883a 	mov	r21,r5
    1c0c:	302d883a 	mov	r22,r6
    1c10:	dcc01e17 	ldw	r19,120(sp)
    1c14:	dc802117 	ldw	r18,132(sp)
  char buf[PRINTF_NTOA_BUFFER_SIZE];
  size_t len = 0U;

  // no hash for 0 values
  if (!value) {
    1c18:	8000021e 	bne	r16,zero,1c24 <_ntoa_long+0x58>
    flags &= ~FLAGS_HASH;
    1c1c:	00bffbc4 	movi	r2,-17
    1c20:	90a4703a 	and	r18,r18,r2
  }

  // write if precision != 0 and value is != 0
  if (!(flags & FLAGS_PRECISION) || value) {
    1c24:	9081000c 	andi	r2,r18,1024
    1c28:	10000126 	beq	r2,zero,1c30 <_ntoa_long+0x64>
    1c2c:	80002726 	beq	r16,zero,1ccc <_ntoa_long+0x100>
    1c30:	9080080c 	andi	r2,r18,32
    1c34:	10000226 	beq	r2,zero,1c40 <_ntoa_long+0x74>
    1c38:	04401044 	movi	r17,65
    1c3c:	00000106 	br	1c44 <_ntoa_long+0x78>
    1c40:	04401844 	movi	r17,97
    do {
      const char digit = (char)(value % base);
      buf[len++] = digit < 10 ? '0' + digit : (flags & FLAGS_UPPERCASE ? 'A' : 'a') + digit - 10;
    1c44:	000d883a 	mov	r6,zero
    1c48:	07000244 	movi	fp,9
    1c4c:	8c7ffd84 	addi	r17,r17,-10
      value /= base;
    } while (value && (len < PRINTF_NTOA_BUFFER_SIZE));
    1c50:	05c00804 	movi	r23,32
  }

  // write if precision != 0 and value is != 0
  if (!(flags & FLAGS_PRECISION) || value) {
    do {
      const char digit = (char)(value % base);
    1c54:	8009883a 	mov	r4,r16
    1c58:	980b883a 	mov	r5,r19
    1c5c:	d9801015 	stw	r6,64(sp)
    1c60:	d9c01115 	stw	r7,68(sp)
    1c64:	0004d640 	call	4d64 <__umodsi3>
    1c68:	d9801017 	ldw	r6,64(sp)
      buf[len++] = digit < 10 ? '0' + digit : (flags & FLAGS_UPPERCASE ? 'A' : 'a') + digit - 10;
    1c6c:	11003fcc 	andi	r4,r2,255
    1c70:	2100201c 	xori	r4,r4,128
    1c74:	213fe004 	addi	r4,r4,-128
    1c78:	32000044 	addi	r8,r6,1
    1c7c:	d9c01117 	ldw	r7,68(sp)
    1c80:	e1000216 	blt	fp,r4,1c8c <_ntoa_long+0xc0>
    1c84:	10800c04 	addi	r2,r2,48
    1c88:	00000106 	br	1c90 <_ntoa_long+0xc4>
    1c8c:	8885883a 	add	r2,r17,r2
    1c90:	d8c00704 	addi	r3,sp,28
    1c94:	198d883a 	add	r6,r3,r6
    1c98:	30800005 	stb	r2,0(r6)
      value /= base;
    1c9c:	8009883a 	mov	r4,r16
    1ca0:	980b883a 	mov	r5,r19
    1ca4:	d9c01115 	stw	r7,68(sp)
    1ca8:	da001015 	stw	r8,64(sp)
    1cac:	0004d000 	call	4d00 <__udivsi3>
    1cb0:	1021883a 	mov	r16,r2
    } while (value && (len < PRINTF_NTOA_BUFFER_SIZE));
    1cb4:	d9c01117 	ldw	r7,68(sp)
    1cb8:	da001017 	ldw	r8,64(sp)
    1cbc:	10000426 	beq	r2,zero,1cd0 <_ntoa_long+0x104>
    1cc0:	400d883a 	mov	r6,r8
    1cc4:	45ffe31e 	bne	r8,r23,1c54 <__ram_exceptions_end+0xfdfffc34>
    1cc8:	00000106 	br	1cd0 <_ntoa_long+0x104>

// internal itoa for 'long' type
static size_t _ntoa_long(out_fct_type out, char* buffer, size_t idx, size_t maxlen, unsigned long value, bool negative, unsigned long base, unsigned int prec, unsigned int width, unsigned int flags)
{
  char buf[PRINTF_NTOA_BUFFER_SIZE];
  size_t len = 0U;
    1ccc:	0011883a 	mov	r8,zero
      buf[len++] = digit < 10 ? '0' + digit : (flags & FLAGS_UPPERCASE ? 'A' : 'a') + digit - 10;
      value /= base;
    } while (value && (len < PRINTF_NTOA_BUFFER_SIZE));
  }

  return _ntoa_format(out, buffer, idx, maxlen, buf, len, negative, (unsigned int)base, prec, width, flags);
    1cd0:	d8802017 	ldw	r2,128(sp)
    1cd4:	d8c00f17 	ldw	r3,60(sp)
    1cd8:	dc800615 	stw	r18,24(sp)
    1cdc:	d8800515 	stw	r2,20(sp)
    1ce0:	d8801f17 	ldw	r2,124(sp)
    1ce4:	1c803fcc 	andi	r18,r3,255
    1ce8:	dcc00315 	stw	r19,12(sp)
    1cec:	d8800415 	stw	r2,16(sp)
    1cf0:	d8800704 	addi	r2,sp,28
    1cf4:	dc800215 	stw	r18,8(sp)
    1cf8:	da000115 	stw	r8,4(sp)
    1cfc:	d8800015 	stw	r2,0(sp)
    1d00:	b00d883a 	mov	r6,r22
    1d04:	a80b883a 	mov	r5,r21
    1d08:	a009883a 	mov	r4,r20
    1d0c:	0001a300 	call	1a30 <_ntoa_format>
}
    1d10:	dfc01b17 	ldw	ra,108(sp)
    1d14:	df001a17 	ldw	fp,104(sp)
    1d18:	ddc01917 	ldw	r23,100(sp)
    1d1c:	dd801817 	ldw	r22,96(sp)
    1d20:	dd401717 	ldw	r21,92(sp)
    1d24:	dd001617 	ldw	r20,88(sp)
    1d28:	dcc01517 	ldw	r19,84(sp)
    1d2c:	dc801417 	ldw	r18,80(sp)
    1d30:	dc401317 	ldw	r17,76(sp)
    1d34:	dc001217 	ldw	r16,72(sp)
    1d38:	dec01c04 	addi	sp,sp,112
    1d3c:	f800283a 	ret

00001d40 <_ntoa_long_long>:


// internal itoa for 'long long' type
#if defined(PRINTF_SUPPORT_LONG_LONG)
static size_t _ntoa_long_long(out_fct_type out, char* buffer, size_t idx, size_t maxlen, unsigned long long value, bool negative, unsigned long long base, unsigned int prec, unsigned int width, unsigned int flags)
{
    1d40:	deffe204 	addi	sp,sp,-120
    1d44:	d8802017 	ldw	r2,128(sp)
    1d48:	da801e17 	ldw	r10,120(sp)
    1d4c:	dac01f17 	ldw	r11,124(sp)
    1d50:	dd801a15 	stw	r22,104(sp)
    1d54:	dd401915 	stw	r21,100(sp)
    1d58:	dd001815 	stw	r20,96(sp)
    1d5c:	dcc01715 	stw	r19,92(sp)
    1d60:	dc801615 	stw	r18,88(sp)
    1d64:	dc401515 	stw	r17,84(sp)
    1d68:	d8801015 	stw	r2,64(sp)
    1d6c:	dfc01d15 	stw	ra,116(sp)
    1d70:	df001c15 	stw	fp,112(sp)
    1d74:	ddc01b15 	stw	r23,108(sp)
    1d78:	dc001415 	stw	r16,80(sp)
    1d7c:	d9000f15 	stw	r4,60(sp)
  char buf[PRINTF_NTOA_BUFFER_SIZE];
  size_t len = 0U;

  // no hash for 0 values
  if (!value) {
    1d80:	52c4b03a 	or	r2,r10,r11


// internal itoa for 'long long' type
#if defined(PRINTF_SUPPORT_LONG_LONG)
static size_t _ntoa_long_long(out_fct_type out, char* buffer, size_t idx, size_t maxlen, unsigned long long value, bool negative, unsigned long long base, unsigned int prec, unsigned int width, unsigned int flags)
{
    1d84:	2829883a 	mov	r20,r5
    1d88:	302b883a 	mov	r21,r6
    1d8c:	382d883a 	mov	r22,r7
    1d90:	dc402117 	ldw	r17,132(sp)
    1d94:	dc802217 	ldw	r18,136(sp)
    1d98:	dcc02517 	ldw	r19,148(sp)
  char buf[PRINTF_NTOA_BUFFER_SIZE];
  size_t len = 0U;

  // no hash for 0 values
  if (!value) {
    1d9c:	1000021e 	bne	r2,zero,1da8 <_ntoa_long_long+0x68>
    flags &= ~FLAGS_HASH;
    1da0:	00fffbc4 	movi	r3,-17
    1da4:	98e6703a 	and	r19,r19,r3
  }

  // write if precision != 0 and value is != 0
  if (!(flags & FLAGS_PRECISION) || value) {
    1da8:	98c1000c 	andi	r3,r19,1024
    1dac:	18000126 	beq	r3,zero,1db4 <_ntoa_long_long+0x74>
    1db0:	10002d26 	beq	r2,zero,1e68 <_ntoa_long_long+0x128>
    1db4:	9880080c 	andi	r2,r19,32
    1db8:	10000226 	beq	r2,zero,1dc4 <_ntoa_long_long+0x84>
    1dbc:	04001044 	movi	r16,65
    1dc0:	00000106 	br	1dc8 <_ntoa_long_long+0x88>
    1dc4:	04001844 	movi	r16,97
    do {
      const char digit = (char)(value % base);
      buf[len++] = digit < 10 ? '0' + digit : (flags & FLAGS_UPPERCASE ? 'A' : 'a') + digit - 10;
    1dc8:	0013883a 	mov	r9,zero
    1dcc:	07000244 	movi	fp,9
    1dd0:	843ffd84 	addi	r16,r16,-10
      value /= base;
    } while (value && (len < PRINTF_NTOA_BUFFER_SIZE));
    1dd4:	05c00804 	movi	r23,32
  }

  // write if precision != 0 and value is != 0
  if (!(flags & FLAGS_PRECISION) || value) {
    do {
      const char digit = (char)(value % base);
    1dd8:	5009883a 	mov	r4,r10
    1ddc:	580b883a 	mov	r5,r11
    1de0:	880d883a 	mov	r6,r17
    1de4:	900f883a 	mov	r7,r18
    1de8:	da401115 	stw	r9,68(sp)
    1dec:	da801215 	stw	r10,72(sp)
    1df0:	dac01315 	stw	r11,76(sp)
    1df4:	00046440 	call	4644 <__umoddi3>
    1df8:	da401117 	ldw	r9,68(sp)
      buf[len++] = digit < 10 ? '0' + digit : (flags & FLAGS_UPPERCASE ? 'A' : 'a') + digit - 10;
    1dfc:	10c03fcc 	andi	r3,r2,255
    1e00:	18c0201c 	xori	r3,r3,128
    1e04:	18ffe004 	addi	r3,r3,-128
    1e08:	4b000044 	addi	r12,r9,1
    1e0c:	da801217 	ldw	r10,72(sp)
    1e10:	dac01317 	ldw	r11,76(sp)
    1e14:	e0c00216 	blt	fp,r3,1e20 <_ntoa_long_long+0xe0>
    1e18:	10800c04 	addi	r2,r2,48
    1e1c:	00000106 	br	1e24 <_ntoa_long_long+0xe4>
    1e20:	8085883a 	add	r2,r16,r2
    1e24:	d8c00704 	addi	r3,sp,28
    1e28:	1a53883a 	add	r9,r3,r9
    1e2c:	48800005 	stb	r2,0(r9)
      value /= base;
    1e30:	5009883a 	mov	r4,r10
    1e34:	580b883a 	mov	r5,r11
    1e38:	880d883a 	mov	r6,r17
    1e3c:	900f883a 	mov	r7,r18
    1e40:	db001115 	stw	r12,68(sp)
    1e44:	00040480 	call	4048 <__udivdi3>
    1e48:	1015883a 	mov	r10,r2
    } while (value && (len < PRINTF_NTOA_BUFFER_SIZE));
    1e4c:	10c4b03a 	or	r2,r2,r3
  // write if precision != 0 and value is != 0
  if (!(flags & FLAGS_PRECISION) || value) {
    do {
      const char digit = (char)(value % base);
      buf[len++] = digit < 10 ? '0' + digit : (flags & FLAGS_UPPERCASE ? 'A' : 'a') + digit - 10;
      value /= base;
    1e50:	1817883a 	mov	r11,r3
    } while (value && (len < PRINTF_NTOA_BUFFER_SIZE));
    1e54:	db001117 	ldw	r12,68(sp)
    1e58:	10000426 	beq	r2,zero,1e6c <_ntoa_long_long+0x12c>
    1e5c:	6013883a 	mov	r9,r12
    1e60:	65ffdd1e 	bne	r12,r23,1dd8 <__ram_exceptions_end+0xfdfffdb8>
    1e64:	00000106 	br	1e6c <_ntoa_long_long+0x12c>
// internal itoa for 'long long' type
#if defined(PRINTF_SUPPORT_LONG_LONG)
static size_t _ntoa_long_long(out_fct_type out, char* buffer, size_t idx, size_t maxlen, unsigned long long value, bool negative, unsigned long long base, unsigned int prec, unsigned int width, unsigned int flags)
{
  char buf[PRINTF_NTOA_BUFFER_SIZE];
  size_t len = 0U;
    1e68:	0019883a 	mov	r12,zero
      buf[len++] = digit < 10 ? '0' + digit : (flags & FLAGS_UPPERCASE ? 'A' : 'a') + digit - 10;
      value /= base;
    } while (value && (len < PRINTF_NTOA_BUFFER_SIZE));
  }

  return _ntoa_format(out, buffer, idx, maxlen, buf, len, negative, (unsigned int)base, prec, width, flags);
    1e6c:	d8802417 	ldw	r2,144(sp)
    1e70:	d9000f17 	ldw	r4,60(sp)
    1e74:	dc400315 	stw	r17,12(sp)
    1e78:	d8800515 	stw	r2,20(sp)
    1e7c:	d8802317 	ldw	r2,140(sp)
    1e80:	d8c00704 	addi	r3,sp,28
    1e84:	dcc00615 	stw	r19,24(sp)
    1e88:	d8800415 	stw	r2,16(sp)
    1e8c:	d8801017 	ldw	r2,64(sp)
    1e90:	db000115 	stw	r12,4(sp)
    1e94:	d8c00015 	stw	r3,0(sp)
    1e98:	14403fcc 	andi	r17,r2,255
    1e9c:	dc400215 	stw	r17,8(sp)
    1ea0:	b00f883a 	mov	r7,r22
    1ea4:	a80d883a 	mov	r6,r21
    1ea8:	a00b883a 	mov	r5,r20
    1eac:	0001a300 	call	1a30 <_ntoa_format>
}
    1eb0:	dfc01d17 	ldw	ra,116(sp)
    1eb4:	df001c17 	ldw	fp,112(sp)
    1eb8:	ddc01b17 	ldw	r23,108(sp)
    1ebc:	dd801a17 	ldw	r22,104(sp)
    1ec0:	dd401917 	ldw	r21,100(sp)
    1ec4:	dd001817 	ldw	r20,96(sp)
    1ec8:	dcc01717 	ldw	r19,92(sp)
    1ecc:	dc801617 	ldw	r18,88(sp)
    1ed0:	dc401517 	ldw	r17,84(sp)
    1ed4:	dc001417 	ldw	r16,80(sp)
    1ed8:	dec01e04 	addi	sp,sp,120
    1edc:	f800283a 	ret

00001ee0 <_out_char>:

// internal _putchar wrapper
static inline void _out_char(char character, void* buffer, size_t idx, size_t maxlen)
{
  (void)buffer; (void)idx; (void)maxlen;
  if (character) {
    1ee0:	21003fcc 	andi	r4,r4,255
    1ee4:	2100201c 	xori	r4,r4,128
    1ee8:	213fe004 	addi	r4,r4,-128
    1eec:	20000126 	beq	r4,zero,1ef4 <_out_char+0x14>
    _putchar(character);
    1ef0:	000003c1 	jmpi	3c <_putchar>
    1ef4:	f800283a 	ret

00001ef8 <_out_fct>:

// internal output function wrapper
static inline void _out_fct(char character, void* buffer, size_t idx, size_t maxlen)
{
  (void)idx; (void)maxlen;
  if (character) {
    1ef8:	21003fcc 	andi	r4,r4,255
    1efc:	2100201c 	xori	r4,r4,128
    1f00:	213fe004 	addi	r4,r4,-128
    1f04:	20000326 	beq	r4,zero,1f14 <_out_fct+0x1c>
    // buffer is the output fct pointer
    ((out_fct_wrap_type*)buffer)->fct(character, ((out_fct_wrap_type*)buffer)->arg);
    1f08:	28800017 	ldw	r2,0(r5)
    1f0c:	29400117 	ldw	r5,4(r5)
    1f10:	1000683a 	jmp	r2
    1f14:	f800283a 	ret

00001f18 <_ftoa>:
#endif


// internal ftoa for fixed decimal floating point
static size_t _ftoa(out_fct_type out, char* buffer, size_t idx, size_t maxlen, double value, unsigned int prec, unsigned int width, unsigned int flags)
{
    1f18:	deffe104 	addi	sp,sp,-124
    1f1c:	dc401615 	stw	r17,88(sp)
    1f20:	dc001515 	stw	r16,84(sp)
    1f24:	dc401f17 	ldw	r17,124(sp)
    1f28:	dc002017 	ldw	r16,128(sp)
    1f2c:	df001d15 	stw	fp,116(sp)
    1f30:	d9000d15 	stw	r4,52(sp)
    1f34:	d9400e15 	stw	r5,56(sp)
    1f38:	d9800f15 	stw	r6,60(sp)
    1f3c:	3839883a 	mov	fp,r7

  // powers of 10
  static const double pow10[] = { 1, 10, 100, 1000, 10000, 100000, 1000000, 10000000, 100000000, 1000000000 };

  // test for special values
  if (value != value)
    1f40:	880d883a 	mov	r6,r17
    1f44:	800f883a 	mov	r7,r16
    1f48:	8809883a 	mov	r4,r17
    1f4c:	800b883a 	mov	r5,r16
#endif


// internal ftoa for fixed decimal floating point
static size_t _ftoa(out_fct_type out, char* buffer, size_t idx, size_t maxlen, double value, unsigned int prec, unsigned int width, unsigned int flags)
{
    1f50:	dd801b15 	stw	r22,108(sp)
    1f54:	dd001915 	stw	r20,100(sp)
    1f58:	dc801715 	stw	r18,92(sp)
    1f5c:	dfc01e15 	stw	ra,120(sp)
    1f60:	ddc01c15 	stw	r23,112(sp)
    1f64:	dd401a15 	stw	r21,104(sp)
    1f68:	dcc01815 	stw	r19,96(sp)
    1f6c:	dc802117 	ldw	r18,132(sp)
    1f70:	dd802217 	ldw	r22,136(sp)
    1f74:	dd002317 	ldw	r20,140(sp)

  // powers of 10
  static const double pow10[] = { 1, 10, 100, 1000, 10000, 100000, 1000000, 10000000, 100000000, 1000000000 };

  // test for special values
  if (value != value)
    1f78:	00076fc0 	call	76fc <__eqdf2>
    1f7c:	10000726 	beq	r2,zero,1f9c <_ftoa+0x84>
    return _out_rev(out, buffer, idx, maxlen, "nan", 3, width, flags);
    1f80:	008000c4 	movi	r2,3
    1f84:	d8800115 	stw	r2,4(sp)
    1f88:	00800074 	movhi	r2,1
    1f8c:	dd000315 	stw	r20,12(sp)
    1f90:	dd800215 	stw	r22,8(sp)
    1f94:	10a48104 	addi	r2,r2,-28156
    1f98:	00002106 	br	2020 <_ftoa+0x108>
  if (value < -DBL_MAX)
    1f9c:	01bfffc4 	movi	r6,-1
    1fa0:	01fffc34 	movhi	r7,65520
    1fa4:	398f883a 	add	r7,r7,r6
    1fa8:	8809883a 	mov	r4,r17
    1fac:	800b883a 	mov	r5,r16
    1fb0:	00078600 	call	7860 <__ledf2>
    1fb4:	1000070e 	bge	r2,zero,1fd4 <_ftoa+0xbc>
    return _out_rev(out, buffer, idx, maxlen, "fni-", 4, width, flags);
    1fb8:	00800104 	movi	r2,4
    1fbc:	d8800115 	stw	r2,4(sp)
    1fc0:	00800074 	movhi	r2,1
    1fc4:	dd000315 	stw	r20,12(sp)
    1fc8:	dd800215 	stw	r22,8(sp)
    1fcc:	10a48204 	addi	r2,r2,-28152
    1fd0:	00001306 	br	2020 <_ftoa+0x108>
  if (value > DBL_MAX)
    1fd4:	01bfffc4 	movi	r6,-1
    1fd8:	01dffc34 	movhi	r7,32752
    1fdc:	398f883a 	add	r7,r7,r6
    1fe0:	8809883a 	mov	r4,r17
    1fe4:	800b883a 	mov	r5,r16
    1fe8:	00077840 	call	7784 <__gedf2>
    1fec:	00800e0e 	bge	zero,r2,2028 <_ftoa+0x110>
    return _out_rev(out, buffer, idx, maxlen, (flags & FLAGS_PLUS) ? "fni+" : "fni", (flags & FLAGS_PLUS) ? 4U : 3U, width, flags);
    1ff0:	a080010c 	andi	r2,r20,4
    1ff4:	10000426 	beq	r2,zero,2008 <_ftoa+0xf0>
    1ff8:	00800074 	movhi	r2,1
    1ffc:	10a47e04 	addi	r2,r2,-28168
    2000:	00c00104 	movi	r3,4
    2004:	00000306 	br	2014 <_ftoa+0xfc>
    2008:	00800074 	movhi	r2,1
    200c:	10a48004 	addi	r2,r2,-28160
    2010:	00c000c4 	movi	r3,3
    2014:	dd000315 	stw	r20,12(sp)
    2018:	dd800215 	stw	r22,8(sp)
    201c:	d8c00115 	stw	r3,4(sp)
    2020:	d8800015 	stw	r2,0(sp)
    2024:	0000f806 	br	2408 <_ftoa+0x4f0>

  // test for very large values
  // standard printf behavior is to print EVERY whole number digit -- which could be 100s of characters overflowing your buffers == bad
  if ((value > PRINTF_MAX_FLOAT) || (value < -PRINTF_MAX_FLOAT)) {
    2028:	01d073b4 	movhi	r7,16846
    202c:	000d883a 	mov	r6,zero
    2030:	39f35944 	addi	r7,r7,-12955
    2034:	8809883a 	mov	r4,r17
    2038:	800b883a 	mov	r5,r16
    203c:	00077840 	call	7784 <__gedf2>
    2040:	00800716 	blt	zero,r2,2060 <_ftoa+0x148>
    2044:	01f073b4 	movhi	r7,49614
    2048:	000d883a 	mov	r6,zero
    204c:	39f35944 	addi	r7,r7,-12955
    2050:	8809883a 	mov	r4,r17
    2054:	800b883a 	mov	r5,r16
    2058:	00078600 	call	7860 <__ledf2>
    205c:	10000b0e 	bge	r2,zero,208c <_ftoa+0x174>
#if defined(PRINTF_SUPPORT_EXPONENTIAL)
    return _etoa(out, buffer, idx, maxlen, value, prec, width, flags);
    2060:	d9800f17 	ldw	r6,60(sp)
    2064:	d9400e17 	ldw	r5,56(sp)
    2068:	d9000d17 	ldw	r4,52(sp)
    206c:	dd000415 	stw	r20,16(sp)
    2070:	dd800315 	stw	r22,12(sp)
    2074:	dc800215 	stw	r18,8(sp)
    2078:	dc400015 	stw	r17,0(sp)
    207c:	dc000115 	stw	r16,4(sp)
    2080:	e00f883a 	mov	r7,fp
    2084:	000244c0 	call	244c <_etoa>
    2088:	0000e406 	br	241c <_ftoa+0x504>
#endif
  }

  // test for negative
  bool negative = false;
  if (value < 0) {
    208c:	000d883a 	mov	r6,zero
    2090:	000f883a 	mov	r7,zero
    2094:	8809883a 	mov	r4,r17
    2098:	800b883a 	mov	r5,r16
    209c:	00078600 	call	7860 <__ledf2>
    20a0:	10000a0e 	bge	r2,zero,20cc <_ftoa+0x1b4>
    negative = true;
    value = 0 - value;
    20a4:	880d883a 	mov	r6,r17
    20a8:	800f883a 	mov	r7,r16
    20ac:	0009883a 	mov	r4,zero
    20b0:	000b883a 	mov	r5,zero
    20b4:	00081c00 	call	81c0 <__subdf3>
    20b8:	1023883a 	mov	r17,r2
  }

  // test for negative
  bool negative = false;
  if (value < 0) {
    negative = true;
    20bc:	00800044 	movi	r2,1
    value = 0 - value;
    20c0:	1821883a 	mov	r16,r3
  }

  // test for negative
  bool negative = false;
  if (value < 0) {
    negative = true;
    20c4:	d8801005 	stb	r2,64(sp)
    20c8:	00000106 	br	20d0 <_ftoa+0x1b8>
    return 0U;
#endif
  }

  // test for negative
  bool negative = false;
    20cc:	d8001005 	stb	zero,64(sp)
    negative = true;
    value = 0 - value;
  }

  // set default precision, if not set explicitly
  if (!(flags & FLAGS_PRECISION)) {
    20d0:	a081000c 	andi	r2,r20,1024
    20d4:	1000011e 	bne	r2,zero,20dc <_ftoa+0x1c4>
    prec = PRINTF_DEFAULT_FLOAT_PRECISION;
    20d8:	04800184 	movi	r18,6
    20dc:	002b883a 	mov	r21,zero
  }
  // limit precision to 9, cause a prec >= 10 can lead to overflow errors
  while ((len < PRINTF_FTOA_BUFFER_SIZE) && (prec > 9U)) {
    20e0:	00800244 	movi	r2,9
    buf[len++] = '0';
    20e4:	00c00c04 	movi	r3,48
  // set default precision, if not set explicitly
  if (!(flags & FLAGS_PRECISION)) {
    prec = PRINTF_DEFAULT_FLOAT_PRECISION;
  }
  // limit precision to 9, cause a prec >= 10 can lead to overflow errors
  while ((len < PRINTF_FTOA_BUFFER_SIZE) && (prec > 9U)) {
    20e8:	01000804 	movi	r4,32
    20ec:	1480062e 	bgeu	r2,r18,2108 <_ftoa+0x1f0>
    buf[len++] = '0';
    20f0:	d9800504 	addi	r6,sp,20
    20f4:	354b883a 	add	r5,r6,r21
    20f8:	28c00005 	stb	r3,0(r5)
    20fc:	ad400044 	addi	r21,r21,1
    prec--;
    2100:	94bfffc4 	addi	r18,r18,-1
  // set default precision, if not set explicitly
  if (!(flags & FLAGS_PRECISION)) {
    prec = PRINTF_DEFAULT_FLOAT_PRECISION;
  }
  // limit precision to 9, cause a prec >= 10 can lead to overflow errors
  while ((len < PRINTF_FTOA_BUFFER_SIZE) && (prec > 9U)) {
    2104:	a93ff91e 	bne	r21,r4,20ec <__ram_exceptions_end+0xfe0000cc>
    buf[len++] = '0';
    prec--;
  }

  int whole = (int)value;
    2108:	800b883a 	mov	r5,r16
    210c:	8809883a 	mov	r4,r17
    2110:	0008abc0 	call	8abc <__fixdfsi>
    2114:	1027883a 	mov	r19,r2
  double tmp = (value - whole) * pow10[prec];
    2118:	900490fa 	slli	r2,r18,3
    211c:	00c00074 	movhi	r3,1
    2120:	18e48404 	addi	r3,r3,-28144
    2124:	1885883a 	add	r2,r3,r2
    2128:	10c00017 	ldw	r3,0(r2)
    212c:	10800117 	ldw	r2,4(r2)
    2130:	9809883a 	mov	r4,r19
    2134:	d8c01115 	stw	r3,68(sp)
    2138:	d8801215 	stw	r2,72(sp)
    213c:	0008b3c0 	call	8b3c <__floatsidf>
    2140:	100d883a 	mov	r6,r2
    2144:	180f883a 	mov	r7,r3
    2148:	8809883a 	mov	r4,r17
    214c:	800b883a 	mov	r5,r16
    2150:	00081c00 	call	81c0 <__subdf3>
    2154:	d9801117 	ldw	r6,68(sp)
    2158:	d9c01217 	ldw	r7,72(sp)
    215c:	1009883a 	mov	r4,r2
    2160:	180b883a 	mov	r5,r3
    2164:	00079540 	call	7954 <__muldf3>
  unsigned long frac = (unsigned long)tmp;
    2168:	180b883a 	mov	r5,r3
    216c:	1009883a 	mov	r4,r2
    2170:	d8c01415 	stw	r3,80(sp)
    2174:	d8801315 	stw	r2,76(sp)
    2178:	0003fd40 	call	3fd4 <__fixunsdfsi>
  diff = tmp - frac;
    217c:	1009883a 	mov	r4,r2
    prec--;
  }

  int whole = (int)value;
  double tmp = (value - whole) * pow10[prec];
  unsigned long frac = (unsigned long)tmp;
    2180:	102f883a 	mov	r23,r2
  diff = tmp - frac;
    2184:	0008c180 	call	8c18 <__floatunsidf>
    2188:	da401417 	ldw	r9,80(sp)
    218c:	da801317 	ldw	r10,76(sp)
    2190:	100d883a 	mov	r6,r2
    2194:	480b883a 	mov	r5,r9
    2198:	5009883a 	mov	r4,r10
    219c:	180f883a 	mov	r7,r3
    21a0:	00081c00 	call	81c0 <__subdf3>

  if (diff > 0.5) {
    21a4:	180b883a 	mov	r5,r3
    21a8:	000d883a 	mov	r6,zero
    21ac:	01cff834 	movhi	r7,16352
    21b0:	1009883a 	mov	r4,r2
    21b4:	d8c01315 	stw	r3,76(sp)
    21b8:	d8801415 	stw	r2,80(sp)
    21bc:	00077840 	call	7784 <__gedf2>
    21c0:	d8c01317 	ldw	r3,76(sp)
    21c4:	da401417 	ldw	r9,80(sp)
    21c8:	00800c0e 	bge	zero,r2,21fc <_ftoa+0x2e4>
    ++frac;
    21cc:	bdc00044 	addi	r23,r23,1
    // handle rollover, e.g. case 0.99 with prec 1 is 1.0
    if (frac >= pow10[prec]) {
    21d0:	b809883a 	mov	r4,r23
    21d4:	0008c180 	call	8c18 <__floatunsidf>
    21d8:	d9001117 	ldw	r4,68(sp)
    21dc:	d9401217 	ldw	r5,72(sp)
    21e0:	100d883a 	mov	r6,r2
    21e4:	180f883a 	mov	r7,r3
    21e8:	00078600 	call	7860 <__ledf2>
    21ec:	00800d16 	blt	zero,r2,2224 <_ftoa+0x30c>
      frac = 0;
      ++whole;
    21f0:	9cc00044 	addi	r19,r19,1

  if (diff > 0.5) {
    ++frac;
    // handle rollover, e.g. case 0.99 with prec 1 is 1.0
    if (frac >= pow10[prec]) {
      frac = 0;
    21f4:	002f883a 	mov	r23,zero
    21f8:	00000a06 	br	2224 <_ftoa+0x30c>
      ++whole;
    }
  }
  else if (diff < 0.5) {
    21fc:	000d883a 	mov	r6,zero
    2200:	01cff834 	movhi	r7,16352
    2204:	4809883a 	mov	r4,r9
    2208:	180b883a 	mov	r5,r3
    220c:	00078600 	call	7860 <__ledf2>
    2210:	10000416 	blt	r2,zero,2224 <_ftoa+0x30c>
  }
  else if ((frac == 0U) || (frac & 1U)) {
    2214:	b8000226 	beq	r23,zero,2220 <_ftoa+0x308>
    2218:	b880004c 	andi	r2,r23,1
    221c:	10000126 	beq	r2,zero,2224 <_ftoa+0x30c>
    // if halfway, round up if odd OR if last digit is 0
    ++frac;
    2220:	bdc00044 	addi	r23,r23,1
  }

  if (prec == 0U) {
    2224:	9000191e 	bne	r18,zero,228c <_ftoa+0x374>
    diff = value - (double)whole;
    2228:	9809883a 	mov	r4,r19
    222c:	0008b3c0 	call	8b3c <__floatsidf>
    2230:	8809883a 	mov	r4,r17
    2234:	800b883a 	mov	r5,r16
    2238:	100d883a 	mov	r6,r2
    223c:	180f883a 	mov	r7,r3
    2240:	00081c00 	call	81c0 <__subdf3>
    if ((!(diff < 0.5) || (diff > 0.5)) && (whole & 1)) {
    2244:	000d883a 	mov	r6,zero
    2248:	01cff834 	movhi	r7,16352
    224c:	1009883a 	mov	r4,r2
    2250:	180b883a 	mov	r5,r3
    // if halfway, round up if odd OR if last digit is 0
    ++frac;
  }

  if (prec == 0U) {
    diff = value - (double)whole;
    2254:	1023883a 	mov	r17,r2
    2258:	1821883a 	mov	r16,r3
    if ((!(diff < 0.5) || (diff > 0.5)) && (whole & 1)) {
    225c:	00078600 	call	7860 <__ledf2>
    2260:	1000060e 	bge	r2,zero,227c <_ftoa+0x364>
    2264:	000d883a 	mov	r6,zero
    2268:	01cff834 	movhi	r7,16352
    226c:	8809883a 	mov	r4,r17
    2270:	800b883a 	mov	r5,r16
    2274:	00077840 	call	7784 <__gedf2>
    2278:	0080240e 	bge	zero,r2,230c <_ftoa+0x3f4>
    227c:	9880004c 	andi	r2,r19,1
    2280:	10002226 	beq	r2,zero,230c <_ftoa+0x3f4>
      // exactly 0.5 and ODD, then round up
      // 1.5 -> 2, but 2.5 -> 2
      ++whole;
    2284:	9cc00044 	addi	r19,r19,1
    2288:	00002006 	br	230c <_ftoa+0x3f4>
  else if ((frac == 0U) || (frac & 1U)) {
    // if halfway, round up if odd OR if last digit is 0
    ++frac;
  }

  if (prec == 0U) {
    228c:	a805883a 	mov	r2,r21
    }
  }
  else {
    unsigned int count = prec;
    // now do fractional part, as an unsigned number
    while (len < PRINTF_FTOA_BUFFER_SIZE) {
    2290:	04400804 	movi	r17,32
    2294:	14402f26 	beq	r2,r17,2354 <_ftoa+0x43c>
      --count;
      buf[len++] = (char)(48U + (frac % 10U));
    2298:	d9000504 	addi	r4,sp,20
    229c:	20a1883a 	add	r16,r4,r2
    22a0:	01400284 	movi	r5,10
    22a4:	b809883a 	mov	r4,r23
    22a8:	15400044 	addi	r21,r2,1
    22ac:	0004d640 	call	4d64 <__umodsi3>
    22b0:	10800c04 	addi	r2,r2,48
      if (!(frac /= 10U)) {
    22b4:	b809883a 	mov	r4,r23
  else {
    unsigned int count = prec;
    // now do fractional part, as an unsigned number
    while (len < PRINTF_FTOA_BUFFER_SIZE) {
      --count;
      buf[len++] = (char)(48U + (frac % 10U));
    22b8:	80800005 	stb	r2,0(r16)
      if (!(frac /= 10U)) {
    22bc:	01400284 	movi	r5,10
    22c0:	0004d000 	call	4d00 <__udivsi3>
    22c4:	102f883a 	mov	r23,r2
  }
  else {
    unsigned int count = prec;
    // now do fractional part, as an unsigned number
    while (len < PRINTF_FTOA_BUFFER_SIZE) {
      --count;
    22c8:	94bfffc4 	addi	r18,r18,-1
      buf[len++] = (char)(48U + (frac % 10U));
    22cc:	a805883a 	mov	r2,r21
      if (!(frac /= 10U)) {
    22d0:	b83ff01e 	bne	r23,zero,2294 <__ram_exceptions_end+0xfe000274>
    22d4:	9565883a 	add	r18,r18,r21
        break;
      }
    }
    // add extra 0s
    while ((len < PRINTF_FTOA_BUFFER_SIZE) && (count-- > 0U)) {
    22d8:	01400804 	movi	r5,32
      buf[len++] = '0';
    22dc:	01800c04 	movi	r6,48
      if (!(frac /= 10U)) {
        break;
      }
    }
    // add extra 0s
    while ((len < PRINTF_FTOA_BUFFER_SIZE) && (count-- > 0U)) {
    22e0:	11401c26 	beq	r2,r5,2354 <_ftoa+0x43c>
    22e4:	d9000504 	addi	r4,sp,20
    22e8:	2087883a 	add	r3,r4,r2
    22ec:	11000044 	addi	r4,r2,1
    22f0:	14800326 	beq	r2,r18,2300 <_ftoa+0x3e8>
      buf[len++] = '0';
    22f4:	19800005 	stb	r6,0(r3)
    22f8:	2005883a 	mov	r2,r4
    22fc:	003ff806 	br	22e0 <__ram_exceptions_end+0xfe0002c0>
    }
    if (len < PRINTF_FTOA_BUFFER_SIZE) {
      // add decimal
      buf[len++] = '.';
    2300:	00800b84 	movi	r2,46
    2304:	202b883a 	mov	r21,r4
    2308:	18800005 	stb	r2,0(r3)
  else {
    unsigned int count = prec;
    // now do fractional part, as an unsigned number
    while (len < PRINTF_FTOA_BUFFER_SIZE) {
      --count;
      buf[len++] = (char)(48U + (frac % 10U));
    230c:	a805883a 	mov	r2,r21
      buf[len++] = '.';
    }
  }

  // do whole part, number is reversed
  while (len < PRINTF_FTOA_BUFFER_SIZE) {
    2310:	04800804 	movi	r18,32
    2314:	14800f26 	beq	r2,r18,2354 <_ftoa+0x43c>
    buf[len++] = (char)(48 + (whole % 10));
    2318:	d9400504 	addi	r5,sp,20
    231c:	28a3883a 	add	r17,r5,r2
    2320:	9809883a 	mov	r4,r19
    2324:	01400284 	movi	r5,10
    2328:	14000044 	addi	r16,r2,1
    232c:	0004c8c0 	call	4c8c <__modsi3>
    2330:	10800c04 	addi	r2,r2,48
    if (!(whole /= 10)) {
    2334:	9809883a 	mov	r4,r19
    }
  }

  // do whole part, number is reversed
  while (len < PRINTF_FTOA_BUFFER_SIZE) {
    buf[len++] = (char)(48 + (whole % 10));
    2338:	88800005 	stb	r2,0(r17)
    if (!(whole /= 10)) {
    233c:	01400284 	movi	r5,10
    2340:	0004c080 	call	4c08 <__divsi3>
    2344:	1027883a 	mov	r19,r2
    }
  }

  // do whole part, number is reversed
  while (len < PRINTF_FTOA_BUFFER_SIZE) {
    buf[len++] = (char)(48 + (whole % 10));
    2348:	8005883a 	mov	r2,r16
    if (!(whole /= 10)) {
    234c:	983ff11e 	bne	r19,zero,2314 <__ram_exceptions_end+0xfe0002f4>
    2350:	00000106 	br	2358 <_ftoa+0x440>
  else {
    unsigned int count = prec;
    // now do fractional part, as an unsigned number
    while (len < PRINTF_FTOA_BUFFER_SIZE) {
      --count;
      buf[len++] = (char)(48U + (frac % 10U));
    2354:	04000804 	movi	r16,32
      break;
    }
  }

  // pad leading zeros
  if (!(flags & FLAGS_LEFT) && (flags & FLAGS_ZEROPAD)) {
    2358:	a0c000cc 	andi	r3,r20,3
    235c:	00800044 	movi	r2,1
    2360:	18800f1e 	bne	r3,r2,23a0 <_ftoa+0x488>
    if (width && (negative || (flags & (FLAGS_PLUS | FLAGS_SPACE)))) {
    2364:	b0000e26 	beq	r22,zero,23a0 <_ftoa+0x488>
    2368:	d8801003 	ldbu	r2,64(sp)
    236c:	1000021e 	bne	r2,zero,2378 <_ftoa+0x460>
    2370:	a080030c 	andi	r2,r20,12
    2374:	10000126 	beq	r2,zero,237c <_ftoa+0x464>
      width--;
    2378:	b5bfffc4 	addi	r22,r22,-1
    }
    while ((len < width) && (len < PRINTF_FTOA_BUFFER_SIZE)) {
    237c:	00800804 	movi	r2,32
      buf[len++] = '0';
    2380:	00c00c04 	movi	r3,48
  // pad leading zeros
  if (!(flags & FLAGS_LEFT) && (flags & FLAGS_ZEROPAD)) {
    if (width && (negative || (flags & (FLAGS_PLUS | FLAGS_SPACE)))) {
      width--;
    }
    while ((len < width) && (len < PRINTF_FTOA_BUFFER_SIZE)) {
    2384:	8580062e 	bgeu	r16,r22,23a0 <_ftoa+0x488>
    2388:	80801a26 	beq	r16,r2,23f4 <_ftoa+0x4dc>
      buf[len++] = '0';
    238c:	d9800504 	addi	r6,sp,20
    2390:	3409883a 	add	r4,r6,r16
    2394:	20c00005 	stb	r3,0(r4)
    2398:	84000044 	addi	r16,r16,1
    239c:	003ff906 	br	2384 <__ram_exceptions_end+0xfe000364>
    }
  }

  if (len < PRINTF_FTOA_BUFFER_SIZE) {
    23a0:	008007c4 	movi	r2,31
    23a4:	14001336 	bltu	r2,r16,23f4 <_ftoa+0x4dc>
    if (negative) {
    23a8:	d8801003 	ldbu	r2,64(sp)
    23ac:	10000426 	beq	r2,zero,23c0 <_ftoa+0x4a8>
      buf[len++] = '-';
    23b0:	d8c00504 	addi	r3,sp,20
    23b4:	1c05883a 	add	r2,r3,r16
    23b8:	00c00b44 	movi	r3,45
    23bc:	00000b06 	br	23ec <_ftoa+0x4d4>
    }
    else if (flags & FLAGS_PLUS) {
    23c0:	a080010c 	andi	r2,r20,4
    23c4:	10000426 	beq	r2,zero,23d8 <_ftoa+0x4c0>
      buf[len++] = '+';  // ignore the space if the '+' exists
    23c8:	d9000504 	addi	r4,sp,20
    23cc:	2405883a 	add	r2,r4,r16
    23d0:	00c00ac4 	movi	r3,43
    23d4:	00000506 	br	23ec <_ftoa+0x4d4>
    }
    else if (flags & FLAGS_SPACE) {
    23d8:	a080020c 	andi	r2,r20,8
    23dc:	10000526 	beq	r2,zero,23f4 <_ftoa+0x4dc>
      buf[len++] = ' ';
    23e0:	d9400504 	addi	r5,sp,20
    23e4:	2c05883a 	add	r2,r5,r16
    23e8:	00c00804 	movi	r3,32
    23ec:	10c00005 	stb	r3,0(r2)
    23f0:	84000044 	addi	r16,r16,1
    }
  }

  return _out_rev(out, buffer, idx, maxlen, buf, len, width, flags);
    23f4:	d9800504 	addi	r6,sp,20
    23f8:	dd000315 	stw	r20,12(sp)
    23fc:	dd800215 	stw	r22,8(sp)
    2400:	dc000115 	stw	r16,4(sp)
    2404:	d9800015 	stw	r6,0(sp)
    2408:	d9800f17 	ldw	r6,60(sp)
    240c:	d9400e17 	ldw	r5,56(sp)
    2410:	d9000d17 	ldw	r4,52(sp)
    2414:	e00f883a 	mov	r7,fp
    2418:	000191c0 	call	191c <_out_rev>
}
    241c:	dfc01e17 	ldw	ra,120(sp)
    2420:	df001d17 	ldw	fp,116(sp)
    2424:	ddc01c17 	ldw	r23,112(sp)
    2428:	dd801b17 	ldw	r22,108(sp)
    242c:	dd401a17 	ldw	r21,104(sp)
    2430:	dd001917 	ldw	r20,100(sp)
    2434:	dcc01817 	ldw	r19,96(sp)
    2438:	dc801717 	ldw	r18,92(sp)
    243c:	dc401617 	ldw	r17,88(sp)
    2440:	dc001517 	ldw	r16,84(sp)
    2444:	dec01f04 	addi	sp,sp,124
    2448:	f800283a 	ret

0000244c <_etoa>:


#if defined(PRINTF_SUPPORT_EXPONENTIAL)
// internal ftoa variant for exponential floating-point type, contributed by Martijn Jasperse <m.jasperse@gmail.com>
static size_t _etoa(out_fct_type out, char* buffer, size_t idx, size_t maxlen, double value, unsigned int prec, unsigned int width, unsigned int flags)
{
    244c:	deffe504 	addi	sp,sp,-108
    2450:	dd401615 	stw	r21,88(sp)
    2454:	dc401215 	stw	r17,72(sp)
    2458:	dd401c17 	ldw	r21,112(sp)
    245c:	dc401b17 	ldw	r17,108(sp)
    2460:	d8801e17 	ldw	r2,120(sp)
    2464:	d9000615 	stw	r4,24(sp)
    2468:	d9400715 	stw	r5,28(sp)
    246c:	d9800b15 	stw	r6,44(sp)
    2470:	d9c00815 	stw	r7,32(sp)
  // check for NaN and special values
  if ((value != value) || (value > DBL_MAX) || (value < -DBL_MAX)) {
    2474:	880d883a 	mov	r6,r17
    2478:	a80f883a 	mov	r7,r21
    247c:	8809883a 	mov	r4,r17
    2480:	a80b883a 	mov	r5,r21


#if defined(PRINTF_SUPPORT_EXPONENTIAL)
// internal ftoa variant for exponential floating-point type, contributed by Martijn Jasperse <m.jasperse@gmail.com>
static size_t _etoa(out_fct_type out, char* buffer, size_t idx, size_t maxlen, double value, unsigned int prec, unsigned int width, unsigned int flags)
{
    2484:	dd801715 	stw	r22,92(sp)
    2488:	dd001515 	stw	r20,84(sp)
    248c:	dfc01a15 	stw	ra,104(sp)
    2490:	df001915 	stw	fp,100(sp)
    2494:	ddc01815 	stw	r23,96(sp)
    2498:	dcc01415 	stw	r19,80(sp)
    249c:	dc801315 	stw	r18,76(sp)
    24a0:	dc001115 	stw	r16,68(sp)
    24a4:	dd001d17 	ldw	r20,116(sp)
    24a8:	d8800a15 	stw	r2,40(sp)
    24ac:	dd801f17 	ldw	r22,124(sp)
  // check for NaN and special values
  if ((value != value) || (value > DBL_MAX) || (value < -DBL_MAX)) {
    24b0:	00076fc0 	call	76fc <__eqdf2>
    24b4:	10000e1e 	bne	r2,zero,24f0 <_etoa+0xa4>
    24b8:	01bfffc4 	movi	r6,-1
    24bc:	01dffc34 	movhi	r7,32752
    24c0:	398f883a 	add	r7,r7,r6
    24c4:	8809883a 	mov	r4,r17
    24c8:	a80b883a 	mov	r5,r21
    24cc:	00077840 	call	7784 <__gedf2>
    24d0:	00800716 	blt	zero,r2,24f0 <_etoa+0xa4>
    24d4:	01bfffc4 	movi	r6,-1
    24d8:	01fffc34 	movhi	r7,65520
    24dc:	398f883a 	add	r7,r7,r6
    24e0:	8809883a 	mov	r4,r17
    24e4:	a80b883a 	mov	r5,r21
    24e8:	00078600 	call	7860 <__ledf2>
    24ec:	1000160e 	bge	r2,zero,2548 <_etoa+0xfc>
    return _ftoa(out, buffer, idx, maxlen, value, prec, width, flags);
    24f0:	d8c00a17 	ldw	r3,40(sp)
    24f4:	d9c00817 	ldw	r7,32(sp)
    24f8:	d9800b17 	ldw	r6,44(sp)
    24fc:	d9400717 	ldw	r5,28(sp)
    2500:	d9000617 	ldw	r4,24(sp)
    2504:	dd801f15 	stw	r22,124(sp)
    2508:	d8c01e15 	stw	r3,120(sp)
    250c:	dd001d15 	stw	r20,116(sp)
    2510:	dc401b15 	stw	r17,108(sp)
    2514:	dd401c15 	stw	r21,112(sp)
    if (flags & FLAGS_LEFT) {
      while (idx - start_idx < width) out(' ', buffer, idx++, maxlen);
    }
  }
  return idx;
}
    2518:	dfc01a17 	ldw	ra,104(sp)
    251c:	df001917 	ldw	fp,100(sp)
    2520:	ddc01817 	ldw	r23,96(sp)
    2524:	dd801717 	ldw	r22,92(sp)
    2528:	dd401617 	ldw	r21,88(sp)
    252c:	dd001517 	ldw	r20,84(sp)
    2530:	dcc01417 	ldw	r19,80(sp)
    2534:	dc801317 	ldw	r18,76(sp)
    2538:	dc401217 	ldw	r17,72(sp)
    253c:	dc001117 	ldw	r16,68(sp)
    2540:	dec01b04 	addi	sp,sp,108
// internal ftoa variant for exponential floating-point type, contributed by Martijn Jasperse <m.jasperse@gmail.com>
static size_t _etoa(out_fct_type out, char* buffer, size_t idx, size_t maxlen, double value, unsigned int prec, unsigned int width, unsigned int flags)
{
  // check for NaN and special values
  if ((value != value) || (value > DBL_MAX) || (value < -DBL_MAX)) {
    return _ftoa(out, buffer, idx, maxlen, value, prec, width, flags);
    2544:	0001f181 	jmpi	1f18 <_ftoa>
  }

  // determine the sign
  const bool negative = value < 0;
  if (negative) {
    2548:	000d883a 	mov	r6,zero
    254c:	000f883a 	mov	r7,zero
    2550:	8809883a 	mov	r4,r17
    2554:	a80b883a 	mov	r5,r21
    2558:	00078600 	call	7860 <__ledf2>
    value = -value;
    255c:	dc400c15 	stw	r17,48(sp)
    return _ftoa(out, buffer, idx, maxlen, value, prec, width, flags);
  }

  // determine the sign
  const bool negative = value < 0;
  if (negative) {
    2560:	1000020e 	bge	r2,zero,256c <_etoa+0x120>
    value = -value;
    2564:	aca0003c 	xorhi	r18,r21,32768
    2568:	00000106 	br	2570 <_etoa+0x124>
    return _ftoa(out, buffer, idx, maxlen, value, prec, width, flags);
  }

  // determine the sign
  const bool negative = value < 0;
  if (negative) {
    256c:	a825883a 	mov	r18,r21
    value = -value;
  }

  // default precision
  if (!(flags & FLAGS_PRECISION)) {
    2570:	b101000c 	andi	r4,r22,1024
    2574:	d9000915 	stw	r4,36(sp)
    2578:	2000011e 	bne	r4,zero,2580 <_etoa+0x134>
    prec = PRINTF_DEFAULT_FLOAT_PRECISION;
    257c:	05000184 	movi	r20,6

  conv.F = value;
  int exp2 = (int)((conv.U >> 52U) & 0x07FFU) - 1023;           // effectively log2
  conv.U = (conv.U & ((1ULL << 52U) - 1U)) | (1023ULL << 52U);  // drop the exponent so conv.F is now in [1,2)
  // now approximate log10 from the log2 integer part and an expansion of ln around 1.5
  int expval = (int)(0.1760912590558 + exp2 * 0.301029995663981 + (conv.F - 1.5) * 0.289529654602168);
    2580:	9008d53a 	srli	r4,r18,20
    2584:	2101ffcc 	andi	r4,r4,2047
    2588:	213f0044 	addi	r4,r4,-1023
    258c:	0008b3c0 	call	8b3c <__floatsidf>
    2590:	019427f4 	movhi	r6,20639
    2594:	01cff4f4 	movhi	r7,16339
    2598:	319e7ec4 	addi	r6,r6,31227
    259c:	39d104c4 	addi	r7,r7,17427
    25a0:	1009883a 	mov	r4,r2
    25a4:	180b883a 	mov	r5,r3
    25a8:	00079540 	call	7954 <__muldf3>
    25ac:	01a2d874 	movhi	r6,35681
    25b0:	01cff1f4 	movhi	r7,16327
    25b4:	31b22cc4 	addi	r6,r6,-14157
    25b8:	39e28a04 	addi	r7,r7,-30168
    25bc:	1009883a 	mov	r4,r2
    25c0:	180b883a 	mov	r5,r3
    25c4:	00064800 	call	6480 <__adddf3>
    double   F;
  } conv;

  conv.F = value;
  int exp2 = (int)((conv.U >> 52U) & 0x07FFU) - 1023;           // effectively log2
  conv.U = (conv.U & ((1ULL << 52U) - 1U)) | (1023ULL << 52U);  // drop the exponent so conv.F is now in [1,2)
    25c8:	01400434 	movhi	r5,16
    25cc:	297fffc4 	addi	r5,r5,-1
    25d0:	914a703a 	and	r5,r18,r5
  // now approximate log10 from the log2 integer part and an expansion of ln around 1.5
  int expval = (int)(0.1760912590558 + exp2 * 0.301029995663981 + (conv.F - 1.5) * 0.289529654602168);
    25d4:	000d883a 	mov	r6,zero
    25d8:	01cffe34 	movhi	r7,16376
    25dc:	8809883a 	mov	r4,r17
    25e0:	294ffc34 	orhi	r5,r5,16368
    25e4:	1027883a 	mov	r19,r2
    25e8:	1821883a 	mov	r16,r3
    25ec:	00081c00 	call	81c0 <__subdf3>
    25f0:	0198dbf4 	movhi	r6,25455
    25f4:	01cff4f4 	movhi	r7,16339
    25f8:	3190d844 	addi	r6,r6,17249
    25fc:	39e1e9c4 	addi	r7,r7,-30809
    2600:	1009883a 	mov	r4,r2
    2604:	180b883a 	mov	r5,r3
    2608:	00079540 	call	7954 <__muldf3>
    260c:	100d883a 	mov	r6,r2
    2610:	180f883a 	mov	r7,r3
    2614:	9809883a 	mov	r4,r19
    2618:	800b883a 	mov	r5,r16
    261c:	00064800 	call	6480 <__adddf3>
    2620:	180b883a 	mov	r5,r3
    2624:	1009883a 	mov	r4,r2
    2628:	0008abc0 	call	8abc <__fixdfsi>
  // now we want to compute 10^expval but we want to be sure it won't overflow
  exp2 = (int)(expval * 3.321928094887362 + 0.5);
    262c:	1009883a 	mov	r4,r2

  conv.F = value;
  int exp2 = (int)((conv.U >> 52U) & 0x07FFU) - 1023;           // effectively log2
  conv.U = (conv.U & ((1ULL << 52U) - 1U)) | (1023ULL << 52U);  // drop the exponent so conv.F is now in [1,2)
  // now approximate log10 from the log2 integer part and an expansion of ln around 1.5
  int expval = (int)(0.1760912590558 + exp2 * 0.301029995663981 + (conv.F - 1.5) * 0.289529654602168);
    2630:	1021883a 	mov	r16,r2
  // now we want to compute 10^expval but we want to be sure it won't overflow
  exp2 = (int)(expval * 3.321928094887362 + 0.5);
    2634:	0008b3c0 	call	8b3c <__floatsidf>
    2638:	01825eb4 	movhi	r6,2426
    263c:	01d002f4 	movhi	r7,16395
    2640:	31a8dc44 	addi	r6,r6,-23695
    2644:	39e4d3c4 	addi	r7,r7,-27825
    2648:	1009883a 	mov	r4,r2
    264c:	180b883a 	mov	r5,r3
    2650:	102f883a 	mov	r23,r2
    2654:	1827883a 	mov	r19,r3
    2658:	00079540 	call	7954 <__muldf3>
    265c:	000d883a 	mov	r6,zero
    2660:	01cff834 	movhi	r7,16352
    2664:	1009883a 	mov	r4,r2
    2668:	180b883a 	mov	r5,r3
    266c:	00064800 	call	6480 <__adddf3>
    2670:	180b883a 	mov	r5,r3
    2674:	1009883a 	mov	r4,r2
    2678:	0008abc0 	call	8abc <__fixdfsi>
  const double z  = expval * 2.302585092994046 - exp2 * 0.6931471805599453;
    267c:	01aeed74 	movhi	r6,48053
    2680:	01d000b4 	movhi	r7,16386
    2684:	980b883a 	mov	r5,r19
    2688:	31954584 	addi	r6,r6,21782
    268c:	39daec44 	addi	r7,r7,27569
    2690:	b809883a 	mov	r4,r23
  int exp2 = (int)((conv.U >> 52U) & 0x07FFU) - 1023;           // effectively log2
  conv.U = (conv.U & ((1ULL << 52U) - 1U)) | (1023ULL << 52U);  // drop the exponent so conv.F is now in [1,2)
  // now approximate log10 from the log2 integer part and an expansion of ln around 1.5
  int expval = (int)(0.1760912590558 + exp2 * 0.301029995663981 + (conv.F - 1.5) * 0.289529654602168);
  // now we want to compute 10^expval but we want to be sure it won't overflow
  exp2 = (int)(expval * 3.321928094887362 + 0.5);
    2694:	d8800d15 	stw	r2,52(sp)
  const double z  = expval * 2.302585092994046 - exp2 * 0.6931471805599453;
    2698:	00079540 	call	7954 <__muldf3>
    269c:	d9000d17 	ldw	r4,52(sp)
    26a0:	102f883a 	mov	r23,r2
    26a4:	1827883a 	mov	r19,r3
    26a8:	0008b3c0 	call	8b3c <__floatsidf>
    26ac:	01bfbeb4 	movhi	r6,65274
    26b0:	01cff9b4 	movhi	r7,16358
    26b4:	318e7bc4 	addi	r6,r6,14831
    26b8:	39cb9084 	addi	r7,r7,11842
    26bc:	1009883a 	mov	r4,r2
    26c0:	180b883a 	mov	r5,r3
    26c4:	00079540 	call	7954 <__muldf3>
    26c8:	b809883a 	mov	r4,r23
    26cc:	980b883a 	mov	r5,r19
    26d0:	100d883a 	mov	r6,r2
    26d4:	180f883a 	mov	r7,r3
    26d8:	00081c00 	call	81c0 <__subdf3>
  const double z2 = z * z;
    26dc:	100d883a 	mov	r6,r2
    26e0:	180f883a 	mov	r7,r3
    26e4:	1009883a 	mov	r4,r2
    26e8:	180b883a 	mov	r5,r3
  conv.U = (conv.U & ((1ULL << 52U) - 1U)) | (1023ULL << 52U);  // drop the exponent so conv.F is now in [1,2)
  // now approximate log10 from the log2 integer part and an expansion of ln around 1.5
  int expval = (int)(0.1760912590558 + exp2 * 0.301029995663981 + (conv.F - 1.5) * 0.289529654602168);
  // now we want to compute 10^expval but we want to be sure it won't overflow
  exp2 = (int)(expval * 3.321928094887362 + 0.5);
  const double z  = expval * 2.302585092994046 - exp2 * 0.6931471805599453;
    26ec:	1839883a 	mov	fp,r3
  const double z2 = z * z;
    26f0:	d8800e15 	stw	r2,56(sp)
    26f4:	00079540 	call	7954 <__muldf3>
  conv.U = (uint64_t)(exp2 + 1023) << 52U;
  // compute exp(z) using continued fractions, see https://en.wikipedia.org/wiki/Exponential_function#Continued_fractions_for_ex
  conv.F *= 1 + 2 * z / (2 - z + (z2 / (6 + (z2 / (10 + z2 / 14)))));
    26f8:	da400e17 	ldw	r9,56(sp)
    26fc:	e00f883a 	mov	r7,fp
    2700:	e00b883a 	mov	r5,fp
    2704:	480d883a 	mov	r6,r9
    2708:	4809883a 	mov	r4,r9
  // now approximate log10 from the log2 integer part and an expansion of ln around 1.5
  int expval = (int)(0.1760912590558 + exp2 * 0.301029995663981 + (conv.F - 1.5) * 0.289529654602168);
  // now we want to compute 10^expval but we want to be sure it won't overflow
  exp2 = (int)(expval * 3.321928094887362 + 0.5);
  const double z  = expval * 2.302585092994046 - exp2 * 0.6931471805599453;
  const double z2 = z * z;
    270c:	1027883a 	mov	r19,r2
    2710:	182f883a 	mov	r23,r3
  conv.U = (uint64_t)(exp2 + 1023) << 52U;
  // compute exp(z) using continued fractions, see https://en.wikipedia.org/wiki/Exponential_function#Continued_fractions_for_ex
  conv.F *= 1 + 2 * z / (2 - z + (z2 / (6 + (z2 / (10 + z2 / 14)))));
    2714:	00064800 	call	6480 <__adddf3>
    2718:	9809883a 	mov	r4,r19
    271c:	b80b883a 	mov	r5,r23
    2720:	000d883a 	mov	r6,zero
    2724:	01d00b34 	movhi	r7,16428
    2728:	d8c01015 	stw	r3,64(sp)
    272c:	d8800f15 	stw	r2,60(sp)
    2730:	0006d2c0 	call	6d2c <__divdf3>
    2734:	000d883a 	mov	r6,zero
    2738:	01d00934 	movhi	r7,16420
    273c:	1009883a 	mov	r4,r2
    2740:	180b883a 	mov	r5,r3
    2744:	00064800 	call	6480 <__adddf3>
    2748:	9809883a 	mov	r4,r19
    274c:	b80b883a 	mov	r5,r23
    2750:	100d883a 	mov	r6,r2
    2754:	180f883a 	mov	r7,r3
    2758:	0006d2c0 	call	6d2c <__divdf3>
    275c:	000d883a 	mov	r6,zero
    2760:	01d00634 	movhi	r7,16408
    2764:	1009883a 	mov	r4,r2
    2768:	180b883a 	mov	r5,r3
    276c:	00064800 	call	6480 <__adddf3>
    2770:	9809883a 	mov	r4,r19
    2774:	b80b883a 	mov	r5,r23
    2778:	100d883a 	mov	r6,r2
    277c:	180f883a 	mov	r7,r3
    2780:	0006d2c0 	call	6d2c <__divdf3>
    2784:	da400e17 	ldw	r9,56(sp)
    2788:	e00f883a 	mov	r7,fp
    278c:	0009883a 	mov	r4,zero
    2790:	480d883a 	mov	r6,r9
    2794:	01500034 	movhi	r5,16384
    2798:	102f883a 	mov	r23,r2
    279c:	1827883a 	mov	r19,r3
    27a0:	00081c00 	call	81c0 <__subdf3>
    27a4:	b809883a 	mov	r4,r23
    27a8:	100d883a 	mov	r6,r2
    27ac:	180f883a 	mov	r7,r3
    27b0:	980b883a 	mov	r5,r19
    27b4:	00064800 	call	6480 <__adddf3>
    27b8:	dac00f17 	ldw	r11,60(sp)
    27bc:	da801017 	ldw	r10,64(sp)
    27c0:	100d883a 	mov	r6,r2
    27c4:	5809883a 	mov	r4,r11
    27c8:	500b883a 	mov	r5,r10
    27cc:	180f883a 	mov	r7,r3
    27d0:	0006d2c0 	call	6d2c <__divdf3>
    27d4:	000d883a 	mov	r6,zero
    27d8:	01cffc34 	movhi	r7,16368
    27dc:	1009883a 	mov	r4,r2
    27e0:	180b883a 	mov	r5,r3
    27e4:	00064800 	call	6480 <__adddf3>
  int expval = (int)(0.1760912590558 + exp2 * 0.301029995663981 + (conv.F - 1.5) * 0.289529654602168);
  // now we want to compute 10^expval but we want to be sure it won't overflow
  exp2 = (int)(expval * 3.321928094887362 + 0.5);
  const double z  = expval * 2.302585092994046 - exp2 * 0.6931471805599453;
  const double z2 = z * z;
  conv.U = (uint64_t)(exp2 + 1023) << 52U;
    27e8:	d9000d17 	ldw	r4,52(sp)
  // compute exp(z) using continued fractions, see https://en.wikipedia.org/wiki/Exponential_function#Continued_fractions_for_ex
  conv.F *= 1 + 2 * z / (2 - z + (z2 / (6 + (z2 / (10 + z2 / 14)))));
    27ec:	000d883a 	mov	r6,zero
    27f0:	180b883a 	mov	r5,r3
  int expval = (int)(0.1760912590558 + exp2 * 0.301029995663981 + (conv.F - 1.5) * 0.289529654602168);
  // now we want to compute 10^expval but we want to be sure it won't overflow
  exp2 = (int)(expval * 3.321928094887362 + 0.5);
  const double z  = expval * 2.302585092994046 - exp2 * 0.6931471805599453;
  const double z2 = z * z;
  conv.U = (uint64_t)(exp2 + 1023) << 52U;
    27f4:	21c0ffc4 	addi	r7,r4,1023
  // compute exp(z) using continued fractions, see https://en.wikipedia.org/wiki/Exponential_function#Continued_fractions_for_ex
  conv.F *= 1 + 2 * z / (2 - z + (z2 / (6 + (z2 / (10 + z2 / 14)))));
    27f8:	380e953a 	slli	r7,r7,20
    27fc:	1009883a 	mov	r4,r2
    2800:	00079540 	call	7954 <__muldf3>
  // correct for rounding errors
  if (value < conv.F) {
    2804:	180f883a 	mov	r7,r3
    2808:	100d883a 	mov	r6,r2
    280c:	8809883a 	mov	r4,r17
    2810:	900b883a 	mov	r5,r18
    2814:	d8c00e15 	stw	r3,56(sp)
  exp2 = (int)(expval * 3.321928094887362 + 0.5);
  const double z  = expval * 2.302585092994046 - exp2 * 0.6931471805599453;
  const double z2 = z * z;
  conv.U = (uint64_t)(exp2 + 1023) << 52U;
  // compute exp(z) using continued fractions, see https://en.wikipedia.org/wiki/Exponential_function#Continued_fractions_for_ex
  conv.F *= 1 + 2 * z / (2 - z + (z2 / (6 + (z2 / (10 + z2 / 14)))));
    2818:	102f883a 	mov	r23,r2
  // correct for rounding errors
  if (value < conv.F) {
    281c:	00078600 	call	7860 <__ledf2>
    2820:	d8c00e17 	ldw	r3,56(sp)
    2824:	1000070e 	bge	r2,zero,2844 <_etoa+0x3f8>
    expval--;
    conv.F /= 10;
    2828:	b809883a 	mov	r4,r23
    282c:	000d883a 	mov	r6,zero
    2830:	01d00934 	movhi	r7,16420
    2834:	180b883a 	mov	r5,r3
    2838:	0006d2c0 	call	6d2c <__divdf3>
  conv.U = (uint64_t)(exp2 + 1023) << 52U;
  // compute exp(z) using continued fractions, see https://en.wikipedia.org/wiki/Exponential_function#Continued_fractions_for_ex
  conv.F *= 1 + 2 * z / (2 - z + (z2 / (6 + (z2 / (10 + z2 / 14)))));
  // correct for rounding errors
  if (value < conv.F) {
    expval--;
    283c:	843fffc4 	addi	r16,r16,-1
    conv.F /= 10;
    2840:	102f883a 	mov	r23,r2
  }

  // the exponent format is "%+03d" and largest value is "307", so set aside 4-5 characters
  unsigned int minwidth = ((expval < 100) && (expval > -100)) ? 4U : 5U;
    2844:	808018c4 	addi	r2,r16,99
    2848:	04c03184 	movi	r19,198
    284c:	98a7403a 	cmpgeu	r19,r19,r2
    2850:	00800144 	movi	r2,5
    2854:	14e7c83a 	sub	r19,r2,r19

  // in "%g" mode, "prec" is the number of *significant figures* not decimals
  if (flags & FLAGS_ADAPT_EXP) {
    2858:	b082000c 	andi	r2,r22,2048
    285c:	10001f26 	beq	r2,zero,28dc <_etoa+0x490>
    // do we want to fall-back to "%f" mode?
    if ((value >= 1e-4) && (value < 1e6)) {
    2860:	01bac734 	movhi	r6,60188
    2864:	01cfc6b4 	movhi	r7,16154
    2868:	3190cb44 	addi	r6,r6,17197
    286c:	39cdb884 	addi	r7,r7,14050
    2870:	8809883a 	mov	r4,r17
    2874:	900b883a 	mov	r5,r18
    2878:	d8c00e15 	stw	r3,56(sp)
    287c:	00077840 	call	7784 <__gedf2>
    2880:	d8c00e17 	ldw	r3,56(sp)
    2884:	10001116 	blt	r2,zero,28cc <_etoa+0x480>
    2888:	01d04bf4 	movhi	r7,16687
    288c:	000d883a 	mov	r6,zero
    2890:	39e12004 	addi	r7,r7,-31616
    2894:	8809883a 	mov	r4,r17
    2898:	900b883a 	mov	r5,r18
    289c:	00078600 	call	7860 <__ledf2>
    28a0:	d8c00e17 	ldw	r3,56(sp)
    28a4:	1000090e 	bge	r2,zero,28cc <_etoa+0x480>
      if ((int)prec > expval) {
    28a8:	8500030e 	bge	r16,r20,28b8 <_etoa+0x46c>
        prec = (unsigned)((int)prec - expval - 1);
    28ac:	a429c83a 	sub	r20,r20,r16
    28b0:	a53fffc4 	addi	r20,r20,-1
    28b4:	00000106 	br	28bc <_etoa+0x470>
      }
      else {
        prec = 0;
    28b8:	0029883a 	mov	r20,zero
      }
      flags |= FLAGS_PRECISION;   // make sure _ftoa respects precision
    28bc:	b5810014 	ori	r22,r22,1024
      // no characters in exponent
      minwidth = 0U;
    28c0:	0027883a 	mov	r19,zero
      expval   = 0;
    28c4:	0021883a 	mov	r16,zero
    28c8:	00000406 	br	28dc <_etoa+0x490>
    }
    else {
      // we use one sigfig for the whole part
      if ((prec > 0) && (flags & FLAGS_PRECISION)) {
    28cc:	a0000326 	beq	r20,zero,28dc <_etoa+0x490>
    28d0:	d8800917 	ldw	r2,36(sp)
    28d4:	10000126 	beq	r2,zero,28dc <_etoa+0x490>
        --prec;
    28d8:	a53fffc4 	addi	r20,r20,-1
    }
  }

  // will everything fit?
  unsigned int fwidth = width;
  if (width > minwidth) {
    28dc:	d9000a17 	ldw	r4,40(sp)
    28e0:	9900022e 	bgeu	r19,r4,28ec <_etoa+0x4a0>
    // we didn't fall-back so subtract the characters required for the exponent
    fwidth -= minwidth;
    28e4:	24f9c83a 	sub	fp,r4,r19
    28e8:	00000106 	br	28f0 <_etoa+0x4a4>
  } else {
    // not enough characters, so go back to default sizing
    fwidth = 0U;
    28ec:	0039883a 	mov	fp,zero
  }
  if ((flags & FLAGS_LEFT) && minwidth) {
    28f0:	b080008c 	andi	r2,r22,2
    28f4:	d8800915 	stw	r2,36(sp)
    28f8:	10000226 	beq	r2,zero,2904 <_etoa+0x4b8>
    28fc:	98000126 	beq	r19,zero,2904 <_etoa+0x4b8>
    // if we're padding on the right, DON'T pad the floating part
    fwidth = 0U;
    2900:	0039883a 	mov	fp,zero
  }

  // rescale the float value
  if (expval) {
    2904:	80000726 	beq	r16,zero,2924 <_etoa+0x4d8>
    value /= conv.F;
    2908:	900b883a 	mov	r5,r18
    290c:	b80d883a 	mov	r6,r23
    2910:	180f883a 	mov	r7,r3
    2914:	8809883a 	mov	r4,r17
    2918:	0006d2c0 	call	6d2c <__divdf3>
    291c:	d8800c15 	stw	r2,48(sp)
    2920:	1825883a 	mov	r18,r3
  }

  // output the floating part
  const size_t start_idx = idx;
  idx = _ftoa(out, buffer, idx, maxlen, negative ? -value : value, prec, fwidth, flags & ~FLAGS_ADAPT_EXP);
    2924:	000d883a 	mov	r6,zero
    2928:	000f883a 	mov	r7,zero
    292c:	8809883a 	mov	r4,r17
    2930:	a80b883a 	mov	r5,r21
    2934:	00078600 	call	7860 <__ledf2>
    2938:	1000010e 	bge	r2,zero,2940 <_etoa+0x4f4>
    293c:	94a0003c 	xorhi	r18,r18,32768
    2940:	d8c00c17 	ldw	r3,48(sp)
    2944:	00bdffc4 	movi	r2,-2049
    2948:	d9c00817 	ldw	r7,32(sp)
    294c:	d9800b17 	ldw	r6,44(sp)
    2950:	d9400717 	ldw	r5,28(sp)
    2954:	d9000617 	ldw	r4,24(sp)
    2958:	b084703a 	and	r2,r22,r2
    295c:	d8800415 	stw	r2,16(sp)
    2960:	df000315 	stw	fp,12(sp)
    2964:	dd000215 	stw	r20,8(sp)
    2968:	d8c00015 	stw	r3,0(sp)
    296c:	dc800115 	stw	r18,4(sp)
    2970:	0001f180 	call	1f18 <_ftoa>

  // output the exponent part
  if (minwidth) {
    2974:	98002b26 	beq	r19,zero,2a24 <_etoa+0x5d8>
    // output the exponential symbol
    out((flags & FLAGS_UPPERCASE) ? 'E' : 'e', buffer, idx++, maxlen);
    2978:	b0c0080c 	andi	r3,r22,32
    297c:	1800021e 	bne	r3,zero,2988 <_etoa+0x53c>
    2980:	01001944 	movi	r4,101
    2984:	00000106 	br	298c <_etoa+0x540>
    2988:	01001144 	movi	r4,69
    298c:	100d883a 	mov	r6,r2
    2990:	14400044 	addi	r17,r2,1
    2994:	d9c00817 	ldw	r7,32(sp)
    2998:	d8800617 	ldw	r2,24(sp)
    299c:	d9400717 	ldw	r5,28(sp)
    // output the exponent value
    idx = _ntoa_long(out, buffer, idx, maxlen, (expval < 0) ? -expval : expval, expval < 0, 10, 0, minwidth-1, FLAGS_ZEROPAD | FLAGS_PLUS);
    29a0:	9cffffc4 	addi	r19,r19,-1
  idx = _ftoa(out, buffer, idx, maxlen, negative ? -value : value, prec, fwidth, flags & ~FLAGS_ADAPT_EXP);

  // output the exponent part
  if (minwidth) {
    // output the exponential symbol
    out((flags & FLAGS_UPPERCASE) ? 'E' : 'e', buffer, idx++, maxlen);
    29a4:	103ee83a 	callr	r2
    // output the exponent value
    idx = _ntoa_long(out, buffer, idx, maxlen, (expval < 0) ? -expval : expval, expval < 0, 10, 0, minwidth-1, FLAGS_ZEROPAD | FLAGS_PLUS);
    29a8:	00800144 	movi	r2,5
    29ac:	d8800515 	stw	r2,20(sp)
    29b0:	00800284 	movi	r2,10
    29b4:	d8800215 	stw	r2,8(sp)
    29b8:	8004d7fa 	srli	r2,r16,31
    29bc:	dcc00415 	stw	r19,16(sp)
    29c0:	d8000315 	stw	zero,12(sp)
    29c4:	d8800115 	stw	r2,4(sp)
    29c8:	8000010e 	bge	r16,zero,29d0 <_etoa+0x584>
    29cc:	0421c83a 	sub	r16,zero,r16
    29d0:	d9c00817 	ldw	r7,32(sp)
    29d4:	d9400717 	ldw	r5,28(sp)
    29d8:	d9000617 	ldw	r4,24(sp)
    29dc:	dc000015 	stw	r16,0(sp)
    29e0:	880d883a 	mov	r6,r17
    29e4:	0001bcc0 	call	1bcc <_ntoa_long>
    // might need to right-pad spaces
    if (flags & FLAGS_LEFT) {
    29e8:	d8c00917 	ldw	r3,36(sp)
    29ec:	18000d26 	beq	r3,zero,2a24 <_etoa+0x5d8>
      while (idx - start_idx < width) out(' ', buffer, idx++, maxlen);
    29f0:	d9000b17 	ldw	r4,44(sp)
    29f4:	1107c83a 	sub	r3,r2,r4
    29f8:	d9000a17 	ldw	r4,40(sp)
    29fc:	1900092e 	bgeu	r3,r4,2a24 <_etoa+0x5d8>
    2a00:	14000044 	addi	r16,r2,1
    2a04:	100d883a 	mov	r6,r2
    2a08:	d9c00817 	ldw	r7,32(sp)
    2a0c:	d8800617 	ldw	r2,24(sp)
    2a10:	d9400717 	ldw	r5,28(sp)
    2a14:	01000804 	movi	r4,32
    2a18:	103ee83a 	callr	r2
    2a1c:	8005883a 	mov	r2,r16
    2a20:	003ff306 	br	29f0 <__ram_exceptions_end+0xfe0009d0>
    }
  }
  return idx;
}
    2a24:	dfc01a17 	ldw	ra,104(sp)
    2a28:	df001917 	ldw	fp,100(sp)
    2a2c:	ddc01817 	ldw	r23,96(sp)
    2a30:	dd801717 	ldw	r22,92(sp)
    2a34:	dd401617 	ldw	r21,88(sp)
    2a38:	dd001517 	ldw	r20,84(sp)
    2a3c:	dcc01417 	ldw	r19,80(sp)
    2a40:	dc801317 	ldw	r18,76(sp)
    2a44:	dc401217 	ldw	r17,72(sp)
    2a48:	dc001117 	ldw	r16,68(sp)
    2a4c:	dec01b04 	addi	sp,sp,108
    2a50:	f800283a 	ret

00002a54 <_vsnprintf>:
#endif  // PRINTF_SUPPORT_FLOAT


// internal vsnprintf
static int _vsnprintf(out_fct_type out, char* buffer, const size_t maxlen, const char* format, va_list va)
{
    2a54:	deffeb04 	addi	sp,sp,-84
    2a58:	df001315 	stw	fp,76(sp)
    2a5c:	dd000f15 	stw	r20,60(sp)
    2a60:	dc800d15 	stw	r18,52(sp)
    2a64:	dfc01415 	stw	ra,80(sp)
    2a68:	ddc01215 	stw	r23,72(sp)
    2a6c:	dd801115 	stw	r22,68(sp)
    2a70:	dd401015 	stw	r21,64(sp)
    2a74:	dcc00e15 	stw	r19,56(sp)
    2a78:	dc400c15 	stw	r17,48(sp)
    2a7c:	dc000b15 	stw	r16,44(sp)
    2a80:	2829883a 	mov	r20,r5
    2a84:	3025883a 	mov	r18,r6
    2a88:	df001517 	ldw	fp,84(sp)
  unsigned int flags, width, precision, n;
  size_t idx = 0U;

  if (!buffer) {
    2a8c:	2800031e 	bne	r5,zero,2a9c <_vsnprintf+0x48>
    // use null output function
    out = _out_null;
    2a90:	04c00034 	movhi	r19,0
    2a94:	9cc64604 	addi	r19,r19,6424
    2a98:	00000106 	br	2aa0 <_vsnprintf+0x4c>
    2a9c:	2027883a 	mov	r19,r4
      }
#if defined(PRINTF_SUPPORT_FLOAT)
      case 'f' :
      case 'F' :
        if (*format == 'F') flags |= FLAGS_UPPERCASE;
        idx = _ftoa(out, buffer, idx, maxlen, va_arg(va, double), precision, width, flags);
    2aa0:	002d883a 	mov	r22,zero
  if (!buffer) {
    // use null output function
    out = _out_null;
  }

  while (*format)
    2aa4:	39000007 	ldb	r4,0(r7)
    2aa8:	20005126 	beq	r4,zero,2bf0 <_vsnprintf+0x19c>
  {
    // format specifier?  %[flags][width][.precision][length]
    if (*format != '%') {
    2aac:	00800944 	movi	r2,37
    2ab0:	3c400044 	addi	r17,r7,1
    2ab4:	20800726 	beq	r4,r2,2ad4 <_vsnprintf+0x80>
      // no
      out(*format, buffer, idx++, maxlen);
    2ab8:	900f883a 	mov	r7,r18
    2abc:	b00d883a 	mov	r6,r22
    2ac0:	a00b883a 	mov	r5,r20
    2ac4:	983ee83a 	callr	r19
    2ac8:	b4000044 	addi	r16,r22,1
      format++;
    2acc:	880f883a 	mov	r7,r17
    2ad0:	00004506 	br	2be8 <_vsnprintf+0x194>
    2ad4:	880f883a 	mov	r7,r17
      // yes, evaluate it
      format++;
    }

    // evaluate flags
    flags = 0U;
    2ad8:	0021883a 	mov	r16,zero
    do {
      switch (*format) {
    2adc:	01400804 	movi	r5,32
    2ae0:	018008c4 	movi	r6,35
    2ae4:	39000003 	ldbu	r4,0(r7)
    2ae8:	00c00ac4 	movi	r3,43
    2aec:	382f883a 	mov	r23,r7
    2af0:	20803fcc 	andi	r2,r4,255
    2af4:	1080201c 	xori	r2,r2,128
    2af8:	10bfe004 	addi	r2,r2,-128
    2afc:	10c00d26 	beq	r2,r3,2b34 <_vsnprintf+0xe0>
    2b00:	18800416 	blt	r3,r2,2b14 <_vsnprintf+0xc0>
    2b04:	11400d26 	beq	r2,r5,2b3c <_vsnprintf+0xe8>
    2b08:	1180401e 	bne	r2,r6,2c0c <_vsnprintf+0x1b8>
        case '0': flags |= FLAGS_ZEROPAD; format++; n = 1U; break;
        case '-': flags |= FLAGS_LEFT;    format++; n = 1U; break;
        case '+': flags |= FLAGS_PLUS;    format++; n = 1U; break;
        case ' ': flags |= FLAGS_SPACE;   format++; n = 1U; break;
        case '#': flags |= FLAGS_HASH;    format++; n = 1U; break;
    2b0c:	84000414 	ori	r16,r16,16
    2b10:	00003c06 	br	2c04 <_vsnprintf+0x1b0>
    }

    // evaluate flags
    flags = 0U;
    do {
      switch (*format) {
    2b14:	00c00b44 	movi	r3,45
    2b18:	10c00426 	beq	r2,r3,2b2c <_vsnprintf+0xd8>
    2b1c:	00c00c04 	movi	r3,48
    2b20:	10c03a1e 	bne	r2,r3,2c0c <_vsnprintf+0x1b8>
        case '0': flags |= FLAGS_ZEROPAD; format++; n = 1U; break;
    2b24:	84000054 	ori	r16,r16,1
    2b28:	00003606 	br	2c04 <_vsnprintf+0x1b0>
        case '-': flags |= FLAGS_LEFT;    format++; n = 1U; break;
    2b2c:	84000094 	ori	r16,r16,2
    2b30:	00003406 	br	2c04 <_vsnprintf+0x1b0>
        case '+': flags |= FLAGS_PLUS;    format++; n = 1U; break;
    2b34:	84000114 	ori	r16,r16,4
    2b38:	00003206 	br	2c04 <_vsnprintf+0x1b0>
        case ' ': flags |= FLAGS_SPACE;   format++; n = 1U; break;
    2b3c:	84000214 	ori	r16,r16,8
    2b40:	00003006 	br	2c04 <_vsnprintf+0x1b0>
      flags |= FLAGS_PRECISION;
      format++;
      if (_is_digit(*format)) {
        precision = _atoi(&format);
      }
      else if (*format == '*') {
    2b44:	10803fcc 	andi	r2,r2,255
    2b48:	1080201c 	xori	r2,r2,128
    2b4c:	10bfe004 	addi	r2,r2,-128
    2b50:	01000a84 	movi	r4,42
    2b54:	11005b1e 	bne	r2,r4,2cc4 <_vsnprintf+0x270>
        const int prec = (int)va_arg(va, int);
        precision = prec > 0 ? (unsigned int)prec : 0U;
    2b58:	e0800017 	ldw	r2,0(fp)
      format++;
      if (_is_digit(*format)) {
        precision = _atoi(&format);
      }
      else if (*format == '*') {
        const int prec = (int)va_arg(va, int);
    2b5c:	e1000104 	addi	r4,fp,4
        precision = prec > 0 ? (unsigned int)prec : 0U;
    2b60:	1000010e 	bge	r2,zero,2b68 <_vsnprintf+0x114>
    2b64:	0005883a 	mov	r2,zero
        format++;
    2b68:	bc400084 	addi	r17,r23,2
      format++;
      if (_is_digit(*format)) {
        precision = _atoi(&format);
      }
      else if (*format == '*') {
        const int prec = (int)va_arg(va, int);
    2b6c:	2039883a 	mov	fp,r4
        format++;
      }
    }

    // evaluate length field
    switch (*format) {
    2b70:	89000007 	ldb	r4,0(r17)
    2b74:	01401b04 	movi	r5,108
    2b78:	21405a26 	beq	r4,r5,2ce4 <_vsnprintf+0x290>
    2b7c:	2900530e 	bge	r5,r4,2ccc <_vsnprintf+0x278>
    2b80:	01401d04 	movi	r5,116
    2b84:	21406226 	beq	r4,r5,2d10 <_vsnprintf+0x2bc>
    2b88:	01401e84 	movi	r5,122
    2b8c:	21406026 	beq	r4,r5,2d10 <_vsnprintf+0x2bc>
      default :
        break;
    }

    // evaluate specifier
    switch (*format) {
    2b90:	89c00003 	ldbu	r7,0(r17)
    2b94:	01401944 	movi	r5,101
    2b98:	39003fcc 	andi	r4,r7,255
    2b9c:	2100201c 	xori	r4,r4,128
    2ba0:	213fe004 	addi	r4,r4,-128
    2ba4:	21412a26 	beq	r4,r5,3050 <_vsnprintf+0x5fc>
    2ba8:	29006516 	blt	r5,r4,2d40 <_vsnprintf+0x2ec>
    2bac:	014011c4 	movi	r5,71
    2bb0:	21412726 	beq	r4,r5,3050 <_vsnprintf+0x5fc>
    2bb4:	29005916 	blt	r5,r4,2d1c <_vsnprintf+0x2c8>
    2bb8:	01401144 	movi	r5,69
    2bbc:	21412426 	beq	r4,r5,3050 <_vsnprintf+0x5fc>
    2bc0:	29011216 	blt	r5,r4,300c <_vsnprintf+0x5b8>
    2bc4:	00800944 	movi	r2,37
    2bc8:	2081b51e 	bne	r4,r2,32a0 <_vsnprintf+0x84c>
        format++;
        break;
      }

      case '%' :
        out('%', buffer, idx++, maxlen);
    2bcc:	b4000044 	addi	r16,r22,1
    2bd0:	900f883a 	mov	r7,r18
    2bd4:	b00d883a 	mov	r6,r22
    2bd8:	a00b883a 	mov	r5,r20
    2bdc:	01000944 	movi	r4,37
        format++;
        break;

      default :
        out(*format, buffer, idx++, maxlen);
    2be0:	983ee83a 	callr	r19
        format++;
    2be4:	89c00044 	addi	r7,r17,1
        out('%', buffer, idx++, maxlen);
        format++;
        break;

      default :
        out(*format, buffer, idx++, maxlen);
    2be8:	802d883a 	mov	r22,r16
        format++;
        break;
    2bec:	003fad06 	br	2aa4 <__ram_exceptions_end+0xfe000a84>
    }
  }

  // termination
  out((char)0, buffer, idx < maxlen ? idx : maxlen - 1U, maxlen);
    2bf0:	b4800236 	bltu	r22,r18,2bfc <_vsnprintf+0x1a8>
    2bf4:	91bfffc4 	addi	r6,r18,-1
    2bf8:	0001c406 	br	330c <_vsnprintf+0x8b8>
    2bfc:	b00d883a 	mov	r6,r22
    2c00:	0001c206 	br	330c <_vsnprintf+0x8b8>
    2c04:	39c00044 	addi	r7,r7,1
    2c08:	003fb606 	br	2ae4 <__ram_exceptions_end+0xfe000ac4>
      }
    } while (n);

    // evaluate width field
    width = 0U;
    if (_is_digit(*format)) {
    2c0c:	213ff404 	addi	r4,r4,-48
    2c10:	21003fcc 	andi	r4,r4,255
    2c14:	01400244 	movi	r5,9
    2c18:	2901a62e 	bgeu	r5,r4,32b4 <_vsnprintf+0x860>
      width = _atoi(&format);
    }
    else if (*format == '*') {
    2c1c:	01000a84 	movi	r4,42
    2c20:	11000a1e 	bne	r2,r4,2c4c <_vsnprintf+0x1f8>
      const int w = va_arg(va, int);
    2c24:	e2400017 	ldw	r9,0(fp)
    2c28:	e0800104 	addi	r2,fp,4
      if (w < 0) {
    2c2c:	4800030e 	bge	r9,zero,2c3c <_vsnprintf+0x1e8>
        flags |= FLAGS_LEFT;    // reverse padding
    2c30:	84000094 	ori	r16,r16,2
        width = (unsigned int)-w;
    2c34:	026bc83a 	sub	r21,zero,r9
    2c38:	00000106 	br	2c40 <_vsnprintf+0x1ec>
      }
      else {
        width = (unsigned int)w;
    2c3c:	482b883a 	mov	r21,r9
      }
      format++;
    2c40:	3dc00044 	addi	r23,r7,1
    width = 0U;
    if (_is_digit(*format)) {
      width = _atoi(&format);
    }
    else if (*format == '*') {
      const int w = va_arg(va, int);
    2c44:	1039883a 	mov	fp,r2
    2c48:	00000106 	br	2c50 <_vsnprintf+0x1fc>
        default :                                   n = 0U; break;
      }
    } while (n);

    // evaluate width field
    width = 0U;
    2c4c:	002b883a 	mov	r21,zero
      format++;
    }

    // evaluate precision field
    precision = 0U;
    if (*format == '.') {
    2c50:	b9000007 	ldb	r4,0(r23)
    2c54:	00800b84 	movi	r2,46
    2c58:	2080191e 	bne	r4,r2,2cc0 <_vsnprintf+0x26c>
      flags |= FLAGS_PRECISION;
      format++;
      if (_is_digit(*format)) {
    2c5c:	b8800043 	ldbu	r2,1(r23)
    2c60:	01000244 	movi	r4,9
    }

    // evaluate precision field
    precision = 0U;
    if (*format == '.') {
      flags |= FLAGS_PRECISION;
    2c64:	84010014 	ori	r16,r16,1024
      format++;
      if (_is_digit(*format)) {
    2c68:	117ff404 	addi	r5,r2,-48
    2c6c:	29403fcc 	andi	r5,r5,255

    // evaluate precision field
    precision = 0U;
    if (*format == '.') {
      flags |= FLAGS_PRECISION;
      format++;
    2c70:	bc400044 	addi	r17,r23,1
      if (_is_digit(*format)) {
    2c74:	217fb336 	bltu	r4,r5,2b44 <__ram_exceptions_end+0xfe000b24>
    2c78:	0005883a 	mov	r2,zero

// internal ASCII string to unsigned int conversion
static unsigned int _atoi(const char** str)
{
  unsigned int i = 0U;
  while (_is_digit(**str)) {
    2c7c:	202f883a 	mov	r23,r4
    2c80:	88c00003 	ldbu	r3,0(r17)
    2c84:	193ff404 	addi	r4,r3,-48
    2c88:	21003fcc 	andi	r4,r4,255
    2c8c:	b93fb836 	bltu	r23,r4,2b70 <__ram_exceptions_end+0xfe000b50>
    2c90:	01400284 	movi	r5,10
    2c94:	1009883a 	mov	r4,r2
    2c98:	d8c00915 	stw	r3,36(sp)
    2c9c:	0004dbc0 	call	4dbc <__mulsi3>
    i = i * 10U + (unsigned int)(*((*str)++) - '0');
    2ca0:	d8c00917 	ldw	r3,36(sp)
    2ca4:	10bff404 	addi	r2,r2,-48
    2ca8:	8c400044 	addi	r17,r17,1
    2cac:	18c03fcc 	andi	r3,r3,255
    2cb0:	18c0201c 	xori	r3,r3,128
    2cb4:	18ffe004 	addi	r3,r3,-128
    2cb8:	1885883a 	add	r2,r3,r2
    2cbc:	003ff006 	br	2c80 <__ram_exceptions_end+0xfe000c60>
    2cc0:	b823883a 	mov	r17,r23
      }
      format++;
    }

    // evaluate precision field
    precision = 0U;
    2cc4:	0005883a 	mov	r2,zero
    2cc8:	003fa906 	br	2b70 <__ram_exceptions_end+0xfe000b50>
        format++;
      }
    }

    // evaluate length field
    switch (*format) {
    2ccc:	01401a04 	movi	r5,104
    2cd0:	21400826 	beq	r4,r5,2cf4 <_vsnprintf+0x2a0>
    2cd4:	01401a84 	movi	r5,106
    2cd8:	217fad1e 	bne	r4,r5,2b90 <__ram_exceptions_end+0xfe000b70>
        flags |= (sizeof(ptrdiff_t) == sizeof(long) ? FLAGS_LONG : FLAGS_LONG_LONG);
        format++;
        break;
#endif
      case 'j' :
        flags |= (sizeof(intmax_t) == sizeof(long) ? FLAGS_LONG : FLAGS_LONG_LONG);
    2cdc:	84008014 	ori	r16,r16,512
    2ce0:	00000c06 	br	2d14 <_vsnprintf+0x2c0>
    // evaluate length field
    switch (*format) {
      case 'l' :
        flags |= FLAGS_LONG;
        format++;
        if (*format == 'l') {
    2ce4:	89400047 	ldb	r5,1(r17)
    2ce8:	2900091e 	bne	r5,r4,2d10 <_vsnprintf+0x2bc>
          flags |= FLAGS_LONG_LONG;
    2cec:	8400c014 	ori	r16,r16,768
    2cf0:	00000506 	br	2d08 <_vsnprintf+0x2b4>
        }
        break;
      case 'h' :
        flags |= FLAGS_SHORT;
        format++;
        if (*format == 'h') {
    2cf4:	89400047 	ldb	r5,1(r17)
    2cf8:	29000226 	beq	r5,r4,2d04 <_vsnprintf+0x2b0>
          flags |= FLAGS_LONG_LONG;
          format++;
        }
        break;
      case 'h' :
        flags |= FLAGS_SHORT;
    2cfc:	84002014 	ori	r16,r16,128
    2d00:	00000406 	br	2d14 <_vsnprintf+0x2c0>
        format++;
        if (*format == 'h') {
          flags |= FLAGS_CHAR;
    2d04:	84003014 	ori	r16,r16,192
          format++;
    2d08:	8c400084 	addi	r17,r17,2
    2d0c:	003fa006 	br	2b90 <__ram_exceptions_end+0xfe000b70>
      case 'j' :
        flags |= (sizeof(intmax_t) == sizeof(long) ? FLAGS_LONG : FLAGS_LONG_LONG);
        format++;
        break;
      case 'z' :
        flags |= (sizeof(size_t) == sizeof(long) ? FLAGS_LONG : FLAGS_LONG_LONG);
    2d10:	84004014 	ori	r16,r16,256
        format++;
    2d14:	8c400044 	addi	r17,r17,1
        break;
    2d18:	003f9d06 	br	2b90 <__ram_exceptions_end+0xfe000b70>
      default :
        break;
    }

    // evaluate specifier
    switch (*format) {
    2d1c:	01401884 	movi	r5,98
    2d20:	21402926 	beq	r4,r5,2dc8 <_vsnprintf+0x374>
    2d24:	29000216 	blt	r5,r4,2d30 <_vsnprintf+0x2dc>
    2d28:	01401604 	movi	r5,88
    2d2c:	00002506 	br	2dc4 <_vsnprintf+0x370>
    2d30:	014018c4 	movi	r5,99
    2d34:	2140e426 	beq	r4,r5,30c8 <_vsnprintf+0x674>
    2d38:	01401904 	movi	r5,100
    2d3c:	00002106 	br	2dc4 <_vsnprintf+0x370>
    2d40:	01401bc4 	movi	r5,111
    2d44:	21402026 	beq	r4,r5,2dc8 <_vsnprintf+0x374>
    2d48:	29000516 	blt	r5,r4,2d60 <_vsnprintf+0x30c>
    2d4c:	014019c4 	movi	r5,103
    2d50:	2140bf26 	beq	r4,r5,3050 <_vsnprintf+0x5fc>
    2d54:	2140ad16 	blt	r4,r5,300c <_vsnprintf+0x5b8>
    2d58:	01401a44 	movi	r5,105
    2d5c:	00001906 	br	2dc4 <_vsnprintf+0x370>
    2d60:	01401cc4 	movi	r5,115
    2d64:	21410226 	beq	r4,r5,3170 <_vsnprintf+0x71c>
    2d68:	29001316 	blt	r5,r4,2db8 <_vsnprintf+0x364>
    2d6c:	01401c04 	movi	r5,112
    2d70:	21414b1e 	bne	r4,r5,32a0 <_vsnprintf+0x84c>
        if (is_ll) {
          idx = _ntoa_long_long(out, buffer, idx, maxlen, (uintptr_t)va_arg(va, void*), false, 16U, precision, width, flags);
        }
        else {
#endif
          idx = _ntoa_long(out, buffer, idx, maxlen, (unsigned long)((uintptr_t)va_arg(va, void*)), false, 16U, precision, width, flags);
    2d74:	d8800315 	stw	r2,12(sp)
    2d78:	84000854 	ori	r16,r16,33
    2d7c:	01000204 	movi	r4,8
    2d80:	00800404 	movi	r2,16
    2d84:	d9000415 	stw	r4,16(sp)
    2d88:	dc000515 	stw	r16,20(sp)
    2d8c:	d8800215 	stw	r2,8(sp)
    2d90:	d8000115 	stw	zero,4(sp)
    2d94:	e0800017 	ldw	r2,0(fp)
    2d98:	900f883a 	mov	r7,r18
    2d9c:	b00d883a 	mov	r6,r22
    2da0:	d8800015 	stw	r2,0(sp)
    2da4:	a00b883a 	mov	r5,r20
    2da8:	9809883a 	mov	r4,r19
    2dac:	e5c00104 	addi	r23,fp,4
    2db0:	0001bcc0 	call	1bcc <_ntoa_long>
    2db4:	00013606 	br	3290 <_vsnprintf+0x83c>
      default :
        break;
    }

    // evaluate specifier
    switch (*format) {
    2db8:	01401d44 	movi	r5,117
    2dbc:	21400226 	beq	r4,r5,2dc8 <_vsnprintf+0x374>
    2dc0:	01401e04 	movi	r5,120
    2dc4:	2141361e 	bne	r4,r5,32a0 <_vsnprintf+0x84c>
      case 'X' :
      case 'o' :
      case 'b' : {
        // set the base
        unsigned int base;
        if (*format == 'x' || *format == 'X') {
    2dc8:	01401e04 	movi	r5,120
    2dcc:	21400f26 	beq	r4,r5,2e0c <_vsnprintf+0x3b8>
    2dd0:	01401604 	movi	r5,88
    2dd4:	21400c26 	beq	r4,r5,2e08 <_vsnprintf+0x3b4>
          base = 16U;
        }
        else if (*format == 'o') {
    2dd8:	01401bc4 	movi	r5,111
    2ddc:	21414726 	beq	r4,r5,32fc <_vsnprintf+0x8a8>
          base =  8U;
        }
        else if (*format == 'b') {
    2de0:	01401884 	movi	r5,98
    2de4:	21414726 	beq	r4,r5,3304 <_vsnprintf+0x8b0>
          base =  2U;
        }
        else {
          base = 10U;
          flags &= ~FLAGS_HASH;   // no hash for dec format
    2de8:	017ffbc4 	movi	r5,-17
    2dec:	8160703a 	and	r16,r16,r5
        if (*format == 'X') {
          flags |= FLAGS_UPPERCASE;
        }

        // no plus or space flag for u, x, X, o, b
        if ((*format != 'i') && (*format != 'd')) {
    2df0:	01401a44 	movi	r5,105
        }
        else if (*format == 'b') {
          base =  2U;
        }
        else {
          base = 10U;
    2df4:	01800284 	movi	r6,10
        if (*format == 'X') {
          flags |= FLAGS_UPPERCASE;
        }

        // no plus or space flag for u, x, X, o, b
        if ((*format != 'i') && (*format != 'd')) {
    2df8:	21400726 	beq	r4,r5,2e18 <_vsnprintf+0x3c4>
    2dfc:	01401904 	movi	r5,100
    2e00:	21400526 	beq	r4,r5,2e18 <_vsnprintf+0x3c4>
    2e04:	00000206 	br	2e10 <_vsnprintf+0x3bc>
          base = 10U;
          flags &= ~FLAGS_HASH;   // no hash for dec format
        }
        // uppercase
        if (*format == 'X') {
          flags |= FLAGS_UPPERCASE;
    2e08:	84000814 	ori	r16,r16,32
      case 'o' :
      case 'b' : {
        // set the base
        unsigned int base;
        if (*format == 'x' || *format == 'X') {
          base = 16U;
    2e0c:	01800404 	movi	r6,16
          flags |= FLAGS_UPPERCASE;
        }

        // no plus or space flag for u, x, X, o, b
        if ((*format != 'i') && (*format != 'd')) {
          flags &= ~(FLAGS_PLUS | FLAGS_SPACE);
    2e10:	017ffcc4 	movi	r5,-13
    2e14:	8160703a 	and	r16,r16,r5
        }

        // ignore '0' flag when precision is given
        if (flags & FLAGS_PRECISION) {
    2e18:	8141000c 	andi	r5,r16,1024
    2e1c:	28000226 	beq	r5,zero,2e28 <_vsnprintf+0x3d4>
          flags &= ~FLAGS_ZEROPAD;
    2e20:	017fff84 	movi	r5,-2
    2e24:	8160703a 	and	r16,r16,r5
        }

        // convert the integer
        if ((*format == 'i') || (*format == 'd')) {
    2e28:	01c01a44 	movi	r7,105
    2e2c:	8140800c 	andi	r5,r16,512
    2e30:	21c00226 	beq	r4,r7,2e3c <_vsnprintf+0x3e8>
    2e34:	01c01904 	movi	r7,100
    2e38:	21c0391e 	bne	r4,r7,2f20 <_vsnprintf+0x4cc>
          // signed
          if (flags & FLAGS_LONG_LONG) {
    2e3c:	28001226 	beq	r5,zero,2e88 <_vsnprintf+0x434>
#if defined(PRINTF_SUPPORT_LONG_LONG)
            const long long value = va_arg(va, long long);
    2e40:	e1000117 	ldw	r4,4(fp)
    2e44:	e1400017 	ldw	r5,0(fp)
            idx = _ntoa_long_long(out, buffer, idx, maxlen, (unsigned long long)(value > 0 ? value : 0 - value), value < 0, base, precision, width, flags);
    2e48:	d8800515 	stw	r2,20(sp)
    2e4c:	2004d7fa 	srli	r2,r4,31
    2e50:	dc000715 	stw	r16,28(sp)
    2e54:	dd400615 	stw	r21,24(sp)
    2e58:	d8800215 	stw	r2,8(sp)
    2e5c:	d9800315 	stw	r6,12(sp)
    2e60:	d8000415 	stw	zero,16(sp)
        // convert the integer
        if ((*format == 'i') || (*format == 'd')) {
          // signed
          if (flags & FLAGS_LONG_LONG) {
#if defined(PRINTF_SUPPORT_LONG_LONG)
            const long long value = va_arg(va, long long);
    2e64:	e5c00204 	addi	r23,fp,8
            idx = _ntoa_long_long(out, buffer, idx, maxlen, (unsigned long long)(value > 0 ? value : 0 - value), value < 0, base, precision, width, flags);
    2e68:	2005883a 	mov	r2,r4
    2e6c:	2000040e 	bge	r4,zero,2e80 <_vsnprintf+0x42c>
    2e70:	014bc83a 	sub	r5,zero,r5
    2e74:	2808c03a 	cmpne	r4,r5,zero
    2e78:	0085c83a 	sub	r2,zero,r2
    2e7c:	1105c83a 	sub	r2,r2,r4
    2e80:	d9400015 	stw	r5,0(sp)
    2e84:	00003106 	br	2f4c <_vsnprintf+0x4f8>
#endif
          }
          else if (flags & FLAGS_LONG) {
    2e88:	8100400c 	andi	r4,r16,256
    2e8c:	e5c00104 	addi	r23,fp,4
    2e90:	20000b26 	beq	r4,zero,2ec0 <_vsnprintf+0x46c>
            const long value = va_arg(va, long);
    2e94:	e1000017 	ldw	r4,0(fp)
            idx = _ntoa_long(out, buffer, idx, maxlen, (unsigned long)(value > 0 ? value : 0 - value), value < 0, base, precision, width, flags);
    2e98:	d8800315 	stw	r2,12(sp)
    2e9c:	dc000515 	stw	r16,20(sp)
    2ea0:	2004d7fa 	srli	r2,r4,31
    2ea4:	dd400415 	stw	r21,16(sp)
    2ea8:	d9800215 	stw	r6,8(sp)
    2eac:	d8800115 	stw	r2,4(sp)
    2eb0:	2005883a 	mov	r2,r4
    2eb4:	2000370e 	bge	r4,zero,2f94 <_vsnprintf+0x540>
    2eb8:	0105c83a 	sub	r2,zero,r4
    2ebc:	00003506 	br	2f94 <_vsnprintf+0x540>
          }
          else {
            const int value = (flags & FLAGS_CHAR) ? (char)va_arg(va, int) : (flags & FLAGS_SHORT) ? (short int)va_arg(va, int) : va_arg(va, int);
    2ec0:	8140100c 	andi	r5,r16,64
    2ec4:	e1000017 	ldw	r4,0(fp)
    2ec8:	28000426 	beq	r5,zero,2edc <_vsnprintf+0x488>
    2ecc:	21003fcc 	andi	r4,r4,255
    2ed0:	2100201c 	xori	r4,r4,128
    2ed4:	213fe004 	addi	r4,r4,-128
    2ed8:	00000506 	br	2ef0 <_vsnprintf+0x49c>
    2edc:	8140200c 	andi	r5,r16,128
    2ee0:	28000326 	beq	r5,zero,2ef0 <_vsnprintf+0x49c>
    2ee4:	213fffcc 	andi	r4,r4,65535
    2ee8:	2120001c 	xori	r4,r4,32768
    2eec:	21200004 	addi	r4,r4,-32768
            idx = _ntoa_long(out, buffer, idx, maxlen, (unsigned int)(value > 0 ? value : 0 - value), value < 0, base, precision, width, flags);
    2ef0:	d8800315 	stw	r2,12(sp)
    2ef4:	2004d7fa 	srli	r2,r4,31
    2ef8:	dc000515 	stw	r16,20(sp)
    2efc:	dd400415 	stw	r21,16(sp)
    2f00:	d8800115 	stw	r2,4(sp)
    2f04:	d9800215 	stw	r6,8(sp)
          else if (flags & FLAGS_LONG) {
            const long value = va_arg(va, long);
            idx = _ntoa_long(out, buffer, idx, maxlen, (unsigned long)(value > 0 ? value : 0 - value), value < 0, base, precision, width, flags);
          }
          else {
            const int value = (flags & FLAGS_CHAR) ? (char)va_arg(va, int) : (flags & FLAGS_SHORT) ? (short int)va_arg(va, int) : va_arg(va, int);
    2f08:	b839883a 	mov	fp,r23
            idx = _ntoa_long(out, buffer, idx, maxlen, (unsigned int)(value > 0 ? value : 0 - value), value < 0, base, precision, width, flags);
    2f0c:	2005883a 	mov	r2,r4
    2f10:	2000010e 	bge	r4,zero,2f18 <_vsnprintf+0x4c4>
    2f14:	0105c83a 	sub	r2,zero,r4
    2f18:	d8800015 	stw	r2,0(sp)
    2f1c:	00003306 	br	2fec <_vsnprintf+0x598>
          }
        }
        else {
          // unsigned
          if (flags & FLAGS_LONG_LONG) {
    2f20:	28001326 	beq	r5,zero,2f70 <_vsnprintf+0x51c>
#if defined(PRINTF_SUPPORT_LONG_LONG)
            idx = _ntoa_long_long(out, buffer, idx, maxlen, va_arg(va, unsigned long long), false, base, precision, width, flags);
    2f24:	dc000715 	stw	r16,28(sp)
    2f28:	dd400615 	stw	r21,24(sp)
    2f2c:	d8800515 	stw	r2,20(sp)
    2f30:	d9800315 	stw	r6,12(sp)
    2f34:	d8000415 	stw	zero,16(sp)
    2f38:	d8000215 	stw	zero,8(sp)
    2f3c:	e0800017 	ldw	r2,0(fp)
    2f40:	e5c00204 	addi	r23,fp,8
    2f44:	d8800015 	stw	r2,0(sp)
    2f48:	e0800117 	ldw	r2,4(fp)
    2f4c:	d8800115 	stw	r2,4(sp)
    2f50:	900f883a 	mov	r7,r18
    2f54:	b00d883a 	mov	r6,r22
    2f58:	a00b883a 	mov	r5,r20
    2f5c:	9809883a 	mov	r4,r19
    2f60:	0001d400 	call	1d40 <_ntoa_long_long>
    2f64:	102d883a 	mov	r22,r2
    2f68:	b839883a 	mov	fp,r23
    2f6c:	00002506 	br	3004 <_vsnprintf+0x5b0>
#endif
          }
          else if (flags & FLAGS_LONG) {
    2f70:	8100400c 	andi	r4,r16,256
    2f74:	e5c00104 	addi	r23,fp,4
    2f78:	20000d26 	beq	r4,zero,2fb0 <_vsnprintf+0x55c>
            idx = _ntoa_long(out, buffer, idx, maxlen, va_arg(va, unsigned long), false, base, precision, width, flags);
    2f7c:	dc000515 	stw	r16,20(sp)
    2f80:	dd400415 	stw	r21,16(sp)
    2f84:	d8800315 	stw	r2,12(sp)
    2f88:	d9800215 	stw	r6,8(sp)
    2f8c:	d8000115 	stw	zero,4(sp)
    2f90:	e0800017 	ldw	r2,0(fp)
    2f94:	d8800015 	stw	r2,0(sp)
    2f98:	900f883a 	mov	r7,r18
    2f9c:	b00d883a 	mov	r6,r22
    2fa0:	a00b883a 	mov	r5,r20
    2fa4:	9809883a 	mov	r4,r19
    2fa8:	0001bcc0 	call	1bcc <_ntoa_long>
    2fac:	003fed06 	br	2f64 <__ram_exceptions_end+0xfe000f44>
          }
          else {
            const unsigned int value = (flags & FLAGS_CHAR) ? (unsigned char)va_arg(va, unsigned int) : (flags & FLAGS_SHORT) ? (unsigned short int)va_arg(va, unsigned int) : va_arg(va, unsigned int);
    2fb0:	8140100c 	andi	r5,r16,64
    2fb4:	e1000017 	ldw	r4,0(fp)
    2fb8:	28000226 	beq	r5,zero,2fc4 <_vsnprintf+0x570>
    2fbc:	21003fcc 	andi	r4,r4,255
    2fc0:	00000306 	br	2fd0 <_vsnprintf+0x57c>
    2fc4:	8140200c 	andi	r5,r16,128
    2fc8:	28000126 	beq	r5,zero,2fd0 <_vsnprintf+0x57c>
    2fcc:	213fffcc 	andi	r4,r4,65535
    2fd0:	b839883a 	mov	fp,r23
            idx = _ntoa_long(out, buffer, idx, maxlen, value, false, base, precision, width, flags);
    2fd4:	dc000515 	stw	r16,20(sp)
    2fd8:	dd400415 	stw	r21,16(sp)
    2fdc:	d8800315 	stw	r2,12(sp)
    2fe0:	d9800215 	stw	r6,8(sp)
    2fe4:	d8000115 	stw	zero,4(sp)
    2fe8:	d9000015 	stw	r4,0(sp)
    2fec:	b00d883a 	mov	r6,r22
    2ff0:	900f883a 	mov	r7,r18
    2ff4:	a00b883a 	mov	r5,r20
    2ff8:	9809883a 	mov	r4,r19
    2ffc:	0001bcc0 	call	1bcc <_ntoa_long>
    3000:	102d883a 	mov	r22,r2
          }
        }
        format++;
    3004:	89c00044 	addi	r7,r17,1
        break;
    3008:	003ea606 	br	2aa4 <__ram_exceptions_end+0xfe000a84>
      }
#if defined(PRINTF_SUPPORT_FLOAT)
      case 'f' :
      case 'F' :
        if (*format == 'F') flags |= FLAGS_UPPERCASE;
    300c:	01401184 	movi	r5,70
    3010:	2140011e 	bne	r4,r5,3018 <_vsnprintf+0x5c4>
    3014:	84000814 	ori	r16,r16,32
        idx = _ftoa(out, buffer, idx, maxlen, va_arg(va, double), precision, width, flags);
    3018:	dc000415 	stw	r16,16(sp)
    301c:	dd400315 	stw	r21,12(sp)
    3020:	d8800215 	stw	r2,8(sp)
    3024:	e0800017 	ldw	r2,0(fp)
    3028:	900f883a 	mov	r7,r18
    302c:	b00d883a 	mov	r6,r22
    3030:	d8800015 	stw	r2,0(sp)
    3034:	e0800117 	ldw	r2,4(fp)
    3038:	a00b883a 	mov	r5,r20
    303c:	9809883a 	mov	r4,r19
    3040:	d8800115 	stw	r2,4(sp)
    3044:	e5c00204 	addi	r23,fp,8
    3048:	0001f180 	call	1f18 <_ftoa>
    304c:	00009006 	br	3290 <_vsnprintf+0x83c>
#if defined(PRINTF_SUPPORT_EXPONENTIAL)
      case 'e':
      case 'E':
      case 'g':
      case 'G':
        if ((*format == 'g')||(*format == 'G')) flags |= FLAGS_ADAPT_EXP;
    3050:	017ff7c4 	movi	r5,-33
    3054:	394a703a 	and	r5,r7,r5
    3058:	29403fcc 	andi	r5,r5,255
    305c:	2940201c 	xori	r5,r5,128
    3060:	297fe004 	addi	r5,r5,-128
    3064:	028011c4 	movi	r10,71
    3068:	01801144 	movi	r6,69
    306c:	2a80061e 	bne	r5,r10,3088 <_vsnprintf+0x634>
        if ((*format == 'E')||(*format == 'G')) flags |= FLAGS_UPPERCASE;
    3070:	013fff44 	movi	r4,-3
    3074:	3908703a 	and	r4,r7,r4
    3078:	21003fcc 	andi	r4,r4,255
    307c:	2100201c 	xori	r4,r4,128
#if defined(PRINTF_SUPPORT_EXPONENTIAL)
      case 'e':
      case 'E':
      case 'g':
      case 'G':
        if ((*format == 'g')||(*format == 'G')) flags |= FLAGS_ADAPT_EXP;
    3080:	84020014 	ori	r16,r16,2048
        if ((*format == 'E')||(*format == 'G')) flags |= FLAGS_UPPERCASE;
    3084:	213fe004 	addi	r4,r4,-128
    3088:	2180011e 	bne	r4,r6,3090 <_vsnprintf+0x63c>
    308c:	84000814 	ori	r16,r16,32
        idx = _etoa(out, buffer, idx, maxlen, va_arg(va, double), precision, width, flags);
    3090:	dc000415 	stw	r16,16(sp)
    3094:	dd400315 	stw	r21,12(sp)
    3098:	d8800215 	stw	r2,8(sp)
    309c:	e0800017 	ldw	r2,0(fp)
    30a0:	900f883a 	mov	r7,r18
    30a4:	b00d883a 	mov	r6,r22
    30a8:	d8800015 	stw	r2,0(sp)
    30ac:	e0800117 	ldw	r2,4(fp)
    30b0:	a00b883a 	mov	r5,r20
    30b4:	9809883a 	mov	r4,r19
    30b8:	d8800115 	stw	r2,4(sp)
    30bc:	e5c00204 	addi	r23,fp,8
    30c0:	000244c0 	call	244c <_etoa>
    30c4:	00007206 	br	3290 <_vsnprintf+0x83c>
#endif  // PRINTF_SUPPORT_EXPONENTIAL
#endif  // PRINTF_SUPPORT_FLOAT
      case 'c' : {
        unsigned int l = 1U;
        // pre padding
        if (!(flags & FLAGS_LEFT)) {
    30c8:	8400008c 	andi	r16,r16,2
    30cc:	80000c1e 	bne	r16,zero,3100 <_vsnprintf+0x6ac>
    30d0:	002f883a 	mov	r23,zero
    30d4:	b5cd883a 	add	r6,r22,r23
    30d8:	b8c00084 	addi	r3,r23,2
    30dc:	bdc00044 	addi	r23,r23,1
          while (l++ < width) {
    30e0:	bd40052e 	bgeu	r23,r21,30f8 <_vsnprintf+0x6a4>
            out(' ', buffer, idx++, maxlen);
    30e4:	900f883a 	mov	r7,r18
    30e8:	a00b883a 	mov	r5,r20
    30ec:	01000804 	movi	r4,32
    30f0:	983ee83a 	callr	r19
    30f4:	003ff706 	br	30d4 <__ram_exceptions_end+0xfe0010b4>
    30f8:	302d883a 	mov	r22,r6
    30fc:	00000106 	br	3104 <_vsnprintf+0x6b0>
        format++;
        break;
#endif  // PRINTF_SUPPORT_EXPONENTIAL
#endif  // PRINTF_SUPPORT_FLOAT
      case 'c' : {
        unsigned int l = 1U;
    3100:	00c00044 	movi	r3,1
          while (l++ < width) {
            out(' ', buffer, idx++, maxlen);
          }
        }
        // char output
        out((char)va_arg(va, int), buffer, idx++, maxlen);
    3104:	e1000007 	ldb	r4,0(fp)
    3108:	b0800044 	addi	r2,r22,1
    310c:	d8800a15 	stw	r2,40(sp)
    3110:	d8c00915 	stw	r3,36(sp)
    3114:	900f883a 	mov	r7,r18
    3118:	b00d883a 	mov	r6,r22
    311c:	a00b883a 	mov	r5,r20
    3120:	983ee83a 	callr	r19
    3124:	e5c00104 	addi	r23,fp,4
        // post padding
        if (flags & FLAGS_LEFT) {
    3128:	d8800a17 	ldw	r2,40(sp)
    312c:	d8c00917 	ldw	r3,36(sp)
    3130:	80000c26 	beq	r16,zero,3164 <_vsnprintf+0x710>
    3134:	1f3fffc4 	addi	fp,r3,-1
    3138:	e5b9c83a 	sub	fp,fp,r22
          while (l++ < width) {
    313c:	1707883a 	add	r3,r2,fp
    3140:	1d40082e 	bgeu	r3,r21,3164 <_vsnprintf+0x710>
            out(' ', buffer, idx++, maxlen);
    3144:	100d883a 	mov	r6,r2
    3148:	900f883a 	mov	r7,r18
    314c:	a00b883a 	mov	r5,r20
    3150:	01000804 	movi	r4,32
    3154:	14000044 	addi	r16,r2,1
    3158:	983ee83a 	callr	r19
    315c:	8005883a 	mov	r2,r16
    3160:	003ff606 	br	313c <__ram_exceptions_end+0xfe00111c>
          }
        }
        format++;
    3164:	89c00044 	addi	r7,r17,1
        break;
    3168:	102d883a 	mov	r22,r2
    316c:	00004a06 	br	3298 <_vsnprintf+0x844>
      }

      case 's' : {
        const char* p = va_arg(va, char*);
    3170:	e0c00104 	addi	r3,fp,4
    3174:	d8c00815 	stw	r3,32(sp)
    3178:	e2800017 	ldw	r10,0(fp)
        unsigned int l = _strnlen_s(p, precision ? precision : (size_t)-1);
    317c:	1000021e 	bne	r2,zero,3188 <_vsnprintf+0x734>
    3180:	013fffc4 	movi	r4,-1
    3184:	00000106 	br	318c <_vsnprintf+0x738>
    3188:	1009883a 	mov	r4,r2
    318c:	5109883a 	add	r4,r10,r4
    3190:	5011883a 	mov	r8,r10
// internal secure strlen
// \return The length of the string (excluding the terminating 0) limited by 'maxsize'
static inline unsigned int _strnlen_s(const char* str, size_t maxsize)
{
  const char* s;
  for (s = str; *s && maxsize--; ++s);
    3194:	41400007 	ldb	r5,0(r8)
    3198:	28000326 	beq	r5,zero,31a8 <_vsnprintf+0x754>
    319c:	41000226 	beq	r8,r4,31a8 <_vsnprintf+0x754>
    31a0:	42000044 	addi	r8,r8,1
    31a4:	003ffb06 	br	3194 <__ram_exceptions_end+0xfe001174>

      case 's' : {
        const char* p = va_arg(va, char*);
        unsigned int l = _strnlen_s(p, precision ? precision : (size_t)-1);
        // pre padding
        if (flags & FLAGS_PRECISION) {
    31a8:	85c1000c 	andi	r23,r16,1024
// \return The length of the string (excluding the terminating 0) limited by 'maxsize'
static inline unsigned int _strnlen_s(const char* str, size_t maxsize)
{
  const char* s;
  for (s = str; *s && maxsize--; ++s);
  return (unsigned int)(s - str);
    31ac:	42b9c83a 	sub	fp,r8,r10

      case 's' : {
        const char* p = va_arg(va, char*);
        unsigned int l = _strnlen_s(p, precision ? precision : (size_t)-1);
        // pre padding
        if (flags & FLAGS_PRECISION) {
    31b0:	b8000226 	beq	r23,zero,31bc <_vsnprintf+0x768>
          l = (l < precision ? l : precision);
    31b4:	1700012e 	bgeu	r2,fp,31bc <_vsnprintf+0x768>
    31b8:	1039883a 	mov	fp,r2
        }
        if (!(flags & FLAGS_LEFT)) {
    31bc:	8400008c 	andi	r16,r16,2
    31c0:	8000111e 	bne	r16,zero,3208 <_vsnprintf+0x7b4>
    31c4:	e009883a 	mov	r4,fp
    31c8:	b739c83a 	sub	fp,r22,fp
    31cc:	270d883a 	add	r6,r4,fp
          while (l++ < width) {
    31d0:	25800044 	addi	r22,r4,1
    31d4:	25400a2e 	bgeu	r4,r21,3200 <_vsnprintf+0x7ac>
            out(' ', buffer, idx++, maxlen);
    31d8:	01000804 	movi	r4,32
    31dc:	d8800a15 	stw	r2,40(sp)
    31e0:	da800915 	stw	r10,36(sp)
    31e4:	900f883a 	mov	r7,r18
    31e8:	a00b883a 	mov	r5,r20
    31ec:	983ee83a 	callr	r19
        // pre padding
        if (flags & FLAGS_PRECISION) {
          l = (l < precision ? l : precision);
        }
        if (!(flags & FLAGS_LEFT)) {
          while (l++ < width) {
    31f0:	b009883a 	mov	r4,r22
    31f4:	da800917 	ldw	r10,36(sp)
    31f8:	d8800a17 	ldw	r2,40(sp)
    31fc:	003ff306 	br	31cc <__ram_exceptions_end+0xfe0011ac>
    3200:	b039883a 	mov	fp,r22
    3204:	302d883a 	mov	r22,r6
    3208:	b2adc83a 	sub	r22,r22,r10
            out(' ', buffer, idx++, maxlen);
          }
        }
        // string output
        while ((*p != 0) && (!(flags & FLAGS_PRECISION) || precision--)) {
    320c:	51000007 	ldb	r4,0(r10)
    3210:	558d883a 	add	r6,r10,r22
    3214:	20000e26 	beq	r4,zero,3250 <_vsnprintf+0x7fc>
    3218:	b800091e 	bne	r23,zero,3240 <_vsnprintf+0x7ec>
          out(*(p++), buffer, idx++, maxlen);
    321c:	52800044 	addi	r10,r10,1
    3220:	d8800a15 	stw	r2,40(sp)
    3224:	da800915 	stw	r10,36(sp)
    3228:	900f883a 	mov	r7,r18
    322c:	a00b883a 	mov	r5,r20
    3230:	983ee83a 	callr	r19
    3234:	da800917 	ldw	r10,36(sp)
    3238:	d8800a17 	ldw	r2,40(sp)
    323c:	003ff306 	br	320c <__ram_exceptions_end+0xfe0011ec>
          while (l++ < width) {
            out(' ', buffer, idx++, maxlen);
          }
        }
        // string output
        while ((*p != 0) && (!(flags & FLAGS_PRECISION) || precision--)) {
    3240:	117fffc4 	addi	r5,r2,-1
    3244:	10000226 	beq	r2,zero,3250 <_vsnprintf+0x7fc>
    3248:	2805883a 	mov	r2,r5
    324c:	003ff306 	br	321c <__ram_exceptions_end+0xfe0011fc>
    3250:	302d883a 	mov	r22,r6
          out(*(p++), buffer, idx++, maxlen);
        }
        // post padding
        if (flags & FLAGS_LEFT) {
    3254:	80000b26 	beq	r16,zero,3284 <_vsnprintf+0x830>
    3258:	e1a1c83a 	sub	r16,fp,r6
          while (l++ < width) {
    325c:	b405883a 	add	r2,r22,r16
    3260:	1540082e 	bgeu	r2,r21,3284 <_vsnprintf+0x830>
            out(' ', buffer, idx++, maxlen);
    3264:	b00d883a 	mov	r6,r22
    3268:	b5c00044 	addi	r23,r22,1
    326c:	900f883a 	mov	r7,r18
    3270:	a00b883a 	mov	r5,r20
    3274:	01000804 	movi	r4,32
    3278:	983ee83a 	callr	r19
    327c:	b82d883a 	mov	r22,r23
    3280:	003ff606 	br	325c <__ram_exceptions_end+0xfe00123c>
          }
        }
        format++;
    3284:	89c00044 	addi	r7,r17,1
        format++;
        break;
      }

      case 's' : {
        const char* p = va_arg(va, char*);
    3288:	df000817 	ldw	fp,32(sp)
          while (l++ < width) {
            out(' ', buffer, idx++, maxlen);
          }
        }
        format++;
        break;
    328c:	003e0506 	br	2aa4 <__ram_exceptions_end+0xfe000a84>
        if (is_ll) {
          idx = _ntoa_long_long(out, buffer, idx, maxlen, (uintptr_t)va_arg(va, void*), false, 16U, precision, width, flags);
        }
        else {
#endif
          idx = _ntoa_long(out, buffer, idx, maxlen, (unsigned long)((uintptr_t)va_arg(va, void*)), false, 16U, precision, width, flags);
    3290:	102d883a 	mov	r22,r2
#if defined(PRINTF_SUPPORT_LONG_LONG)
        }
#endif
        format++;
    3294:	89c00044 	addi	r7,r17,1
        if (is_ll) {
          idx = _ntoa_long_long(out, buffer, idx, maxlen, (uintptr_t)va_arg(va, void*), false, 16U, precision, width, flags);
        }
        else {
#endif
          idx = _ntoa_long(out, buffer, idx, maxlen, (unsigned long)((uintptr_t)va_arg(va, void*)), false, 16U, precision, width, flags);
    3298:	b839883a 	mov	fp,r23
#if defined(PRINTF_SUPPORT_LONG_LONG)
        }
#endif
        format++;
        break;
    329c:	003e0106 	br	2aa4 <__ram_exceptions_end+0xfe000a84>
        out('%', buffer, idx++, maxlen);
        format++;
        break;

      default :
        out(*format, buffer, idx++, maxlen);
    32a0:	b4000044 	addi	r16,r22,1
    32a4:	900f883a 	mov	r7,r18
    32a8:	b00d883a 	mov	r6,r22
    32ac:	a00b883a 	mov	r5,r20
    32b0:	003e4b06 	br	2be0 <__ram_exceptions_end+0xfe000bc0>
    32b4:	002b883a 	mov	r21,zero

// internal ASCII string to unsigned int conversion
static unsigned int _atoi(const char** str)
{
  unsigned int i = 0U;
  while (_is_digit(**str)) {
    32b8:	2823883a 	mov	r17,r5
    32bc:	b8c00003 	ldbu	r3,0(r23)
    32c0:	18bff404 	addi	r2,r3,-48
    32c4:	10803fcc 	andi	r2,r2,255
    32c8:	88be6136 	bltu	r17,r2,2c50 <__ram_exceptions_end+0xfe000c30>
    32cc:	a809883a 	mov	r4,r21
    32d0:	01400284 	movi	r5,10
    32d4:	d8c00915 	stw	r3,36(sp)
    32d8:	0004dbc0 	call	4dbc <__mulsi3>
    i = i * 10U + (unsigned int)(*((*str)++) - '0');
    32dc:	d8c00917 	ldw	r3,36(sp)
    32e0:	10bff404 	addi	r2,r2,-48
    32e4:	bdc00044 	addi	r23,r23,1
    32e8:	18c03fcc 	andi	r3,r3,255
    32ec:	18c0201c 	xori	r3,r3,128
    32f0:	18ffe004 	addi	r3,r3,-128
    32f4:	18ab883a 	add	r21,r3,r2
    32f8:	003ff006 	br	32bc <__ram_exceptions_end+0xfe00129c>
        unsigned int base;
        if (*format == 'x' || *format == 'X') {
          base = 16U;
        }
        else if (*format == 'o') {
          base =  8U;
    32fc:	01800204 	movi	r6,8
    3300:	003ebe06 	br	2dfc <__ram_exceptions_end+0xfe000ddc>
        }
        else if (*format == 'b') {
          base =  2U;
    3304:	01800084 	movi	r6,2
    3308:	003ebc06 	br	2dfc <__ram_exceptions_end+0xfe000ddc>
        break;
    }
  }

  // termination
  out((char)0, buffer, idx < maxlen ? idx : maxlen - 1U, maxlen);
    330c:	900f883a 	mov	r7,r18
    3310:	a00b883a 	mov	r5,r20
    3314:	0009883a 	mov	r4,zero
    3318:	983ee83a 	callr	r19

  // return written chars without terminating \0
  return (int)idx;
}
    331c:	b005883a 	mov	r2,r22
    3320:	dfc01417 	ldw	ra,80(sp)
    3324:	df001317 	ldw	fp,76(sp)
    3328:	ddc01217 	ldw	r23,72(sp)
    332c:	dd801117 	ldw	r22,68(sp)
    3330:	dd401017 	ldw	r21,64(sp)
    3334:	dd000f17 	ldw	r20,60(sp)
    3338:	dcc00e17 	ldw	r19,56(sp)
    333c:	dc800d17 	ldw	r18,52(sp)
    3340:	dc400c17 	ldw	r17,48(sp)
    3344:	dc000b17 	ldw	r16,44(sp)
    3348:	dec01504 	addi	sp,sp,84
    334c:	f800283a 	ret

00003350 <printf_>:


///////////////////////////////////////////////////////////////////////////////

int printf_(const char* format, ...)
{
    3350:	defffa04 	addi	sp,sp,-24
    3354:	dfc00215 	stw	ra,8(sp)
    3358:	d9400315 	stw	r5,12(sp)
    335c:	d9800415 	stw	r6,16(sp)
    3360:	d9c00515 	stw	r7,20(sp)
  va_list va;
  va_start(va, format);
  char buffer[1];
  const int ret = _vsnprintf(_out_char, buffer, (size_t)-1, format, va);
    3364:	d8800304 	addi	r2,sp,12
    3368:	200f883a 	mov	r7,r4
    336c:	01000034 	movhi	r4,0
    3370:	d8800015 	stw	r2,0(sp)
    3374:	01bfffc4 	movi	r6,-1
    3378:	d9400104 	addi	r5,sp,4
    337c:	2107b804 	addi	r4,r4,7904
    3380:	0002a540 	call	2a54 <_vsnprintf>
  va_end(va);
  return ret;
}
    3384:	dfc00217 	ldw	ra,8(sp)
    3388:	dec00604 	addi	sp,sp,24
    338c:	f800283a 	ret

00003390 <sprintf_>:


int sprintf_(char* buffer, const char* format, ...)
{
    3390:	defffc04 	addi	sp,sp,-16
    3394:	dfc00115 	stw	ra,4(sp)
    3398:	d9800215 	stw	r6,8(sp)
    339c:	d9c00315 	stw	r7,12(sp)
  va_list va;
  va_start(va, format);
  const int ret = _vsnprintf(_out_buffer, buffer, (size_t)-1, format, va);
    33a0:	d8800204 	addi	r2,sp,8
    33a4:	280f883a 	mov	r7,r5
    33a8:	200b883a 	mov	r5,r4
    33ac:	01000034 	movhi	r4,0
    33b0:	d8800015 	stw	r2,0(sp)
    33b4:	01bfffc4 	movi	r6,-1
    33b8:	21064204 	addi	r4,r4,6408
    33bc:	0002a540 	call	2a54 <_vsnprintf>
  va_end(va);
  return ret;
}
    33c0:	dfc00117 	ldw	ra,4(sp)
    33c4:	dec00404 	addi	sp,sp,16
    33c8:	f800283a 	ret

000033cc <snprintf_>:


int snprintf_(char* buffer, size_t count, const char* format, ...)
{
    33cc:	defffd04 	addi	sp,sp,-12
    33d0:	dfc00115 	stw	ra,4(sp)
    33d4:	d9c00215 	stw	r7,8(sp)
  va_list va;
  va_start(va, format);
  const int ret = _vsnprintf(_out_buffer, buffer, count, format, va);
    33d8:	d8800204 	addi	r2,sp,8
    33dc:	300f883a 	mov	r7,r6
    33e0:	280d883a 	mov	r6,r5
    33e4:	200b883a 	mov	r5,r4
    33e8:	01000034 	movhi	r4,0
    33ec:	d8800015 	stw	r2,0(sp)
    33f0:	21064204 	addi	r4,r4,6408
    33f4:	0002a540 	call	2a54 <_vsnprintf>
  va_end(va);
  return ret;
}
    33f8:	dfc00117 	ldw	ra,4(sp)
    33fc:	dec00304 	addi	sp,sp,12
    3400:	f800283a 	ret

00003404 <vprintf_>:


int vprintf_(const char* format, va_list va)
{
    3404:	defffd04 	addi	sp,sp,-12
  char buffer[1];
  return _vsnprintf(_out_char, buffer, (size_t)-1, format, va);
    3408:	200f883a 	mov	r7,r4
    340c:	01000034 	movhi	r4,0
    3410:	d9400015 	stw	r5,0(sp)
    3414:	01bfffc4 	movi	r6,-1
    3418:	d9400104 	addi	r5,sp,4
    341c:	2107b804 	addi	r4,r4,7904
  return ret;
}


int vprintf_(const char* format, va_list va)
{
    3420:	dfc00215 	stw	ra,8(sp)
  char buffer[1];
  return _vsnprintf(_out_char, buffer, (size_t)-1, format, va);
    3424:	0002a540 	call	2a54 <_vsnprintf>
}
    3428:	dfc00217 	ldw	ra,8(sp)
    342c:	dec00304 	addi	sp,sp,12
    3430:	f800283a 	ret

00003434 <vsnprintf_>:


int vsnprintf_(char* buffer, size_t count, const char* format, va_list va)
{
    3434:	defffe04 	addi	sp,sp,-8
  return _vsnprintf(_out_buffer, buffer, count, format, va);
    3438:	d9c00015 	stw	r7,0(sp)
    343c:	300f883a 	mov	r7,r6
    3440:	280d883a 	mov	r6,r5
    3444:	200b883a 	mov	r5,r4
    3448:	01000034 	movhi	r4,0
    344c:	21064204 	addi	r4,r4,6408
  return _vsnprintf(_out_char, buffer, (size_t)-1, format, va);
}


int vsnprintf_(char* buffer, size_t count, const char* format, va_list va)
{
    3450:	dfc00115 	stw	ra,4(sp)
  return _vsnprintf(_out_buffer, buffer, count, format, va);
    3454:	0002a540 	call	2a54 <_vsnprintf>
}
    3458:	dfc00117 	ldw	ra,4(sp)
    345c:	dec00204 	addi	sp,sp,8
    3460:	f800283a 	ret

00003464 <fctprintf>:


int fctprintf(void (*out)(char character, void* arg), void* arg, const char* format, ...)
{
    3464:	defffb04 	addi	sp,sp,-20
    3468:	dfc00315 	stw	ra,12(sp)
    346c:	d9c00415 	stw	r7,16(sp)
  va_list va;
  va_start(va, format);
  const out_fct_wrap_type out_fct_wrap = { out, arg };
    3470:	d9000115 	stw	r4,4(sp)
  const int ret = _vsnprintf(_out_fct, (char*)(uintptr_t)&out_fct_wrap, (size_t)-1, format, va);
    3474:	d8800404 	addi	r2,sp,16
    3478:	01000034 	movhi	r4,0

int fctprintf(void (*out)(char character, void* arg), void* arg, const char* format, ...)
{
  va_list va;
  va_start(va, format);
  const out_fct_wrap_type out_fct_wrap = { out, arg };
    347c:	d9400215 	stw	r5,8(sp)
  const int ret = _vsnprintf(_out_fct, (char*)(uintptr_t)&out_fct_wrap, (size_t)-1, format, va);
    3480:	300f883a 	mov	r7,r6
    3484:	d8800015 	stw	r2,0(sp)
    3488:	01bfffc4 	movi	r6,-1
    348c:	d9400104 	addi	r5,sp,4
    3490:	2107be04 	addi	r4,r4,7928
    3494:	0002a540 	call	2a54 <_vsnprintf>
  va_end(va);
  return ret;
}
    3498:	dfc00317 	ldw	ra,12(sp)
    349c:	dec00504 	addi	sp,sp,20
    34a0:	f800283a 	ret

000034a4 <expf>:
    34a4:	defff304 	addi	sp,sp,-52
    34a8:	dc800b15 	stw	r18,44(sp)
    34ac:	04800074 	movhi	r18,1
    34b0:	dc400a15 	stw	r17,40(sp)
    34b4:	dc000915 	stw	r16,36(sp)
    34b8:	dfc00c15 	stw	ra,48(sp)
    34bc:	94ad1a04 	addi	r18,r18,-19352
    34c0:	2023883a 	mov	r17,r4
    34c4:	00037880 	call	3788 <__ieee754_expf>
    34c8:	90c00017 	ldw	r3,0(r18)
    34cc:	1021883a 	mov	r16,r2
    34d0:	00bfffc4 	movi	r2,-1
    34d4:	18802a26 	beq	r3,r2,3580 <expf+0xdc>
    34d8:	8809883a 	mov	r4,r17
    34dc:	0003f640 	call	3f64 <finitef>
    34e0:	10002726 	beq	r2,zero,3580 <expf+0xdc>
    34e4:	0150ac74 	movhi	r5,17073
    34e8:	295c6004 	addi	r5,r5,29056
    34ec:	8809883a 	mov	r4,r17
    34f0:	00057640 	call	5764 <__gesf2>
    34f4:	00802916 	blt	zero,r2,359c <expf+0xf8>
    34f8:	0170b434 	movhi	r5,49872
    34fc:	297c6d44 	addi	r5,r5,-3659
    3500:	8809883a 	mov	r4,r17
    3504:	00058200 	call	5820 <__lesf2>
    3508:	10001d0e 	bge	r2,zero,3580 <expf+0xdc>
    350c:	00800104 	movi	r2,4
    3510:	d8800015 	stw	r2,0(sp)
    3514:	00800074 	movhi	r2,1
    3518:	8809883a 	mov	r4,r17
    351c:	10a49804 	addi	r2,r2,-28064
    3520:	d8800115 	stw	r2,4(sp)
    3524:	d8000815 	stw	zero,32(sp)
    3528:	0008cc00 	call	8cc0 <__extendsfdf2>
    352c:	91000017 	ldw	r4,0(r18)
    3530:	d8800415 	stw	r2,16(sp)
    3534:	d8800215 	stw	r2,8(sp)
    3538:	d8c00515 	stw	r3,20(sp)
    353c:	d8c00315 	stw	r3,12(sp)
    3540:	d8000615 	stw	zero,24(sp)
    3544:	d8000715 	stw	zero,28(sp)
    3548:	00800084 	movi	r2,2
    354c:	20802c26 	beq	r4,r2,3600 <expf+0x15c>
    3550:	d809883a 	mov	r4,sp
    3554:	0003f500 	call	3f50 <matherr>
    3558:	10002926 	beq	r2,zero,3600 <expf+0x15c>
    355c:	d8800817 	ldw	r2,32(sp)
    3560:	10000326 	beq	r2,zero,3570 <expf+0xcc>
    3564:	0008fdc0 	call	8fdc <__errno>
    3568:	d8c00817 	ldw	r3,32(sp)
    356c:	10c00015 	stw	r3,0(r2)
    3570:	d9000617 	ldw	r4,24(sp)
    3574:	d9400717 	ldw	r5,28(sp)
    3578:	0008dd00 	call	8dd0 <__truncdfsf2>
    357c:	00000106 	br	3584 <expf+0xe0>
    3580:	8005883a 	mov	r2,r16
    3584:	dfc00c17 	ldw	ra,48(sp)
    3588:	dc800b17 	ldw	r18,44(sp)
    358c:	dc400a17 	ldw	r17,40(sp)
    3590:	dc000917 	ldw	r16,36(sp)
    3594:	dec00d04 	addi	sp,sp,52
    3598:	f800283a 	ret
    359c:	008000c4 	movi	r2,3
    35a0:	d8800015 	stw	r2,0(sp)
    35a4:	00800074 	movhi	r2,1
    35a8:	8809883a 	mov	r4,r17
    35ac:	10a49804 	addi	r2,r2,-28064
    35b0:	d8800115 	stw	r2,4(sp)
    35b4:	d8000815 	stw	zero,32(sp)
    35b8:	0008cc00 	call	8cc0 <__extendsfdf2>
    35bc:	91000017 	ldw	r4,0(r18)
    35c0:	d8800415 	stw	r2,16(sp)
    35c4:	d8c00515 	stw	r3,20(sp)
    35c8:	d8800215 	stw	r2,8(sp)
    35cc:	d8c00315 	stw	r3,12(sp)
    35d0:	2000061e 	bne	r4,zero,35ec <expf+0x148>
    35d4:	00b80034 	movhi	r2,57344
    35d8:	d8800615 	stw	r2,24(sp)
    35dc:	0091fc34 	movhi	r2,18416
    35e0:	10bfffc4 	addi	r2,r2,-1
    35e4:	d8800715 	stw	r2,28(sp)
    35e8:	003fd906 	br	3550 <__ram_exceptions_end+0xfe001530>
    35ec:	009ffc34 	movhi	r2,32752
    35f0:	d8800715 	stw	r2,28(sp)
    35f4:	d8000615 	stw	zero,24(sp)
    35f8:	00800084 	movi	r2,2
    35fc:	20bfd41e 	bne	r4,r2,3550 <__ram_exceptions_end+0xfe001530>
    3600:	0008fdc0 	call	8fdc <__errno>
    3604:	00c00884 	movi	r3,34
    3608:	10c00015 	stw	r3,0(r2)
    360c:	003fd306 	br	355c <__ram_exceptions_end+0xfe00153c>

00003610 <logf>:
    3610:	defff304 	addi	sp,sp,-52
    3614:	dc800b15 	stw	r18,44(sp)
    3618:	04800074 	movhi	r18,1
    361c:	dc400a15 	stw	r17,40(sp)
    3620:	dc000915 	stw	r16,36(sp)
    3624:	dfc00c15 	stw	ra,48(sp)
    3628:	94ad1a04 	addi	r18,r18,-19352
    362c:	2023883a 	mov	r17,r4
    3630:	0003ab80 	call	3ab8 <__ieee754_logf>
    3634:	90c00017 	ldw	r3,0(r18)
    3638:	1021883a 	mov	r16,r2
    363c:	00bfffc4 	movi	r2,-1
    3640:	18800726 	beq	r3,r2,3660 <logf+0x50>
    3644:	8809883a 	mov	r4,r17
    3648:	0003f7c0 	call	3f7c <__fpclassifyf>
    364c:	10000426 	beq	r2,zero,3660 <logf+0x50>
    3650:	000b883a 	mov	r5,zero
    3654:	8809883a 	mov	r4,r17
    3658:	00057640 	call	5764 <__gesf2>
    365c:	0080070e 	bge	zero,r2,367c <logf+0x6c>
    3660:	8005883a 	mov	r2,r16
    3664:	dfc00c17 	ldw	ra,48(sp)
    3668:	dc800b17 	ldw	r18,44(sp)
    366c:	dc400a17 	ldw	r17,40(sp)
    3670:	dc000917 	ldw	r16,36(sp)
    3674:	dec00d04 	addi	sp,sp,52
    3678:	f800283a 	ret
    367c:	00800074 	movhi	r2,1
    3680:	8809883a 	mov	r4,r17
    3684:	10a49a04 	addi	r2,r2,-28056
    3688:	d8000815 	stw	zero,32(sp)
    368c:	d8800115 	stw	r2,4(sp)
    3690:	0008cc00 	call	8cc0 <__extendsfdf2>
    3694:	94000017 	ldw	r16,0(r18)
    3698:	d8800415 	stw	r2,16(sp)
    369c:	d8c00515 	stw	r3,20(sp)
    36a0:	d8800215 	stw	r2,8(sp)
    36a4:	d8c00315 	stw	r3,12(sp)
    36a8:	000b883a 	mov	r5,zero
    36ac:	8809883a 	mov	r4,r17
    36b0:	8000101e 	bne	r16,zero,36f4 <logf+0xe4>
    36b4:	00b80034 	movhi	r2,57344
    36b8:	d8800615 	stw	r2,24(sp)
    36bc:	00b1fc34 	movhi	r2,51184
    36c0:	10bfffc4 	addi	r2,r2,-1
    36c4:	d8800715 	stw	r2,28(sp)
    36c8:	00056ec0 	call	56ec <__eqsf2>
    36cc:	1000201e 	bne	r2,zero,3750 <logf+0x140>
    36d0:	00800084 	movi	r2,2
    36d4:	d8800015 	stw	r2,0(sp)
    36d8:	d809883a 	mov	r4,sp
    36dc:	0003f500 	call	3f50 <matherr>
    36e0:	1000151e 	bne	r2,zero,3738 <logf+0x128>
    36e4:	0008fdc0 	call	8fdc <__errno>
    36e8:	00c00884 	movi	r3,34
    36ec:	10c00015 	stw	r3,0(r2)
    36f0:	00001106 	br	3738 <logf+0x128>
    36f4:	00bffc34 	movhi	r2,65520
    36f8:	d8000615 	stw	zero,24(sp)
    36fc:	d8800715 	stw	r2,28(sp)
    3700:	00056ec0 	call	56ec <__eqsf2>
    3704:	10001826 	beq	r2,zero,3768 <logf+0x158>
    3708:	00800044 	movi	r2,1
    370c:	d8800015 	stw	r2,0(sp)
    3710:	00800084 	movi	r2,2
    3714:	8080101e 	bne	r16,r2,3758 <logf+0x148>
    3718:	0008fdc0 	call	8fdc <__errno>
    371c:	00c00844 	movi	r3,33
    3720:	10c00015 	stw	r3,0(r2)
    3724:	01000074 	movhi	r4,1
    3728:	21247f04 	addi	r4,r4,-28164
    372c:	0003f580 	call	3f58 <nan>
    3730:	d8800615 	stw	r2,24(sp)
    3734:	d8c00715 	stw	r3,28(sp)
    3738:	d8800817 	ldw	r2,32(sp)
    373c:	10000e1e 	bne	r2,zero,3778 <logf+0x168>
    3740:	d9000617 	ldw	r4,24(sp)
    3744:	d9400717 	ldw	r5,28(sp)
    3748:	0008dd00 	call	8dd0 <__truncdfsf2>
    374c:	003fc506 	br	3664 <__ram_exceptions_end+0xfe001644>
    3750:	00800044 	movi	r2,1
    3754:	d8800015 	stw	r2,0(sp)
    3758:	d809883a 	mov	r4,sp
    375c:	0003f500 	call	3f50 <matherr>
    3760:	103ff01e 	bne	r2,zero,3724 <__ram_exceptions_end+0xfe001704>
    3764:	003fec06 	br	3718 <__ram_exceptions_end+0xfe0016f8>
    3768:	00800084 	movi	r2,2
    376c:	d8800015 	stw	r2,0(sp)
    3770:	80bfdc26 	beq	r16,r2,36e4 <__ram_exceptions_end+0xfe0016c4>
    3774:	003fd806 	br	36d8 <__ram_exceptions_end+0xfe0016b8>
    3778:	0008fdc0 	call	8fdc <__errno>
    377c:	d8c00817 	ldw	r3,32(sp)
    3780:	10c00015 	stw	r3,0(r2)
    3784:	003fee06 	br	3740 <__ram_exceptions_end+0xfe001720>

00003788 <__ieee754_expf>:
    3788:	00a00034 	movhi	r2,32768
    378c:	defffa04 	addi	sp,sp,-24
    3790:	10bfffc4 	addi	r2,r2,-1
    3794:	dfc00515 	stw	ra,20(sp)
    3798:	dd000415 	stw	r20,16(sp)
    379c:	dcc00315 	stw	r19,12(sp)
    37a0:	dc800215 	stw	r18,8(sp)
    37a4:	dc400115 	stw	r17,4(sp)
    37a8:	dc000015 	stw	r16,0(sp)
    37ac:	00dfe034 	movhi	r3,32640
    37b0:	1104703a 	and	r2,r2,r4
    37b4:	200b883a 	mov	r5,r4
    37b8:	18807336 	bltu	r3,r2,3988 <__ieee754_expf+0x200>
    37bc:	2021883a 	mov	r16,r4
    37c0:	2022d7fa 	srli	r17,r4,31
    37c4:	10c07926 	beq	r2,r3,39ac <__ieee754_expf+0x224>
    37c8:	00d0ac74 	movhi	r3,17073
    37cc:	18dc85c4 	addi	r3,r3,29207
    37d0:	19008016 	blt	r3,r4,39d4 <__ieee754_expf+0x24c>
    37d4:	20007816 	blt	r4,zero,39b8 <__ieee754_expf+0x230>
    37d8:	00cfac74 	movhi	r3,16049
    37dc:	18dc8604 	addi	r3,r3,29208
    37e0:	18805b2e 	bgeu	r3,r2,3950 <__ieee754_expf+0x1c8>
    37e4:	00cfe174 	movhi	r3,16261
    37e8:	18c56444 	addi	r3,r3,5521
    37ec:	18808f36 	bltu	r3,r2,3a2c <__ieee754_expf+0x2a4>
    37f0:	8c67883a 	add	r19,r17,r17
    37f4:	00800074 	movhi	r2,1
    37f8:	9ce7883a 	add	r19,r19,r19
    37fc:	10ad1604 	addi	r2,r2,-19368
    3800:	14c5883a 	add	r2,r2,r19
    3804:	11400017 	ldw	r5,0(r2)
    3808:	8009883a 	mov	r4,r16
    380c:	0005d180 	call	5d18 <__subsf3>
    3810:	00c00074 	movhi	r3,1
    3814:	18ed1404 	addi	r3,r3,-19376
    3818:	1ce7883a 	add	r19,r3,r19
    381c:	1025883a 	mov	r18,r2
    3820:	9cc00017 	ldw	r19,0(r19)
    3824:	00800044 	movi	r2,1
    3828:	1445c83a 	sub	r2,r2,r17
    382c:	1463c83a 	sub	r17,r2,r17
    3830:	980b883a 	mov	r5,r19
    3834:	9009883a 	mov	r4,r18
    3838:	0005d180 	call	5d18 <__subsf3>
    383c:	1021883a 	mov	r16,r2
    3840:	800b883a 	mov	r5,r16
    3844:	8009883a 	mov	r4,r16
    3848:	00058e80 	call	58e8 <__mulsf3>
    384c:	014cccb4 	movhi	r5,13106
    3850:	296ed304 	addi	r5,r5,-17588
    3854:	1009883a 	mov	r4,r2
    3858:	1029883a 	mov	r20,r2
    385c:	00058e80 	call	58e8 <__mulsf3>
    3860:	014d77b4 	movhi	r5,13790
    3864:	297a8384 	addi	r5,r5,-5618
    3868:	1009883a 	mov	r4,r2
    386c:	0005d180 	call	5d18 <__subsf3>
    3870:	a00b883a 	mov	r5,r20
    3874:	1009883a 	mov	r4,r2
    3878:	00058e80 	call	58e8 <__mulsf3>
    387c:	014e22f4 	movhi	r5,14475
    3880:	296cd544 	addi	r5,r5,-19627
    3884:	1009883a 	mov	r4,r2
    3888:	0004de40 	call	4de4 <__addsf3>
    388c:	a00b883a 	mov	r5,r20
    3890:	1009883a 	mov	r4,r2
    3894:	00058e80 	call	58e8 <__mulsf3>
    3898:	014ecdb4 	movhi	r5,15158
    389c:	2942d844 	addi	r5,r5,2913
    38a0:	1009883a 	mov	r4,r2
    38a4:	0005d180 	call	5d18 <__subsf3>
    38a8:	a00b883a 	mov	r5,r20
    38ac:	1009883a 	mov	r4,r2
    38b0:	00058e80 	call	58e8 <__mulsf3>
    38b4:	014f8af4 	movhi	r5,15915
    38b8:	296aaac4 	addi	r5,r5,-21845
    38bc:	1009883a 	mov	r4,r2
    38c0:	0004de40 	call	4de4 <__addsf3>
    38c4:	a00b883a 	mov	r5,r20
    38c8:	1009883a 	mov	r4,r2
    38cc:	00058e80 	call	58e8 <__mulsf3>
    38d0:	100b883a 	mov	r5,r2
    38d4:	8009883a 	mov	r4,r16
    38d8:	0005d180 	call	5d18 <__subsf3>
    38dc:	1029883a 	mov	r20,r2
    38e0:	88004126 	beq	r17,zero,39e8 <__ieee754_expf+0x260>
    38e4:	8009883a 	mov	r4,r16
    38e8:	100b883a 	mov	r5,r2
    38ec:	00058e80 	call	58e8 <__mulsf3>
    38f0:	a00b883a 	mov	r5,r20
    38f4:	01100034 	movhi	r4,16384
    38f8:	1021883a 	mov	r16,r2
    38fc:	0005d180 	call	5d18 <__subsf3>
    3900:	100b883a 	mov	r5,r2
    3904:	8009883a 	mov	r4,r16
    3908:	00052ac0 	call	52ac <__divsf3>
    390c:	100b883a 	mov	r5,r2
    3910:	9809883a 	mov	r4,r19
    3914:	0005d180 	call	5d18 <__subsf3>
    3918:	900b883a 	mov	r5,r18
    391c:	1009883a 	mov	r4,r2
    3920:	0005d180 	call	5d18 <__subsf3>
    3924:	100b883a 	mov	r5,r2
    3928:	010fe034 	movhi	r4,16256
    392c:	0005d180 	call	5d18 <__subsf3>
    3930:	00ffe0c4 	movi	r3,-125
    3934:	88c05d0e 	bge	r17,r3,3aac <__ieee754_expf+0x324>
    3938:	8c401904 	addi	r17,r17,100
    393c:	880895fa 	slli	r4,r17,23
    3940:	01436034 	movhi	r5,3456
    3944:	2089883a 	add	r4,r4,r2
    3948:	00058e80 	call	58e8 <__mulsf3>
    394c:	00000f06 	br	398c <__ieee754_expf+0x204>
    3950:	00cc6034 	movhi	r3,12672
    3954:	18ffffc4 	addi	r3,r3,-1
    3958:	18801c36 	bltu	r3,r2,39cc <__ieee754_expf+0x244>
    395c:	015c52b4 	movhi	r5,29002
    3960:	297cb284 	addi	r5,r5,-3382
    3964:	8009883a 	mov	r4,r16
    3968:	0004de40 	call	4de4 <__addsf3>
    396c:	044fe034 	movhi	r17,16256
    3970:	880b883a 	mov	r5,r17
    3974:	1009883a 	mov	r4,r2
    3978:	00057640 	call	5764 <__gesf2>
    397c:	0080130e 	bge	zero,r2,39cc <__ieee754_expf+0x244>
    3980:	880b883a 	mov	r5,r17
    3984:	8009883a 	mov	r4,r16
    3988:	0004de40 	call	4de4 <__addsf3>
    398c:	dfc00517 	ldw	ra,20(sp)
    3990:	dd000417 	ldw	r20,16(sp)
    3994:	dcc00317 	ldw	r19,12(sp)
    3998:	dc800217 	ldw	r18,8(sp)
    399c:	dc400117 	ldw	r17,4(sp)
    39a0:	dc000017 	ldw	r16,0(sp)
    39a4:	dec00604 	addi	sp,sp,24
    39a8:	f800283a 	ret
    39ac:	8800051e 	bne	r17,zero,39c4 <__ieee754_expf+0x23c>
    39b0:	2005883a 	mov	r2,r4
    39b4:	003ff506 	br	398c <__ram_exceptions_end+0xfe00196c>
    39b8:	00d0b434 	movhi	r3,17104
    39bc:	18fc6d44 	addi	r3,r3,-3659
    39c0:	18bf852e 	bgeu	r3,r2,37d8 <__ram_exceptions_end+0xfe0017b8>
    39c4:	0005883a 	mov	r2,zero
    39c8:	003ff006 	br	398c <__ram_exceptions_end+0xfe00196c>
    39cc:	0023883a 	mov	r17,zero
    39d0:	003f9b06 	br	3840 <__ram_exceptions_end+0xfe001820>
    39d4:	015c52b4 	movhi	r5,29002
    39d8:	297cb284 	addi	r5,r5,-3382
    39dc:	2809883a 	mov	r4,r5
    39e0:	00058e80 	call	58e8 <__mulsf3>
    39e4:	003fe906 	br	398c <__ram_exceptions_end+0xfe00196c>
    39e8:	8009883a 	mov	r4,r16
    39ec:	100b883a 	mov	r5,r2
    39f0:	00058e80 	call	58e8 <__mulsf3>
    39f4:	a009883a 	mov	r4,r20
    39f8:	01500034 	movhi	r5,16384
    39fc:	1023883a 	mov	r17,r2
    3a00:	0005d180 	call	5d18 <__subsf3>
    3a04:	8809883a 	mov	r4,r17
    3a08:	100b883a 	mov	r5,r2
    3a0c:	00052ac0 	call	52ac <__divsf3>
    3a10:	800b883a 	mov	r5,r16
    3a14:	1009883a 	mov	r4,r2
    3a18:	0005d180 	call	5d18 <__subsf3>
    3a1c:	100b883a 	mov	r5,r2
    3a20:	010fe034 	movhi	r4,16256
    3a24:	0005d180 	call	5d18 <__subsf3>
    3a28:	003fd806 	br	398c <__ram_exceptions_end+0xfe00196c>
    3a2c:	014fee74 	movhi	r5,16313
    3a30:	296a8ec4 	addi	r5,r5,-21957
    3a34:	8009883a 	mov	r4,r16
    3a38:	00058e80 	call	58e8 <__mulsf3>
    3a3c:	8c63883a 	add	r17,r17,r17
    3a40:	00c00074 	movhi	r3,1
    3a44:	18ed1804 	addi	r3,r3,-19360
    3a48:	8c63883a 	add	r17,r17,r17
    3a4c:	1c63883a 	add	r17,r3,r17
    3a50:	89400017 	ldw	r5,0(r17)
    3a54:	1009883a 	mov	r4,r2
    3a58:	0004de40 	call	4de4 <__addsf3>
    3a5c:	1009883a 	mov	r4,r2
    3a60:	00061fc0 	call	61fc <__fixsfsi>
    3a64:	1009883a 	mov	r4,r2
    3a68:	1023883a 	mov	r17,r2
    3a6c:	000626c0 	call	626c <__floatsisf>
    3a70:	014fcc74 	movhi	r5,16177
    3a74:	295c6004 	addi	r5,r5,29056
    3a78:	1009883a 	mov	r4,r2
    3a7c:	1027883a 	mov	r19,r2
    3a80:	00058e80 	call	58e8 <__mulsf3>
    3a84:	100b883a 	mov	r5,r2
    3a88:	8009883a 	mov	r4,r16
    3a8c:	0005d180 	call	5d18 <__subsf3>
    3a90:	014dc634 	movhi	r5,14104
    3a94:	9809883a 	mov	r4,r19
    3a98:	297df444 	addi	r5,r5,-2095
    3a9c:	1025883a 	mov	r18,r2
    3aa0:	00058e80 	call	58e8 <__mulsf3>
    3aa4:	1027883a 	mov	r19,r2
    3aa8:	003f6106 	br	3830 <__ram_exceptions_end+0xfe001810>
    3aac:	882295fa 	slli	r17,r17,23
    3ab0:	8885883a 	add	r2,r17,r2
    3ab4:	003fb506 	br	398c <__ram_exceptions_end+0xfe00196c>

00003ab8 <__ieee754_logf>:
    3ab8:	00e00034 	movhi	r3,32768
    3abc:	defff704 	addi	sp,sp,-36
    3ac0:	18ffffc4 	addi	r3,r3,-1
    3ac4:	dfc00815 	stw	ra,32(sp)
    3ac8:	ddc00715 	stw	r23,28(sp)
    3acc:	dd800615 	stw	r22,24(sp)
    3ad0:	dd400515 	stw	r21,20(sp)
    3ad4:	dd000415 	stw	r20,16(sp)
    3ad8:	dcc00315 	stw	r19,12(sp)
    3adc:	dc800215 	stw	r18,8(sp)
    3ae0:	dc400115 	stw	r17,4(sp)
    3ae4:	dc000015 	stw	r16,0(sp)
    3ae8:	1906703a 	and	r3,r3,r4
    3aec:	18002626 	beq	r3,zero,3b88 <__ieee754_logf+0xd0>
    3af0:	200b883a 	mov	r5,r4
    3af4:	2005883a 	mov	r2,r4
    3af8:	20004516 	blt	r4,zero,3c10 <__ieee754_logf+0x158>
    3afc:	00dfe034 	movhi	r3,32640
    3b00:	18ffffc4 	addi	r3,r3,-1
    3b04:	19003c16 	blt	r3,r4,3bf8 <__ieee754_logf+0x140>
    3b08:	00c02034 	movhi	r3,128
    3b0c:	18ffffc4 	addi	r3,r3,-1
    3b10:	19003b0e 	bge	r3,r4,3c00 <__ieee754_logf+0x148>
    3b14:	0023883a 	mov	r17,zero
    3b18:	04802034 	movhi	r18,128
    3b1c:	94bfffc4 	addi	r18,r18,-1
    3b20:	010012f4 	movhi	r4,75
    3b24:	14a0703a 	and	r16,r2,r18
    3b28:	213ec804 	addi	r4,r4,-1248
    3b2c:	1007d5fa 	srai	r3,r2,23
    3b30:	8109883a 	add	r4,r16,r4
    3b34:	2100202c 	andhi	r4,r4,128
    3b38:	200dd5fa 	srai	r6,r4,23
    3b3c:	18bfe044 	addi	r2,r3,-127
    3b40:	210fe03c 	xorhi	r4,r4,16256
    3b44:	1445883a 	add	r2,r2,r17
    3b48:	014fe034 	movhi	r5,16256
    3b4c:	2408b03a 	or	r4,r4,r16
    3b50:	30a3883a 	add	r17,r6,r2
    3b54:	0005d180 	call	5d18 <__subsf3>
    3b58:	1027883a 	mov	r19,r2
    3b5c:	808003c4 	addi	r2,r16,15
    3b60:	14a4703a 	and	r18,r2,r18
    3b64:	008003c4 	movi	r2,15
    3b68:	14802e16 	blt	r2,r18,3c24 <__ieee754_logf+0x16c>
    3b6c:	000b883a 	mov	r5,zero
    3b70:	9809883a 	mov	r4,r19
    3b74:	00056ec0 	call	56ec <__eqsf2>
    3b78:	1000891e 	bne	r2,zero,3da0 <__ieee754_logf+0x2e8>
    3b7c:	8800101e 	bne	r17,zero,3bc0 <__ieee754_logf+0x108>
    3b80:	0005883a 	mov	r2,zero
    3b84:	00000306 	br	3b94 <__ieee754_logf+0xdc>
    3b88:	000b883a 	mov	r5,zero
    3b8c:	01330034 	movhi	r4,52224
    3b90:	00052ac0 	call	52ac <__divsf3>
    3b94:	dfc00817 	ldw	ra,32(sp)
    3b98:	ddc00717 	ldw	r23,28(sp)
    3b9c:	dd800617 	ldw	r22,24(sp)
    3ba0:	dd400517 	ldw	r21,20(sp)
    3ba4:	dd000417 	ldw	r20,16(sp)
    3ba8:	dcc00317 	ldw	r19,12(sp)
    3bac:	dc800217 	ldw	r18,8(sp)
    3bb0:	dc400117 	ldw	r17,4(sp)
    3bb4:	dc000017 	ldw	r16,0(sp)
    3bb8:	dec00904 	addi	sp,sp,36
    3bbc:	f800283a 	ret
    3bc0:	8809883a 	mov	r4,r17
    3bc4:	000626c0 	call	626c <__floatsisf>
    3bc8:	014fcc74 	movhi	r5,16177
    3bcc:	295c6004 	addi	r5,r5,29056
    3bd0:	1009883a 	mov	r4,r2
    3bd4:	1021883a 	mov	r16,r2
    3bd8:	00058e80 	call	58e8 <__mulsf3>
    3bdc:	014dc634 	movhi	r5,14104
    3be0:	297df444 	addi	r5,r5,-2095
    3be4:	8009883a 	mov	r4,r16
    3be8:	1023883a 	mov	r17,r2
    3bec:	00058e80 	call	58e8 <__mulsf3>
    3bf0:	100b883a 	mov	r5,r2
    3bf4:	8809883a 	mov	r4,r17
    3bf8:	0004de40 	call	4de4 <__addsf3>
    3bfc:	003fe506 	br	3b94 <__ram_exceptions_end+0xfe001b74>
    3c00:	01530034 	movhi	r5,19456
    3c04:	00058e80 	call	58e8 <__mulsf3>
    3c08:	047ff9c4 	movi	r17,-25
    3c0c:	003fc206 	br	3b18 <__ram_exceptions_end+0xfe001af8>
    3c10:	0005d180 	call	5d18 <__subsf3>
    3c14:	000b883a 	mov	r5,zero
    3c18:	1009883a 	mov	r4,r2
    3c1c:	00052ac0 	call	52ac <__divsf3>
    3c20:	003fdc06 	br	3b94 <__ram_exceptions_end+0xfe001b74>
    3c24:	01500034 	movhi	r5,16384
    3c28:	9809883a 	mov	r4,r19
    3c2c:	0004de40 	call	4de4 <__addsf3>
    3c30:	100b883a 	mov	r5,r2
    3c34:	9809883a 	mov	r4,r19
    3c38:	00052ac0 	call	52ac <__divsf3>
    3c3c:	8809883a 	mov	r4,r17
    3c40:	102b883a 	mov	r21,r2
    3c44:	000626c0 	call	626c <__floatsisf>
    3c48:	a80b883a 	mov	r5,r21
    3c4c:	a809883a 	mov	r4,r21
    3c50:	102d883a 	mov	r22,r2
    3c54:	00058e80 	call	58e8 <__mulsf3>
    3c58:	100b883a 	mov	r5,r2
    3c5c:	1009883a 	mov	r4,r2
    3c60:	102f883a 	mov	r23,r2
    3c64:	00058e80 	call	58e8 <__mulsf3>
    3c68:	014f8634 	movhi	r5,15896
    3c6c:	296225c4 	addi	r5,r5,-30569
    3c70:	1009883a 	mov	r4,r2
    3c74:	1025883a 	mov	r18,r2
    3c78:	00058e80 	call	58e8 <__mulsf3>
    3c7c:	014f8eb4 	movhi	r5,15930
    3c80:	294cc944 	addi	r5,r5,13093
    3c84:	1009883a 	mov	r4,r2
    3c88:	0004de40 	call	4de4 <__addsf3>
    3c8c:	900b883a 	mov	r5,r18
    3c90:	1009883a 	mov	r4,r2
    3c94:	00058e80 	call	58e8 <__mulsf3>
    3c98:	014fa4b4 	movhi	r5,16018
    3c9c:	29524944 	addi	r5,r5,18725
    3ca0:	1009883a 	mov	r4,r2
    3ca4:	0004de40 	call	4de4 <__addsf3>
    3ca8:	900b883a 	mov	r5,r18
    3cac:	1009883a 	mov	r4,r2
    3cb0:	00058e80 	call	58e8 <__mulsf3>
    3cb4:	014fcaf4 	movhi	r5,16171
    3cb8:	296aaac4 	addi	r5,r5,-21845
    3cbc:	1009883a 	mov	r4,r2
    3cc0:	0004de40 	call	4de4 <__addsf3>
    3cc4:	b80b883a 	mov	r5,r23
    3cc8:	1009883a 	mov	r4,r2
    3ccc:	00058e80 	call	58e8 <__mulsf3>
    3cd0:	014f8774 	movhi	r5,15901
    3cd4:	9009883a 	mov	r4,r18
    3cd8:	297413c4 	addi	r5,r5,-12209
    3cdc:	102f883a 	mov	r23,r2
    3ce0:	00058e80 	call	58e8 <__mulsf3>
    3ce4:	014f9934 	movhi	r5,15972
    3ce8:	29638a44 	addi	r5,r5,-29143
    3cec:	1009883a 	mov	r4,r2
    3cf0:	0004de40 	call	4de4 <__addsf3>
    3cf4:	900b883a 	mov	r5,r18
    3cf8:	1009883a 	mov	r4,r2
    3cfc:	00058e80 	call	58e8 <__mulsf3>
    3d00:	014fb374 	movhi	r5,16077
    3d04:	29733344 	addi	r5,r5,-13107
    3d08:	1009883a 	mov	r4,r2
    3d0c:	0004de40 	call	4de4 <__addsf3>
    3d10:	900b883a 	mov	r5,r18
    3d14:	1009883a 	mov	r4,r2
    3d18:	00058e80 	call	58e8 <__mulsf3>
    3d1c:	100b883a 	mov	r5,r2
    3d20:	b809883a 	mov	r4,r23
    3d24:	0004de40 	call	4de4 <__addsf3>
    3d28:	053ff3f4 	movhi	r20,65487
    3d2c:	1025883a 	mov	r18,r2
    3d30:	00800db4 	movhi	r2,54
    3d34:	a5170c04 	addi	r20,r20,23600
    3d38:	10b0a204 	addi	r2,r2,-15736
    3d3c:	8529883a 	add	r20,r16,r20
    3d40:	1405c83a 	sub	r2,r2,r16
    3d44:	1528b03a 	or	r20,r2,r20
    3d48:	05005c0e 	bge	zero,r20,3ebc <__ieee754_logf+0x404>
    3d4c:	014fc034 	movhi	r5,16128
    3d50:	9809883a 	mov	r4,r19
    3d54:	00058e80 	call	58e8 <__mulsf3>
    3d58:	980b883a 	mov	r5,r19
    3d5c:	1009883a 	mov	r4,r2
    3d60:	00058e80 	call	58e8 <__mulsf3>
    3d64:	1021883a 	mov	r16,r2
    3d68:	8800211e 	bne	r17,zero,3df0 <__ieee754_logf+0x338>
    3d6c:	9009883a 	mov	r4,r18
    3d70:	100b883a 	mov	r5,r2
    3d74:	0004de40 	call	4de4 <__addsf3>
    3d78:	a80b883a 	mov	r5,r21
    3d7c:	1009883a 	mov	r4,r2
    3d80:	00058e80 	call	58e8 <__mulsf3>
    3d84:	8009883a 	mov	r4,r16
    3d88:	100b883a 	mov	r5,r2
    3d8c:	0005d180 	call	5d18 <__subsf3>
    3d90:	100b883a 	mov	r5,r2
    3d94:	9809883a 	mov	r4,r19
    3d98:	0005d180 	call	5d18 <__subsf3>
    3d9c:	003f7d06 	br	3b94 <__ram_exceptions_end+0xfe001b74>
    3da0:	014faaf4 	movhi	r5,16043
    3da4:	296aaac4 	addi	r5,r5,-21845
    3da8:	9809883a 	mov	r4,r19
    3dac:	00058e80 	call	58e8 <__mulsf3>
    3db0:	100b883a 	mov	r5,r2
    3db4:	010fc034 	movhi	r4,16128
    3db8:	0005d180 	call	5d18 <__subsf3>
    3dbc:	980b883a 	mov	r5,r19
    3dc0:	9809883a 	mov	r4,r19
    3dc4:	1021883a 	mov	r16,r2
    3dc8:	00058e80 	call	58e8 <__mulsf3>
    3dcc:	8009883a 	mov	r4,r16
    3dd0:	100b883a 	mov	r5,r2
    3dd4:	00058e80 	call	58e8 <__mulsf3>
    3dd8:	1021883a 	mov	r16,r2
    3ddc:	8800211e 	bne	r17,zero,3e64 <__ieee754_logf+0x3ac>
    3de0:	100b883a 	mov	r5,r2
    3de4:	9809883a 	mov	r4,r19
    3de8:	0005d180 	call	5d18 <__subsf3>
    3dec:	003f6906 	br	3b94 <__ram_exceptions_end+0xfe001b74>
    3df0:	014fcc74 	movhi	r5,16177
    3df4:	b009883a 	mov	r4,r22
    3df8:	295c6004 	addi	r5,r5,29056
    3dfc:	00058e80 	call	58e8 <__mulsf3>
    3e00:	800b883a 	mov	r5,r16
    3e04:	9009883a 	mov	r4,r18
    3e08:	1023883a 	mov	r17,r2
    3e0c:	0004de40 	call	4de4 <__addsf3>
    3e10:	a80b883a 	mov	r5,r21
    3e14:	1009883a 	mov	r4,r2
    3e18:	00058e80 	call	58e8 <__mulsf3>
    3e1c:	014dc634 	movhi	r5,14104
    3e20:	b009883a 	mov	r4,r22
    3e24:	297df444 	addi	r5,r5,-2095
    3e28:	1025883a 	mov	r18,r2
    3e2c:	00058e80 	call	58e8 <__mulsf3>
    3e30:	9009883a 	mov	r4,r18
    3e34:	100b883a 	mov	r5,r2
    3e38:	0004de40 	call	4de4 <__addsf3>
    3e3c:	8009883a 	mov	r4,r16
    3e40:	100b883a 	mov	r5,r2
    3e44:	0005d180 	call	5d18 <__subsf3>
    3e48:	980b883a 	mov	r5,r19
    3e4c:	1009883a 	mov	r4,r2
    3e50:	0005d180 	call	5d18 <__subsf3>
    3e54:	100b883a 	mov	r5,r2
    3e58:	8809883a 	mov	r4,r17
    3e5c:	0005d180 	call	5d18 <__subsf3>
